
./.libs/sox:     file format elf64-littleaarch64


Disassembly of section .init:

00000000004022b0 <_init>:
  4022b0:	d503233f 	paciasp
  4022b4:	a9bf7bfd 	stp	x29, x30, [sp, #-16]!
  4022b8:	910003fd 	mov	x29, sp
  4022bc:	94000613 	bl	403b08 <call_weak_fn>
  4022c0:	a8c17bfd 	ldp	x29, x30, [sp], #16
  4022c4:	d50323bf 	autiasp
  4022c8:	d65f03c0 	ret

Disassembly of section .plt:

00000000004022d0 <.plt>:
  4022d0:	a9bf7bf0 	stp	x16, x30, [sp, #-16]!
  4022d4:	b00000f0 	adrp	x16, 41f000 <__FRAME_END__+0x10b24>
  4022d8:	f947fe11 	ldr	x17, [x16, #4088]
  4022dc:	913fe210 	add	x16, x16, #0xff8
  4022e0:	d61f0220 	br	x17
  4022e4:	d503201f 	nop
  4022e8:	d503201f 	nop
  4022ec:	d503201f 	nop

00000000004022f0 <fputs@plt>:
  4022f0:	d00000f0 	adrp	x16, 420000 <fputs@GLIBC_2.17>
  4022f4:	f9400211 	ldr	x17, [x16]
  4022f8:	91000210 	add	x16, x16, #0x0
  4022fc:	d61f0220 	br	x17

0000000000402300 <memcpy@plt>:
  402300:	d00000f0 	adrp	x16, 420000 <fputs@GLIBC_2.17>
  402304:	f9400611 	ldr	x17, [x16, #8]
  402308:	91002210 	add	x16, x16, #0x8
  40230c:	d61f0220 	br	x17

0000000000402310 <select@plt>:
  402310:	d00000f0 	adrp	x16, 420000 <fputs@GLIBC_2.17>
  402314:	f9400a11 	ldr	x17, [x16, #16]
  402318:	91004210 	add	x16, x16, #0x10
  40231c:	d61f0220 	br	x17

0000000000402320 <lsx_realloc_array@plt>:
  402320:	d00000f0 	adrp	x16, 420000 <fputs@GLIBC_2.17>
  402324:	f9400e11 	ldr	x17, [x16, #24]
  402328:	91006210 	add	x16, x16, #0x18
  40232c:	d61f0220 	br	x17

0000000000402330 <sox_read@plt>:
  402330:	d00000f0 	adrp	x16, 420000 <fputs@GLIBC_2.17>
  402334:	f9401211 	ldr	x17, [x16, #32]
  402338:	91008210 	add	x16, x16, #0x20
  40233c:	d61f0220 	br	x17

0000000000402340 <lsx_getopt_init@plt>:
  402340:	d00000f0 	adrp	x16, 420000 <fputs@GLIBC_2.17>
  402344:	f9401611 	ldr	x17, [x16, #40]
  402348:	9100a210 	add	x16, x16, #0x28
  40234c:	d61f0220 	br	x17

0000000000402350 <lsx_realloc@plt>:
  402350:	d00000f0 	adrp	x16, 420000 <fputs@GLIBC_2.17>
  402354:	f9401a11 	ldr	x17, [x16, #48]
  402358:	9100c210 	add	x16, x16, #0x30
  40235c:	d61f0220 	br	x17

0000000000402360 <puts@plt>:
  402360:	d00000f0 	adrp	x16, 420000 <fputs@GLIBC_2.17>
  402364:	f9401e11 	ldr	x17, [x16, #56]
  402368:	9100e210 	add	x16, x16, #0x38
  40236c:	d61f0220 	br	x17

0000000000402370 <sox_open_write@plt>:
  402370:	d00000f0 	adrp	x16, 420000 <fputs@GLIBC_2.17>
  402374:	f9402211 	ldr	x17, [x16, #64]
  402378:	91010210 	add	x16, x16, #0x40
  40237c:	d61f0220 	br	x17

0000000000402380 <sox_delete_effects_chain@plt>:
  402380:	d00000f0 	adrp	x16, 420000 <fputs@GLIBC_2.17>
  402384:	f9402611 	ldr	x17, [x16, #72]
  402388:	91012210 	add	x16, x16, #0x48
  40238c:	d61f0220 	br	x17

0000000000402390 <lsx_getopt@plt>:
  402390:	d00000f0 	adrp	x16, 420000 <fputs@GLIBC_2.17>
  402394:	f9402a11 	ldr	x17, [x16, #80]
  402398:	91014210 	add	x16, x16, #0x50
  40239c:	d61f0220 	br	x17

00000000004023a0 <lsx_find_enum_text@plt>:
  4023a0:	d00000f0 	adrp	x16, 420000 <fputs@GLIBC_2.17>
  4023a4:	f9402e11 	ldr	x17, [x16, #88]
  4023a8:	91016210 	add	x16, x16, #0x58
  4023ac:	d61f0220 	br	x17

00000000004023b0 <sox_get_format_fns@plt>:
  4023b0:	d00000f0 	adrp	x16, 420000 <fputs@GLIBC_2.17>
  4023b4:	f9403211 	ldr	x17, [x16, #96]
  4023b8:	91018210 	add	x16, x16, #0x60
  4023bc:	d61f0220 	br	x17

00000000004023c0 <strlen@plt>:
  4023c0:	d00000f0 	adrp	x16, 420000 <fputs@GLIBC_2.17>
  4023c4:	f9403611 	ldr	x17, [x16, #104]
  4023c8:	9101a210 	add	x16, x16, #0x68
  4023cc:	d61f0220 	br	x17

00000000004023d0 <fprintf@plt>:
  4023d0:	d00000f0 	adrp	x16, 420000 <fputs@GLIBC_2.17>
  4023d4:	f9403a11 	ldr	x17, [x16, #112]
  4023d8:	9101c210 	add	x16, x16, #0x70
  4023dc:	d61f0220 	br	x17

00000000004023e0 <uname@plt>:
  4023e0:	d00000f0 	adrp	x16, 420000 <fputs@GLIBC_2.17>
  4023e4:	f9403e11 	ldr	x17, [x16, #120]
  4023e8:	9101e210 	add	x16, x16, #0x78
  4023ec:	d61f0220 	br	x17

00000000004023f0 <sox_copy_comments@plt>:
  4023f0:	d00000f0 	adrp	x16, 420000 <fputs@GLIBC_2.17>
  4023f4:	f9404211 	ldr	x17, [x16, #128]
  4023f8:	91020210 	add	x16, x16, #0x80
  4023fc:	d61f0220 	br	x17

0000000000402400 <__stack_chk_fail@plt>:
  402400:	d00000f0 	adrp	x16, 420000 <fputs@GLIBC_2.17>
  402404:	f9404611 	ldr	x17, [x16, #136]
  402408:	91022210 	add	x16, x16, #0x88
  40240c:	d61f0220 	br	x17

0000000000402410 <fileno@plt>:
  402410:	d00000f0 	adrp	x16, 420000 <fputs@GLIBC_2.17>
  402414:	f9404a11 	ldr	x17, [x16, #144]
  402418:	91024210 	add	x16, x16, #0x90
  40241c:	d61f0220 	br	x17

0000000000402420 <putc@plt>:
  402420:	d00000f0 	adrp	x16, 420000 <fputs@GLIBC_2.17>
  402424:	f9404e11 	ldr	x17, [x16, #152]
  402428:	91026210 	add	x16, x16, #0x98
  40242c:	d61f0220 	br	x17

0000000000402430 <sox_add_effect@plt>:
  402430:	d00000f0 	adrp	x16, 420000 <fputs@GLIBC_2.17>
  402434:	f9405211 	ldr	x17, [x16, #160]
  402438:	91028210 	add	x16, x16, #0xa0
  40243c:	d61f0220 	br	x17

0000000000402440 <lsx_fail_impl@plt>:
  402440:	d00000f0 	adrp	x16, 420000 <fputs@GLIBC_2.17>
  402444:	f9405611 	ldr	x17, [x16, #168]
  402448:	9102a210 	add	x16, x16, #0xa8
  40244c:	d61f0220 	br	x17

0000000000402450 <fclose@plt>:
  402450:	d00000f0 	adrp	x16, 420000 <fputs@GLIBC_2.17>
  402454:	f9405a11 	ldr	x17, [x16, #176]
  402458:	9102c210 	add	x16, x16, #0xb0
  40245c:	d61f0220 	br	x17

0000000000402460 <sox_delete_effects@plt>:
  402460:	d00000f0 	adrp	x16, 420000 <fputs@GLIBC_2.17>
  402464:	f9405e11 	ldr	x17, [x16, #184]
  402468:	9102e210 	add	x16, x16, #0xb8
  40246c:	d61f0220 	br	x17

0000000000402470 <memcmp@plt>:
  402470:	d00000f0 	adrp	x16, 420000 <fputs@GLIBC_2.17>
  402474:	f9406211 	ldr	x17, [x16, #192]
  402478:	91030210 	add	x16, x16, #0xc0
  40247c:	d61f0220 	br	x17

0000000000402480 <sox_quit@plt>:
  402480:	d00000f0 	adrp	x16, 420000 <fputs@GLIBC_2.17>
  402484:	f9406611 	ldr	x17, [x16, #200]
  402488:	91032210 	add	x16, x16, #0xc8
  40248c:	d61f0220 	br	x17

0000000000402490 <lsx_warn_impl@plt>:
  402490:	d00000f0 	adrp	x16, 420000 <fputs@GLIBC_2.17>
  402494:	f9406a11 	ldr	x17, [x16, #208]
  402498:	91034210 	add	x16, x16, #0xd0
  40249c:	d61f0220 	br	x17

00000000004024a0 <sigemptyset@plt>:
  4024a0:	d00000f0 	adrp	x16, 420000 <fputs@GLIBC_2.17>
  4024a4:	f9406e11 	ldr	x17, [x16, #216]
  4024a8:	91036210 	add	x16, x16, #0xd8
  4024ac:	d61f0220 	br	x17

00000000004024b0 <sox_find_format@plt>:
  4024b0:	d00000f0 	adrp	x16, 420000 <fputs@GLIBC_2.17>
  4024b4:	f9407211 	ldr	x17, [x16, #224]
  4024b8:	91038210 	add	x16, x16, #0xe0
  4024bc:	d61f0220 	br	x17

00000000004024c0 <free@plt>:
  4024c0:	d00000f0 	adrp	x16, 420000 <fputs@GLIBC_2.17>
  4024c4:	f9407611 	ldr	x17, [x16, #232]
  4024c8:	9103a210 	add	x16, x16, #0xe8
  4024cc:	d61f0220 	br	x17

00000000004024d0 <memset@plt>:
  4024d0:	d00000f0 	adrp	x16, 420000 <fputs@GLIBC_2.17>
  4024d4:	f9407a11 	ldr	x17, [x16, #240]
  4024d8:	9103c210 	add	x16, x16, #0xf0
  4024dc:	d61f0220 	br	x17

00000000004024e0 <sox_append_comment@plt>:
  4024e0:	d00000f0 	adrp	x16, 420000 <fputs@GLIBC_2.17>
  4024e4:	f9407e11 	ldr	x17, [x16, #248]
  4024e8:	9103e210 	add	x16, x16, #0xf8
  4024ec:	d61f0220 	br	x17

00000000004024f0 <strchr@plt>:
  4024f0:	d00000f0 	adrp	x16, 420000 <fputs@GLIBC_2.17>
  4024f4:	f9408211 	ldr	x17, [x16, #256]
  4024f8:	91040210 	add	x16, x16, #0x100
  4024fc:	d61f0220 	br	x17

0000000000402500 <lsx_filelength@plt>:
  402500:	d00000f0 	adrp	x16, 420000 <fputs@GLIBC_2.17>
  402504:	f9408611 	ldr	x17, [x16, #264]
  402508:	91042210 	add	x16, x16, #0x108
  40250c:	d61f0220 	br	x17

0000000000402510 <isatty@plt>:
  402510:	d00000f0 	adrp	x16, 420000 <fputs@GLIBC_2.17>
  402514:	f9408a11 	ldr	x17, [x16, #272]
  402518:	91044210 	add	x16, x16, #0x110
  40251c:	d61f0220 	br	x17

0000000000402520 <qsort@plt>:
  402520:	d00000f0 	adrp	x16, 420000 <fputs@GLIBC_2.17>
  402524:	f9408e11 	ldr	x17, [x16, #280]
  402528:	91046210 	add	x16, x16, #0x118
  40252c:	d61f0220 	br	x17

0000000000402530 <sox_version_info@plt>:
  402530:	d00000f0 	adrp	x16, 420000 <fputs@GLIBC_2.17>
  402534:	f9409211 	ldr	x17, [x16, #288]
  402538:	91048210 	add	x16, x16, #0x120
  40253c:	d61f0220 	br	x17

0000000000402540 <sox_find_effect@plt>:
  402540:	d00000f0 	adrp	x16, 420000 <fputs@GLIBC_2.17>
  402544:	f9409611 	ldr	x17, [x16, #296]
  402548:	9104a210 	add	x16, x16, #0x128
  40254c:	d61f0220 	br	x17

0000000000402550 <sox_delete_effect_last@plt>:
  402550:	d00000f0 	adrp	x16, 420000 <fputs@GLIBC_2.17>
  402554:	f9409a11 	ldr	x17, [x16, #304]
  402558:	9104c210 	add	x16, x16, #0x130
  40255c:	d61f0220 	br	x17

0000000000402560 <__isoc99_scanf@plt>:
  402560:	d00000f0 	adrp	x16, 420000 <fputs@GLIBC_2.17>
  402564:	f9409e11 	ldr	x17, [x16, #312]
  402568:	9104e210 	add	x16, x16, #0x138
  40256c:	d61f0220 	br	x17

0000000000402570 <sox_format_supports_encoding@plt>:
  402570:	d00000f0 	adrp	x16, 420000 <fputs@GLIBC_2.17>
  402574:	f940a211 	ldr	x17, [x16, #320]
  402578:	91050210 	add	x16, x16, #0x140
  40257c:	d61f0220 	br	x17

0000000000402580 <strerror@plt>:
  402580:	d00000f0 	adrp	x16, 420000 <fputs@GLIBC_2.17>
  402584:	f940a611 	ldr	x17, [x16, #328]
  402588:	91052210 	add	x16, x16, #0x148
  40258c:	d61f0220 	br	x17

0000000000402590 <strcpy@plt>:
  402590:	d00000f0 	adrp	x16, 420000 <fputs@GLIBC_2.17>
  402594:	f940aa11 	ldr	x17, [x16, #336]
  402598:	91054210 	add	x16, x16, #0x150
  40259c:	d61f0220 	br	x17

00000000004025a0 <sox_push_effect_last@plt>:
  4025a0:	d00000f0 	adrp	x16, 420000 <fputs@GLIBC_2.17>
  4025a4:	f940ae11 	ldr	x17, [x16, #344]
  4025a8:	91056210 	add	x16, x16, #0x158
  4025ac:	d61f0220 	br	x17

00000000004025b0 <__libc_start_main@plt>:
  4025b0:	d00000f0 	adrp	x16, 420000 <fputs@GLIBC_2.17>
  4025b4:	f940b211 	ldr	x17, [x16, #352]
  4025b8:	91058210 	add	x16, x16, #0x160
  4025bc:	d61f0220 	br	x17

00000000004025c0 <gettimeofday@plt>:
  4025c0:	d00000f0 	adrp	x16, 420000 <fputs@GLIBC_2.17>
  4025c4:	f940b611 	ldr	x17, [x16, #360]
  4025c8:	9105a210 	add	x16, x16, #0x168
  4025cc:	d61f0220 	br	x17

00000000004025d0 <sprintf@plt>:
  4025d0:	d00000f0 	adrp	x16, 420000 <fputs@GLIBC_2.17>
  4025d4:	f940ba11 	ldr	x17, [x16, #368]
  4025d8:	9105c210 	add	x16, x16, #0x170
  4025dc:	d61f0220 	br	x17

00000000004025e0 <sox_open_read@plt>:
  4025e0:	d00000f0 	adrp	x16, 420000 <fputs@GLIBC_2.17>
  4025e4:	f940be11 	ldr	x17, [x16, #376]
  4025e8:	9105e210 	add	x16, x16, #0x178
  4025ec:	d61f0220 	br	x17

00000000004025f0 <sox_strerror@plt>:
  4025f0:	d00000f0 	adrp	x16, 420000 <fputs@GLIBC_2.17>
  4025f4:	f940c211 	ldr	x17, [x16, #384]
  4025f8:	91060210 	add	x16, x16, #0x180
  4025fc:	d61f0220 	br	x17

0000000000402600 <sox_write@plt>:
  402600:	d00000f0 	adrp	x16, 420000 <fputs@GLIBC_2.17>
  402604:	f940c611 	ldr	x17, [x16, #392]
  402608:	91062210 	add	x16, x16, #0x188
  40260c:	d61f0220 	br	x17

0000000000402610 <log10@plt>:
  402610:	d00000f0 	adrp	x16, 420000 <fputs@GLIBC_2.17>
  402614:	f940ca11 	ldr	x17, [x16, #400]
  402618:	91064210 	add	x16, x16, #0x190
  40261c:	d61f0220 	br	x17

0000000000402620 <ioctl@plt>:
  402620:	d00000f0 	adrp	x16, 420000 <fputs@GLIBC_2.17>
  402624:	f940ce11 	ldr	x17, [x16, #408]
  402628:	91066210 	add	x16, x16, #0x198
  40262c:	d61f0220 	br	x17

0000000000402630 <lsx_debug_impl@plt>:
  402630:	d00000f0 	adrp	x16, 420000 <fputs@GLIBC_2.17>
  402634:	f940d211 	ldr	x17, [x16, #416]
  402638:	91068210 	add	x16, x16, #0x1a0
  40263c:	d61f0220 	br	x17

0000000000402640 <sox_delete_comments@plt>:
  402640:	d00000f0 	adrp	x16, 420000 <fputs@GLIBC_2.17>
  402644:	f940d611 	ldr	x17, [x16, #424]
  402648:	9106a210 	add	x16, x16, #0x1a8
  40264c:	d61f0220 	br	x17

0000000000402650 <unlink@plt>:
  402650:	d00000f0 	adrp	x16, 420000 <fputs@GLIBC_2.17>
  402654:	f940da11 	ldr	x17, [x16, #432]
  402658:	9106c210 	add	x16, x16, #0x1b0
  40265c:	d61f0220 	br	x17

0000000000402660 <lsx_strdup@plt>:
  402660:	d00000f0 	adrp	x16, 420000 <fputs@GLIBC_2.17>
  402664:	f940de11 	ldr	x17, [x16, #440]
  402668:	9106e210 	add	x16, x16, #0x1b8
  40266c:	d61f0220 	br	x17

0000000000402670 <sox_close@plt>:
  402670:	d00000f0 	adrp	x16, 420000 <fputs@GLIBC_2.17>
  402674:	f940e211 	ldr	x17, [x16, #448]
  402678:	91070210 	add	x16, x16, #0x1c0
  40267c:	d61f0220 	br	x17

0000000000402680 <stat@plt>:
  402680:	d00000f0 	adrp	x16, 420000 <fputs@GLIBC_2.17>
  402684:	f940e611 	ldr	x17, [x16, #456]
  402688:	91072210 	add	x16, x16, #0x1c8
  40268c:	d61f0220 	br	x17

0000000000402690 <sox_create_effect@plt>:
  402690:	d00000f0 	adrp	x16, 420000 <fputs@GLIBC_2.17>
  402694:	f940ea11 	ldr	x17, [x16, #464]
  402698:	91074210 	add	x16, x16, #0x1d0
  40269c:	d61f0220 	br	x17

00000000004026a0 <sox_pop_effect_last@plt>:
  4026a0:	d00000f0 	adrp	x16, 420000 <fputs@GLIBC_2.17>
  4026a4:	f940ee11 	ldr	x17, [x16, #472]
  4026a8:	91076210 	add	x16, x16, #0x1d8
  4026ac:	d61f0220 	br	x17

00000000004026b0 <sox_precision@plt>:
  4026b0:	d00000f0 	adrp	x16, 420000 <fputs@GLIBC_2.17>
  4026b4:	f940f211 	ldr	x17, [x16, #480]
  4026b8:	91078210 	add	x16, x16, #0x1e0
  4026bc:	d61f0220 	br	x17

00000000004026c0 <getc@plt>:
  4026c0:	d00000f0 	adrp	x16, 420000 <fputs@GLIBC_2.17>
  4026c4:	f940f611 	ldr	x17, [x16, #488]
  4026c8:	9107a210 	add	x16, x16, #0x1e8
  4026cc:	d61f0220 	br	x17

00000000004026d0 <sox_trim_clear_start@plt>:
  4026d0:	d00000f0 	adrp	x16, 420000 <fputs@GLIBC_2.17>
  4026d4:	f940fa11 	ldr	x17, [x16, #496]
  4026d8:	9107c210 	add	x16, x16, #0x1f0
  4026dc:	d61f0220 	br	x17

00000000004026e0 <lsx_find_file_extension@plt>:
  4026e0:	d00000f0 	adrp	x16, 420000 <fputs@GLIBC_2.17>
  4026e4:	f940fe11 	ldr	x17, [x16, #504]
  4026e8:	9107e210 	add	x16, x16, #0x1f8
  4026ec:	d61f0220 	br	x17

00000000004026f0 <fputc@plt>:
  4026f0:	d00000f0 	adrp	x16, 420000 <fputs@GLIBC_2.17>
  4026f4:	f9410211 	ldr	x17, [x16, #512]
  4026f8:	91080210 	add	x16, x16, #0x200
  4026fc:	d61f0220 	br	x17

0000000000402700 <glob@plt>:
  402700:	d00000f0 	adrp	x16, 420000 <fputs@GLIBC_2.17>
  402704:	f9410611 	ldr	x17, [x16, #520]
  402708:	91082210 	add	x16, x16, #0x208
  40270c:	d61f0220 	br	x17

0000000000402710 <sox_get_globals@plt>:
  402710:	d00000f0 	adrp	x16, 420000 <fputs@GLIBC_2.17>
  402714:	f9410a11 	ldr	x17, [x16, #528]
  402718:	91084210 	add	x16, x16, #0x210
  40271c:	d61f0220 	br	x17

0000000000402720 <sox_parse_playlist@plt>:
  402720:	d00000f0 	adrp	x16, 420000 <fputs@GLIBC_2.17>
  402724:	f9410e11 	ldr	x17, [x16, #536]
  402728:	91086210 	add	x16, x16, #0x218
  40272c:	d61f0220 	br	x17

0000000000402730 <__ctype_b_loc@plt>:
  402730:	d00000f0 	adrp	x16, 420000 <fputs@GLIBC_2.17>
  402734:	f9411211 	ldr	x17, [x16, #544]
  402738:	91088210 	add	x16, x16, #0x220
  40273c:	d61f0220 	br	x17

0000000000402740 <__isoc99_sscanf@plt>:
  402740:	d00000f0 	adrp	x16, 420000 <fputs@GLIBC_2.17>
  402744:	f9411611 	ldr	x17, [x16, #552]
  402748:	9108a210 	add	x16, x16, #0x228
  40274c:	d61f0220 	br	x17

0000000000402750 <lsx_report_impl@plt>:
  402750:	d00000f0 	adrp	x16, 420000 <fputs@GLIBC_2.17>
  402754:	f9411a11 	ldr	x17, [x16, #560]
  402758:	9108c210 	add	x16, x16, #0x230
  40275c:	d61f0220 	br	x17

0000000000402760 <__cxa_atexit@plt>:
  402760:	d00000f0 	adrp	x16, 420000 <fputs@GLIBC_2.17>
  402764:	f9411e11 	ldr	x17, [x16, #568]
  402768:	9108e210 	add	x16, x16, #0x238
  40276c:	d61f0220 	br	x17

0000000000402770 <snprintf@plt>:
  402770:	d00000f0 	adrp	x16, 420000 <fputs@GLIBC_2.17>
  402774:	f9412211 	ldr	x17, [x16, #576]
  402778:	91090210 	add	x16, x16, #0x240
  40277c:	d61f0220 	br	x17

0000000000402780 <lsx_calloc@plt>:
  402780:	d00000f0 	adrp	x16, 420000 <fputs@GLIBC_2.17>
  402784:	f9412611 	ldr	x17, [x16, #584]
  402788:	91092210 	add	x16, x16, #0x248
  40278c:	d61f0220 	br	x17

0000000000402790 <lsx_sigfigs3@plt>:
  402790:	d00000f0 	adrp	x16, 420000 <fputs@GLIBC_2.17>
  402794:	f9412a11 	ldr	x17, [x16, #592]
  402798:	91094210 	add	x16, x16, #0x250
  40279c:	d61f0220 	br	x17

00000000004027a0 <sox_effect_options@plt>:
  4027a0:	d00000f0 	adrp	x16, 420000 <fputs@GLIBC_2.17>
  4027a4:	f9412e11 	ldr	x17, [x16, #600]
  4027a8:	91096210 	add	x16, x16, #0x258
  4027ac:	d61f0220 	br	x17

00000000004027b0 <lsx_find_enum_value@plt>:
  4027b0:	d00000f0 	adrp	x16, 420000 <fputs@GLIBC_2.17>
  4027b4:	f9413211 	ldr	x17, [x16, #608]
  4027b8:	91098210 	add	x16, x16, #0x260
  4027bc:	d61f0220 	br	x17

00000000004027c0 <sox_effects_clips@plt>:
  4027c0:	d00000f0 	adrp	x16, 420000 <fputs@GLIBC_2.17>
  4027c4:	f9413611 	ldr	x17, [x16, #616]
  4027c8:	9109a210 	add	x16, x16, #0x268
  4027cc:	d61f0220 	br	x17

00000000004027d0 <sox_is_playlist@plt>:
  4027d0:	d00000f0 	adrp	x16, 420000 <fputs@GLIBC_2.17>
  4027d4:	f9413a11 	ldr	x17, [x16, #624]
  4027d8:	9109c210 	add	x16, x16, #0x270
  4027dc:	d61f0220 	br	x17

00000000004027e0 <sox_num_comments@plt>:
  4027e0:	d00000f0 	adrp	x16, 420000 <fputs@GLIBC_2.17>
  4027e4:	f9413e11 	ldr	x17, [x16, #632]
  4027e8:	9109e210 	add	x16, x16, #0x278
  4027ec:	d61f0220 	br	x17

00000000004027f0 <lsx_malloc@plt>:
  4027f0:	d00000f0 	adrp	x16, 420000 <fputs@GLIBC_2.17>
  4027f4:	f9414211 	ldr	x17, [x16, #640]
  4027f8:	910a0210 	add	x16, x16, #0x280
  4027fc:	d61f0220 	br	x17

0000000000402800 <__errno_location@plt>:
  402800:	d00000f0 	adrp	x16, 420000 <fputs@GLIBC_2.17>
  402804:	f9414611 	ldr	x17, [x16, #648]
  402808:	910a2210 	add	x16, x16, #0x288
  40280c:	d61f0220 	br	x17

0000000000402810 <sox_trim_get_start@plt>:
  402810:	d00000f0 	adrp	x16, 420000 <fputs@GLIBC_2.17>
  402814:	f9414a11 	ldr	x17, [x16, #656]
  402818:	910a4210 	add	x16, x16, #0x290
  40281c:	d61f0220 	br	x17

0000000000402820 <fopen@plt>:
  402820:	d00000f0 	adrp	x16, 420000 <fputs@GLIBC_2.17>
  402824:	f9414e11 	ldr	x17, [x16, #664]
  402828:	910a6210 	add	x16, x16, #0x298
  40282c:	d61f0220 	br	x17

0000000000402830 <sox_get_effect_fns@plt>:
  402830:	d00000f0 	adrp	x16, 420000 <fputs@GLIBC_2.17>
  402834:	f9415211 	ldr	x17, [x16, #672]
  402838:	910a8210 	add	x16, x16, #0x2a0
  40283c:	d61f0220 	br	x17

0000000000402840 <strcmp@plt>:
  402840:	d00000f0 	adrp	x16, 420000 <fputs@GLIBC_2.17>
  402844:	f9415611 	ldr	x17, [x16, #680]
  402848:	910aa210 	add	x16, x16, #0x2a8
  40284c:	d61f0220 	br	x17

0000000000402850 <fgets@plt>:
  402850:	d00000f0 	adrp	x16, 420000 <fputs@GLIBC_2.17>
  402854:	f9415a11 	ldr	x17, [x16, #688]
  402858:	910ac210 	add	x16, x16, #0x2b0
  40285c:	d61f0220 	br	x17

0000000000402860 <sox_init@plt>:
  402860:	d00000f0 	adrp	x16, 420000 <fputs@GLIBC_2.17>
  402864:	f9415e11 	ldr	x17, [x16, #696]
  402868:	910ae210 	add	x16, x16, #0x2b8
  40286c:	d61f0220 	br	x17

0000000000402870 <lsx_strcasecmp@plt>:
  402870:	d00000f0 	adrp	x16, 420000 <fputs@GLIBC_2.17>
  402874:	f9416211 	ldr	x17, [x16, #704]
  402878:	910b0210 	add	x16, x16, #0x2c0
  40287c:	d61f0220 	br	x17

0000000000402880 <sox_format_init@plt>:
  402880:	d00000f0 	adrp	x16, 420000 <fputs@GLIBC_2.17>
  402884:	f9416611 	ldr	x17, [x16, #712]
  402888:	910b2210 	add	x16, x16, #0x2c8
  40288c:	d61f0220 	br	x17

0000000000402890 <sox_get_encodings_info@plt>:
  402890:	d00000f0 	adrp	x16, 420000 <fputs@GLIBC_2.17>
  402894:	f9416a11 	ldr	x17, [x16, #720]
  402898:	910b4210 	add	x16, x16, #0x2d0
  40289c:	d61f0220 	br	x17

00000000004028a0 <tcgetattr@plt>:
  4028a0:	d00000f0 	adrp	x16, 420000 <fputs@GLIBC_2.17>
  4028a4:	f9416e11 	ldr	x17, [x16, #728]
  4028a8:	910b6210 	add	x16, x16, #0x2d8
  4028ac:	d61f0220 	br	x17

00000000004028b0 <sox_find_comment@plt>:
  4028b0:	d00000f0 	adrp	x16, 420000 <fputs@GLIBC_2.17>
  4028b4:	f9417211 	ldr	x17, [x16, #736]
  4028b8:	910b8210 	add	x16, x16, #0x2e0
  4028bc:	d61f0220 	br	x17

00000000004028c0 <sox_write_handler@plt>:
  4028c0:	d00000f0 	adrp	x16, 420000 <fputs@GLIBC_2.17>
  4028c4:	f9417611 	ldr	x17, [x16, #744]
  4028c8:	910ba210 	add	x16, x16, #0x2e8
  4028cc:	d61f0220 	br	x17

00000000004028d0 <sox_init_encodinginfo@plt>:
  4028d0:	d00000f0 	adrp	x16, 420000 <fputs@GLIBC_2.17>
  4028d4:	f9417a11 	ldr	x17, [x16, #752]
  4028d8:	910bc210 	add	x16, x16, #0x2f0
  4028dc:	d61f0220 	br	x17

00000000004028e0 <abort@plt>:
  4028e0:	d00000f0 	adrp	x16, 420000 <fputs@GLIBC_2.17>
  4028e4:	f9417e11 	ldr	x17, [x16, #760]
  4028e8:	910be210 	add	x16, x16, #0x2f8
  4028ec:	d61f0220 	br	x17

00000000004028f0 <getenv@plt>:
  4028f0:	d00000f0 	adrp	x16, 420000 <fputs@GLIBC_2.17>
  4028f4:	f9418211 	ldr	x17, [x16, #768]
  4028f8:	910c0210 	add	x16, x16, #0x300
  4028fc:	d61f0220 	br	x17

0000000000402900 <strcasecmp@plt>:
  402900:	d00000f0 	adrp	x16, 420000 <fputs@GLIBC_2.17>
  402904:	f9418611 	ldr	x17, [x16, #776]
  402908:	910c2210 	add	x16, x16, #0x308
  40290c:	d61f0220 	br	x17

0000000000402910 <tcsetattr@plt>:
  402910:	d00000f0 	adrp	x16, 420000 <fputs@GLIBC_2.17>
  402914:	f9418a11 	ldr	x17, [x16, #784]
  402918:	910c4210 	add	x16, x16, #0x310
  40291c:	d61f0220 	br	x17

0000000000402920 <exit@plt>:
  402920:	d00000f0 	adrp	x16, 420000 <fputs@GLIBC_2.17>
  402924:	f9418e11 	ldr	x17, [x16, #792]
  402928:	910c6210 	add	x16, x16, #0x318
  40292c:	d61f0220 	br	x17

0000000000402930 <strtod@plt>:
  402930:	d00000f0 	adrp	x16, 420000 <fputs@GLIBC_2.17>
  402934:	f9419211 	ldr	x17, [x16, #800]
  402938:	910c8210 	add	x16, x16, #0x320
  40293c:	d61f0220 	br	x17

0000000000402940 <pow@plt>:
  402940:	d00000f0 	adrp	x16, 420000 <fputs@GLIBC_2.17>
  402944:	f9419611 	ldr	x17, [x16, #808]
  402948:	910ca210 	add	x16, x16, #0x328
  40294c:	d61f0220 	br	x17

0000000000402950 <fwrite@plt>:
  402950:	d00000f0 	adrp	x16, 420000 <fputs@GLIBC_2.17>
  402954:	f9419a11 	ldr	x17, [x16, #816]
  402958:	910cc210 	add	x16, x16, #0x330
  40295c:	d61f0220 	br	x17

0000000000402960 <sox_basename@plt>:
  402960:	d00000f0 	adrp	x16, 420000 <fputs@GLIBC_2.17>
  402964:	f9419e11 	ldr	x17, [x16, #824]
  402968:	910ce210 	add	x16, x16, #0x338
  40296c:	d61f0220 	br	x17

0000000000402970 <globfree@plt>:
  402970:	d00000f0 	adrp	x16, 420000 <fputs@GLIBC_2.17>
  402974:	f941a211 	ldr	x17, [x16, #832]
  402978:	910d0210 	add	x16, x16, #0x340
  40297c:	d61f0220 	br	x17

0000000000402980 <sox_get_effects_globals@plt>:
  402980:	d00000f0 	adrp	x16, 420000 <fputs@GLIBC_2.17>
  402984:	f941a611 	ldr	x17, [x16, #840]
  402988:	910d2210 	add	x16, x16, #0x348
  40298c:	d61f0220 	br	x17

0000000000402990 <ferror@plt>:
  402990:	d00000f0 	adrp	x16, 420000 <fputs@GLIBC_2.17>
  402994:	f941aa11 	ldr	x17, [x16, #848]
  402998:	910d4210 	add	x16, x16, #0x350
  40299c:	d61f0220 	br	x17

00000000004029a0 <sox_seek@plt>:
  4029a0:	d00000f0 	adrp	x16, 420000 <fputs@GLIBC_2.17>
  4029a4:	f941ae11 	ldr	x17, [x16, #856]
  4029a8:	910d6210 	add	x16, x16, #0x358
  4029ac:	d61f0220 	br	x17

00000000004029b0 <strncasecmp@plt>:
  4029b0:	d00000f0 	adrp	x16, 420000 <fputs@GLIBC_2.17>
  4029b4:	f941b211 	ldr	x17, [x16, #864]
  4029b8:	910d8210 	add	x16, x16, #0x360
  4029bc:	d61f0220 	br	x17

00000000004029c0 <stpcpy@plt>:
  4029c0:	d00000f0 	adrp	x16, 420000 <fputs@GLIBC_2.17>
  4029c4:	f941b611 	ldr	x17, [x16, #872]
  4029c8:	910da210 	add	x16, x16, #0x368
  4029cc:	d61f0220 	br	x17

00000000004029d0 <fcntl@plt>:
  4029d0:	d00000f0 	adrp	x16, 420000 <fputs@GLIBC_2.17>
  4029d4:	f941ba11 	ldr	x17, [x16, #880]
  4029d8:	910dc210 	add	x16, x16, #0x370
  4029dc:	d61f0220 	br	x17

00000000004029e0 <__gmon_start__@plt>:
  4029e0:	d00000f0 	adrp	x16, 420000 <fputs@GLIBC_2.17>
  4029e4:	f941be11 	ldr	x17, [x16, #888]
  4029e8:	910de210 	add	x16, x16, #0x378
  4029ec:	d61f0220 	br	x17

00000000004029f0 <sigaction@plt>:
  4029f0:	d00000f0 	adrp	x16, 420000 <fputs@GLIBC_2.17>
  4029f4:	f941c211 	ldr	x17, [x16, #896]
  4029f8:	910e0210 	add	x16, x16, #0x380
  4029fc:	d61f0220 	br	x17

0000000000402a00 <sox_create_effects_chain@plt>:
  402a00:	d00000f0 	adrp	x16, 420000 <fputs@GLIBC_2.17>
  402a04:	f941c611 	ldr	x17, [x16, #904]
  402a08:	910e2210 	add	x16, x16, #0x388
  402a0c:	d61f0220 	br	x17

0000000000402a10 <sox_flow_effects@plt>:
  402a10:	d00000f0 	adrp	x16, 420000 <fputs@GLIBC_2.17>
  402a14:	f941ca11 	ldr	x17, [x16, #912]
  402a18:	910e4210 	add	x16, x16, #0x390
  402a1c:	d61f0220 	br	x17

0000000000402a20 <lsx_sigfigs3p@plt>:
  402a20:	d00000f0 	adrp	x16, 420000 <fputs@GLIBC_2.17>
  402a24:	f941ce11 	ldr	x17, [x16, #920]
  402a28:	910e6210 	add	x16, x16, #0x398
  402a2c:	d61f0220 	br	x17

0000000000402a30 <strcat@plt>:
  402a30:	d00000f0 	adrp	x16, 420000 <fputs@GLIBC_2.17>
  402a34:	f941d211 	ldr	x17, [x16, #928]
  402a38:	910e8210 	add	x16, x16, #0x3a0
  402a3c:	d61f0220 	br	x17

0000000000402a40 <printf@plt>:
  402a40:	d00000f0 	adrp	x16, 420000 <fputs@GLIBC_2.17>
  402a44:	f941d611 	ldr	x17, [x16, #936]
  402a48:	910ea210 	add	x16, x16, #0x3a8
  402a4c:	d61f0220 	br	x17

0000000000402a50 <vfprintf@plt>:
  402a50:	d00000f0 	adrp	x16, 420000 <fputs@GLIBC_2.17>
  402a54:	f941da11 	ldr	x17, [x16, #944]
  402a58:	910ec210 	add	x16, x16, #0x3b0
  402a5c:	d61f0220 	br	x17

0000000000402a60 <sqrt@plt>:
  402a60:	d00000f0 	adrp	x16, 420000 <fputs@GLIBC_2.17>
  402a64:	f941de11 	ldr	x17, [x16, #952]
  402a68:	910ee210 	add	x16, x16, #0x3b8
  402a6c:	d61f0220 	br	x17

Disassembly of section .text:

0000000000402a80 <main>:
  402a80:	a9a97bfd 	stp	x29, x30, [sp, #-368]!
  402a84:	b00000e2 	adrp	x2, 41f000 <__FRAME_END__+0x10b24>
  402a88:	91370042 	add	x2, x2, #0xdc0
  402a8c:	910003fd 	mov	x29, sp
  402a90:	a90153f3 	stp	x19, x20, [sp, #16]
  402a94:	aa0103f3 	mov	x19, x1
  402a98:	d00000f4 	adrp	x20, 420000 <fputs@GLIBC_2.17>
  402a9c:	a9025bf5 	stp	x21, x22, [sp, #32]
  402aa0:	a90363f7 	stp	x23, x24, [sp, #48]
  402aa4:	a9046bf9 	stp	x25, x26, [sp, #64]
  402aa8:	a90573fb 	stp	x27, x28, [sp, #80]
  402aac:	9112c29b 	add	x27, x20, #0x4b0
  402ab0:	b9009be0 	str	w0, [sp, #152]
  402ab4:	f90053e1 	str	x1, [sp, #160]
  402ab8:	d2800001 	mov	x1, #0x0                   	// #0
  402abc:	fd0033e8 	str	d8, [sp, #96]
  402ac0:	f9400040 	ldr	x0, [x2]
  402ac4:	f900b7e0 	str	x0, [sp, #360]
  402ac8:	d2800000 	mov	x0, #0x0                   	// #0
  402acc:	91164360 	add	x0, x27, #0x590
  402ad0:	97fffebc 	bl	4025c0 <gettimeofday@plt>
  402ad4:	f9400273 	ldr	x19, [x19]
  402ad8:	f9025a93 	str	x19, [x20, #1200]
  402adc:	97ffff0d 	bl	402710 <sox_get_globals@plt>
  402ae0:	b0000001 	adrp	x1, 403000 <main+0x580>
  402ae4:	91310021 	add	x1, x1, #0xc40
  402ae8:	f9000401 	str	x1, [x0, #8]
  402aec:	aa1303e2 	mov	x2, x19
  402af0:	910583e0 	add	x0, sp, #0x160
  402af4:	d28000c1 	mov	x1, #0x6                   	// #6
  402af8:	97ffff9a 	bl	402960 <sox_basename@plt>
  402afc:	b4001280 	cbz	x0, 402d4c <main+0x2cc>
  402b00:	b0000041 	adrp	x1, 40b000 <__dso_handle+0xfa8>
  402b04:	910583e0 	add	x0, sp, #0x160
  402b08:	911b0021 	add	x1, x1, #0x6c0
  402b0c:	97ffff59 	bl	402870 <lsx_strcasecmp@plt>
  402b10:	350010a0 	cbnz	w0, 402d24 <main+0x2a4>
  402b14:	52800020 	mov	w0, #0x1                   	// #1
  402b18:	b9036360 	str	w0, [x27, #864]
  402b1c:	97ffff51 	bl	402860 <sox_init@plt>
  402b20:	2a0003f3 	mov	w19, w0
  402b24:	35007720 	cbnz	w0, 403a08 <main+0xf88>
  402b28:	d00000e0 	adrp	x0, 420000 <fputs@GLIBC_2.17>
  402b2c:	f9424800 	ldr	x0, [x0, #1168]
  402b30:	97fffe38 	bl	402410 <fileno@plt>
  402b34:	97fffe77 	bl	402510 <isatty@plt>
  402b38:	b9040360 	str	w0, [x27, #1024]
  402b3c:	97ffff31 	bl	402800 <__errno_location@plt>
  402b40:	aa0003e2 	mov	x2, x0
  402b44:	f0000001 	adrp	x1, 405000 <output_flow+0x17c>
  402b48:	910c0020 	add	x0, x1, #0x300
  402b4c:	f90057e2 	str	x2, [sp, #168]
  402b50:	b900005f 	str	wzr, [x2]
  402b54:	94001d33 	bl	40a020 <atexit>
  402b58:	b9436360 	ldr	w0, [x27, #864]
  402b5c:	71000c1f 	cmp	w0, #0x3
  402b60:	54006740 	b.eq	403848 <main+0xdc8>  // b.none
  402b64:	b9409be0 	ldr	w0, [sp, #152]
  402b68:	f94053e1 	ldr	x1, [sp, #160]
  402b6c:	9400102d 	bl	406c20 <parse_options_and_filenames>
  402b70:	97fffee8 	bl	402710 <sox_get_globals@plt>
  402b74:	b9400000 	ldr	w0, [x0]
  402b78:	7100081f 	cmp	w0, #0x2
  402b7c:	54004808 	b.hi	40347c <main+0x9fc>  // b.pmore
  402b80:	f941af60 	ldr	x0, [x27, #856]
  402b84:	b50010e0 	cbnz	x0, 402da0 <main+0x320>
  402b88:	f901a77f 	str	xzr, [x27, #840]
  402b8c:	d00000e0 	adrp	x0, 420000 <fputs@GLIBC_2.17>
  402b90:	b943c801 	ldr	w1, [x0, #968]
  402b94:	7100183f 	cmp	w1, #0x6
  402b98:	540000a1 	b.ne	402bac <main+0x12c>  // b.any
  402b9c:	b944ff61 	ldr	w1, [x27, #1276]
  402ba0:	7100003f 	cmp	w1, #0x0
  402ba4:	1a9f17e1 	cset	w1, eq  // eq = none
  402ba8:	b903c801 	str	w1, [x0, #968]
  402bac:	b943c801 	ldr	w1, [x0, #968]
  402bb0:	f941a778 	ldr	x24, [x27, #840]
  402bb4:	35000061 	cbnz	w1, 402bc0 <main+0x140>
  402bb8:	f100071f 	cmp	x24, #0x1
  402bbc:	540048e0 	b.eq	4034d8 <main+0xa58>  // b.none
  402bc0:	b4006158 	cbz	x24, 4037e8 <main+0xd68>
  402bc4:	f941b779 	ldr	x25, [x27, #872]
  402bc8:	92f00201 	mov	x1, #0x7fefffffffffffff    	// #9218868437227405311
  402bcc:	d2800000 	mov	x0, #0x0                   	// #0
  402bd0:	9e670021 	fmov	d1, x1
  402bd4:	d503201f 	nop
  402bd8:	f8607b21 	ldr	x1, [x25, x0, lsl #3]
  402bdc:	fd401c20 	ldr	d0, [x1, #56]
  402be0:	1e612000 	fcmp	d0, d1
  402be4:	54005c4d 	b.le	40376c <main+0xcec>
  402be8:	f9403021 	ldr	x1, [x1, #96]
  402bec:	b5005c61 	cbnz	x1, 403778 <main+0xcf8>
  402bf0:	91000400 	add	x0, x0, #0x1
  402bf4:	eb18001f 	cmp	x0, x24
  402bf8:	54ffff03 	b.cc	402bd8 <main+0x158>  // b.lo, b.ul, b.last
  402bfc:	f941af60 	ldr	x0, [x27, #856]
  402c00:	8b000f20 	add	x0, x25, x0, lsl #3
  402c04:	f85f8000 	ldur	x0, [x0, #-8]
  402c08:	fd402800 	ldr	d0, [x0, #80]
  402c0c:	1e612000 	fcmp	d0, d1
  402c10:	54005f2d 	b.le	4037f4 <main+0xd74>
  402c14:	f9401000 	ldr	x0, [x0, #32]
  402c18:	f9003fe0 	str	x0, [sp, #120]
  402c1c:	b5005f20 	cbnz	x0, 403800 <main+0xd80>
  402c20:	910343e0 	add	x0, sp, #0xd0
  402c24:	d2800034 	mov	x20, #0x1                   	// #1
  402c28:	f90067f4 	str	x20, [sp, #200]
  402c2c:	97fffe1d 	bl	4024a0 <sigemptyset@plt>
  402c30:	910323e1 	add	x1, sp, #0xc8
  402c34:	d2800002 	mov	x2, #0x0                   	// #0
  402c38:	52800040 	mov	w0, #0x2                   	// #2
  402c3c:	b90153ff 	str	wzr, [sp, #336]
  402c40:	97ffff6c 	bl	4029f0 <sigaction@plt>
  402c44:	d00000f5 	adrp	x21, 420000 <fputs@GLIBC_2.17>
  402c48:	d2800017 	mov	x23, #0x0                   	// #0
  402c4c:	910f22b5 	add	x21, x21, #0x3c8
  402c50:	1e6e1008 	fmov	d8, #1.000000000000000000e+00
  402c54:	14000017 	b	402cb0 <main+0x230>
  402c58:	71000c1f 	cmp	w0, #0x3
  402c5c:	54001320 	b.eq	402ec0 <main+0x440>  // b.none
  402c60:	b9436360 	ldr	w0, [x27, #864]
  402c64:	f100027f 	cmp	x19, #0x0
  402c68:	910042c1 	add	x1, x22, #0x10
  402c6c:	9100c2c2 	add	x2, x22, #0x30
  402c70:	7a420800 	ccmp	w0, #0x2, #0x0, eq  // eq = none
  402c74:	54000420 	b.eq	402cf8 <main+0x278>  // b.none
  402c78:	a9400ec0 	ldp	x0, x3, [x22]
  402c7c:	97fffe59 	bl	4025e0 <sox_open_read@plt>
  402c80:	f9009ec0 	str	x0, [x22, #312]
  402c84:	f941b779 	ldr	x25, [x27, #872]
  402c88:	f8737b20 	ldr	x0, [x25, x19, lsl #3]
  402c8c:	f9409c00 	ldr	x0, [x0, #312]
  402c90:	b40056a0 	cbz	x0, 403764 <main+0xce4>
  402c94:	b94006a1 	ldr	w1, [x21, #4]
  402c98:	7100083f 	cmp	w1, #0x2
  402c9c:	54000a00 	b.eq	402ddc <main+0x35c>  // b.none
  402ca0:	f941a778 	ldr	x24, [x27, #840]
  402ca4:	910006f7 	add	x23, x23, #0x1
  402ca8:	eb17031f 	cmp	x24, x23
  402cac:	54000aa9 	b.ls	402e00 <main+0x380>  // b.plast
  402cb0:	d1000713 	sub	x19, x24, #0x1
  402cb4:	b94002a0 	ldr	w0, [x21]
  402cb8:	cb170273 	sub	x19, x19, x23
  402cbc:	f8737b36 	ldr	x22, [x25, x19, lsl #3]
  402cc0:	7100081f 	cmp	w0, #0x2
  402cc4:	54fffca1 	b.ne	402c58 <main+0x1d8>  // b.any
  402cc8:	b944f760 	ldr	w0, [x27, #1268]
  402ccc:	35fffca0 	cbnz	w0, 402c60 <main+0x1e0>
  402cd0:	9e630300 	ucvtf	d0, x24
  402cd4:	b9436360 	ldr	w0, [x27, #864]
  402cd8:	f100027f 	cmp	x19, #0x0
  402cdc:	910042c1 	add	x1, x22, #0x10
  402ce0:	9100c2c2 	add	x2, x22, #0x30
  402ce4:	7a420800 	ccmp	w0, #0x2, #0x0, eq  // eq = none
  402ce8:	1e601900 	fdiv	d0, d8, d0
  402cec:	fd002ac0 	str	d0, [x22, #80]
  402cf0:	54fffc41 	b.ne	402c78 <main+0x1f8>  // b.any
  402cf4:	d503201f 	nop
  402cf8:	f9400720 	ldr	x0, [x25, #8]
  402cfc:	f100071f 	cmp	x24, #0x1
  402d00:	54002d60 	b.eq	4032ac <main+0x82c>  // b.none
  402d04:	f9409c00 	ldr	x0, [x0, #312]
  402d08:	3cc08002 	ldur	q2, [x0, #8]
  402d0c:	3cc18003 	ldur	q3, [x0, #24]
  402d10:	3cc28000 	ldur	q0, [x0, #40]
  402d14:	3cc38001 	ldur	q1, [x0, #56]
  402d18:	ad000c22 	stp	q2, q3, [x1]
  402d1c:	ad000440 	stp	q0, q1, [x2]
  402d20:	17ffffd6 	b	402c78 <main+0x1f8>
  402d24:	b0000041 	adrp	x1, 40b000 <__dso_handle+0xfa8>
  402d28:	910583e0 	add	x0, sp, #0x160
  402d2c:	911b2021 	add	x1, x1, #0x6c8
  402d30:	97fffed0 	bl	402870 <lsx_strcasecmp@plt>
  402d34:	34003e80 	cbz	w0, 403504 <main+0xa84>
  402d38:	b0000041 	adrp	x1, 40b000 <__dso_handle+0xfa8>
  402d3c:	910583e0 	add	x0, sp, #0x160
  402d40:	911b4021 	add	x1, x1, #0x6d0
  402d44:	97fffecb 	bl	402870 <lsx_strcasecmp@plt>
  402d48:	34000260 	cbz	w0, 402d94 <main+0x314>
  402d4c:	b9436360 	ldr	w0, [x27, #864]
  402d50:	7100001f 	cmp	w0, #0x0
  402d54:	b9409be0 	ldr	w0, [sp, #152]
  402d58:	7a410804 	ccmp	w0, #0x1, #0x4, eq  // eq = none
  402d5c:	54ffee0d 	b.le	402b1c <main+0x9c>
  402d60:	f94053e0 	ldr	x0, [sp, #160]
  402d64:	b0000041 	adrp	x1, 40b000 <__dso_handle+0xfa8>
  402d68:	911b6021 	add	x1, x1, #0x6d8
  402d6c:	f9400413 	ldr	x19, [x0, #8]
  402d70:	aa1303e0 	mov	x0, x19
  402d74:	97fffeb3 	bl	402840 <strcmp@plt>
  402d78:	35003ba0 	cbnz	w0, 4034ec <main+0xa6c>
  402d7c:	b9409be0 	ldr	w0, [sp, #152]
  402d80:	51000400 	sub	w0, w0, #0x1
  402d84:	b9009be0 	str	w0, [sp, #152]
  402d88:	f94053e0 	ldr	x0, [sp, #160]
  402d8c:	91002000 	add	x0, x0, #0x8
  402d90:	f90053e0 	str	x0, [sp, #160]
  402d94:	52800060 	mov	w0, #0x3                   	// #3
  402d98:	b9036360 	str	w0, [x27, #864]
  402d9c:	17ffff60 	b	402b1c <main+0x9c>
  402da0:	f941b761 	ldr	x1, [x27, #872]
  402da4:	d1000403 	sub	x3, x0, #0x1
  402da8:	d2800002 	mov	x2, #0x0                   	// #0
  402dac:	f901a763 	str	x3, [x27, #840]
  402db0:	8b000c20 	add	x0, x1, x0, lsl #3
  402db4:	f85f8001 	ldur	x1, [x0, #-8]
  402db8:	a9400420 	ldp	x0, x1, [x1]
  402dbc:	97fffec1 	bl	4028c0 <sox_write_handler@plt>
  402dc0:	b4004280 	cbz	x0, 403610 <main+0xb90>
  402dc4:	f9400c00 	ldr	x0, [x0, #24]
  402dc8:	927f0400 	and	x0, x0, #0x6
  402dcc:	f100081f 	cmp	x0, #0x2
  402dd0:	1a9f17e0 	cset	w0, eq  // eq = none
  402dd4:	b904ff60 	str	w0, [x27, #1276]
  402dd8:	17ffff6d 	b	402b8c <main+0x10c>
  402ddc:	f9413c00 	ldr	x0, [x0, #632]
  402de0:	927f0400 	and	x0, x0, #0x6
  402de4:	f100081f 	cmp	x0, #0x2
  402de8:	54fff5c1 	b.ne	402ca0 <main+0x220>  // b.any
  402dec:	f941a778 	ldr	x24, [x27, #840]
  402df0:	910006f7 	add	x23, x23, #0x1
  402df4:	b90006b4 	str	w20, [x21, #4]
  402df8:	eb17031f 	cmp	x24, x23
  402dfc:	54fff5a8 	b.hi	402cb0 <main+0x230>  // b.pmore
  402e00:	b9401ab7 	ldr	w23, [x21, #24]
  402e04:	71000eff 	cmp	w23, #0x3
  402e08:	540032c0 	b.eq	403460 <main+0x9e0>  // b.none
  402e0c:	f941a760 	ldr	x0, [x27, #840]
  402e10:	d2800016 	mov	x22, #0x0                   	// #0
  402e14:	b40007a0 	cbz	x0, 402f08 <main+0x488>
  402e18:	b0000041 	adrp	x1, 40b000 <__dso_handle+0xfa8>
  402e1c:	b0000040 	adrp	x0, 40b000 <__dso_handle+0xfa8>
  402e20:	91194021 	add	x1, x1, #0x650
  402e24:	9118e000 	add	x0, x0, #0x638
  402e28:	a90883e1 	stp	x1, x0, [sp, #136]
  402e2c:	d503201f 	nop
  402e30:	f941b760 	ldr	x0, [x27, #872]
  402e34:	f8767818 	ldr	x24, [x0, x22, lsl #3]
  402e38:	f9409f00 	ldr	x0, [x24, #312]
  402e3c:	f9402814 	ldr	x20, [x0, #80]
  402e40:	aa1403e0 	mov	x0, x20
  402e44:	97fffe67 	bl	4027e0 <sox_num_comments@plt>
  402e48:	aa0003f3 	mov	x19, x0
  402e4c:	340002f7 	cbz	w23, 402ea8 <main+0x428>
  402e50:	52800040 	mov	w0, #0x2                   	// #2
  402e54:	b90083e0 	str	w0, [sp, #128]
  402e58:	a94883e1 	ldp	x1, x0, [sp, #136]
  402e5c:	710006ff 	cmp	w23, #0x1
  402e60:	9a810019 	csel	x25, x0, x1, eq  // eq = none
  402e64:	b4000453 	cbz	x19, 402eec <main+0x46c>
  402e68:	d280001a 	mov	x26, #0x0                   	// #0
  402e6c:	14000004 	b	402e7c <main+0x3fc>
  402e70:	9100075a 	add	x26, x26, #0x1
  402e74:	eb1a027f 	cmp	x19, x26
  402e78:	540003a0 	b.eq	402eec <main+0x46c>  // b.none
  402e7c:	f87a7a9c 	ldr	x28, [x20, x26, lsl #3]
  402e80:	aa1903e1 	mov	x1, x25
  402e84:	d28002c2 	mov	x2, #0x16                  	// #22
  402e88:	aa1c03e0 	mov	x0, x28
  402e8c:	97fffec9 	bl	4029b0 <strncasecmp@plt>
  402e90:	35ffff00 	cbnz	w0, 402e70 <main+0x3f0>
  402e94:	91005b80 	add	x0, x28, #0x16
  402e98:	d2800001 	mov	x1, #0x0                   	// #0
  402e9c:	97fffea5 	bl	402930 <strtod@plt>
  402ea0:	b9014b17 	str	w23, [x24, #328]
  402ea4:	fd002f00 	str	d0, [x24, #88]
  402ea8:	f941a760 	ldr	x0, [x27, #840]
  402eac:	910006d6 	add	x22, x22, #0x1
  402eb0:	eb16001f 	cmp	x0, x22
  402eb4:	540002a9 	b.ls	402f08 <main+0x488>  // b.plast
  402eb8:	b9401ab7 	ldr	w23, [x21, #24]
  402ebc:	17ffffdd 	b	402e30 <main+0x3b0>
  402ec0:	b944f760 	ldr	w0, [x27, #1268]
  402ec4:	35ffece0 	cbnz	w0, 402c60 <main+0x1e0>
  402ec8:	9e630300 	ucvtf	d0, x24
  402ecc:	1e602008 	fcmp	d0, #0.0
  402ed0:	54000065 	b.pl	402edc <main+0x45c>  // b.nfrst
  402ed4:	97fffee3 	bl	402a60 <sqrt@plt>
  402ed8:	14000002 	b	402ee0 <main+0x460>
  402edc:	1e61c000 	fsqrt	d0, d0
  402ee0:	1e601900 	fdiv	d0, d8, d0
  402ee4:	fd002ac0 	str	d0, [x22, #80]
  402ee8:	17ffff5e 	b	402c60 <main+0x1e0>
  402eec:	b94083e0 	ldr	w0, [sp, #128]
  402ef0:	520006f7 	eor	w23, w23, #0x3
  402ef4:	7100041f 	cmp	w0, #0x1
  402ef8:	54fffd80 	b.eq	402ea8 <main+0x428>  // b.none
  402efc:	52800020 	mov	w0, #0x1                   	// #1
  402f00:	b90083e0 	str	w0, [sp, #128]
  402f04:	17ffffd5 	b	402e58 <main+0x3d8>
  402f08:	910343e0 	add	x0, sp, #0xd0
  402f0c:	f90067ff 	str	xzr, [sp, #200]
  402f10:	97fffd64 	bl	4024a0 <sigemptyset@plt>
  402f14:	b90153ff 	str	wzr, [sp, #336]
  402f18:	910323e1 	add	x1, sp, #0xc8
  402f1c:	d2800002 	mov	x2, #0x0                   	// #0
  402f20:	52800040 	mov	w0, #0x2                   	// #2
  402f24:	97fffeb3 	bl	4029f0 <sigaction@plt>
  402f28:	940004c7 	bl	404244 <add_eff_chain>
  402f2c:	b9409be0 	ldr	w0, [sp, #152]
  402f30:	f94053e1 	ldr	x1, [sp, #160]
  402f34:	94000978 	bl	405514 <parse_effects>
  402f38:	f9419b60 	ldr	x0, [x27, #816]
  402f3c:	b94006a1 	ldr	w1, [x21, #4]
  402f40:	91000400 	add	x0, x0, #0x1
  402f44:	f9019b60 	str	x0, [x27, #816]
  402f48:	350002e1 	cbnz	w1, 402fa4 <main+0x524>
  402f4c:	f9419f60 	ldr	x0, [x27, #824]
  402f50:	f9428b61 	ldr	x1, [x27, #1296]
  402f54:	f8617813 	ldr	x19, [x0, x1, lsl #3]
  402f58:	b5000273 	cbnz	x19, 402fa4 <main+0x524>
  402f5c:	f941af60 	ldr	x0, [x27, #856]
  402f60:	f941b761 	ldr	x1, [x27, #872]
  402f64:	8b000c20 	add	x0, x1, x0, lsl #3
  402f68:	f85f8000 	ldur	x0, [x0, #-8]
  402f6c:	f9400400 	ldr	x0, [x0, #8]
  402f70:	b40001a0 	cbz	x0, 402fa4 <main+0x524>
  402f74:	90000041 	adrp	x1, 40a000 <soxi1+0x330>
  402f78:	913bc021 	add	x1, x1, #0xef0
  402f7c:	97fffe31 	bl	402840 <strcmp@plt>
  402f80:	35000120 	cbnz	w0, 402fa4 <main+0x524>
  402f84:	f941a760 	ldr	x0, [x27, #840]
  402f88:	b40000a0 	cbz	x0, 402f9c <main+0x51c>
  402f8c:	97fffde1 	bl	402710 <sox_get_globals@plt>
  402f90:	b9400000 	ldr	w0, [x0]
  402f94:	7100081f 	cmp	w0, #0x2
  402f98:	54003288 	b.hi	4035e8 <main+0xb68>  // b.pmore
  402f9c:	52800000 	mov	w0, #0x0                   	// #0
  402fa0:	97fffe60 	bl	402920 <exit@plt>
  402fa4:	97fffddb 	bl	402710 <sox_get_globals@plt>
  402fa8:	b9401000 	ldr	w0, [x0, #16]
  402fac:	34002700 	cbz	w0, 40348c <main+0xa0c>
  402fb0:	f941af62 	ldr	x2, [x27, #856]
  402fb4:	91158361 	add	x1, x27, #0x560
  402fb8:	f941b763 	ldr	x3, [x27, #872]
  402fbc:	91150360 	add	x0, x27, #0x540
  402fc0:	f941f776 	ldr	x22, [x27, #1000]
  402fc4:	8b020c62 	add	x2, x3, x2, lsl #3
  402fc8:	f85f8042 	ldur	x2, [x2, #-8]
  402fcc:	ad408c42 	ldp	q2, q3, [x2, #16]
  402fd0:	ad418440 	ldp	q0, q1, [x2, #48]
  402fd4:	ad000c22 	stp	q2, q3, [x1]
  402fd8:	ad000400 	stp	q0, q1, [x0]
  402fdc:	b4000876 	cbz	x22, 4030e8 <main+0x668>
  402fe0:	90000041 	adrp	x1, 40a000 <soxi1+0x330>
  402fe4:	91364021 	add	x1, x1, #0xd90
  402fe8:	aa1603e0 	mov	x0, x22
  402fec:	97fffe0d 	bl	402820 <fopen@plt>
  402ff0:	aa0003f3 	mov	x19, x0
  402ff4:	d2808000 	mov	x0, #0x400                 	// #1024
  402ff8:	97fffdfe 	bl	4027f0 <lsx_malloc@plt>
  402ffc:	aa0003f4 	mov	x20, x0
  403000:	94000411 	bl	404044 <delete_eff_chains>
  403004:	f9028b7f 	str	xzr, [x27, #1296]
  403008:	9400048f 	bl	404244 <add_eff_chain>
  40300c:	b4004013 	cbz	x19, 40380c <main+0xd8c>
  403010:	97fffdc0 	bl	402710 <sox_get_globals@plt>
  403014:	5280001a 	mov	w26, #0x0                   	// #0
  403018:	f0000021 	adrp	x1, 40a000 <soxi1+0x330>
  40301c:	910b0021 	add	x1, x1, #0x2c0
  403020:	aa0103e3 	mov	x3, x1
  403024:	90000042 	adrp	x2, 40b000 <__dso_handle+0xfa8>
  403028:	f9002003 	str	x3, [x0, #64]
  40302c:	aa1603e1 	mov	x1, x22
  403030:	91228040 	add	x0, x2, #0x8a0
  403034:	f90043e3 	str	x3, [sp, #128]
  403038:	97fffdc6 	bl	402750 <lsx_report_impl@plt>
  40303c:	52800018 	mov	w24, #0x0                   	// #0
  403040:	f0000021 	adrp	x1, 40a000 <soxi1+0x330>
  403044:	f0000020 	adrp	x0, 40a000 <soxi1+0x330>
  403048:	912be021 	add	x1, x1, #0xaf8
  40304c:	912c0000 	add	x0, x0, #0xb00
  403050:	d2808019 	mov	x25, #0x400                 	// #1024
  403054:	a90883e1 	stp	x1, x0, [sp, #136]
  403058:	8b38c29c 	add	x28, x20, w24, sxtw
  40305c:	4b180337 	sub	w23, w25, w24
  403060:	aa1c03e0 	mov	x0, x28
  403064:	2a1703e1 	mov	w1, w23
  403068:	aa1303e2 	mov	x2, x19
  40306c:	97fffdf9 	bl	402850 <fgets@plt>
  403070:	b4000220 	cbz	x0, 4030b4 <main+0x634>
  403074:	aa1c03e0 	mov	x0, x28
  403078:	97fffcd2 	bl	4023c0 <strlen@plt>
  40307c:	aa0003fc 	mov	x28, x0
  403080:	340000e0 	cbz	w0, 40309c <main+0x61c>
  403084:	0b000300 	add	w0, w24, w0
  403088:	93407c00 	sxtw	x0, w0
  40308c:	d1000400 	sub	x0, x0, #0x1
  403090:	38606a81 	ldrb	w1, [x20, x0]
  403094:	7100283f 	cmp	w1, #0xa
  403098:	54002dc0 	b.eq	403650 <main+0xbd0>  // b.none
  40309c:	510006f7 	sub	w23, w23, #0x1
  4030a0:	6b1c02ff 	cmp	w23, w28
  4030a4:	54002c80 	b.eq	403634 <main+0xbb4>  // b.none
  4030a8:	aa1303e0 	mov	x0, x19
  4030ac:	97fffe39 	bl	402990 <ferror@plt>
  4030b0:	340036a0 	cbz	w0, 403784 <main+0xd04>
  4030b4:	aa1303e0 	mov	x0, x19
  4030b8:	97fffe36 	bl	402990 <ferror@plt>
  4030bc:	35003780 	cbnz	w0, 4037ac <main+0xd2c>
  4030c0:	aa1303e0 	mov	x0, x19
  4030c4:	97fffce3 	bl	402450 <fclose@plt>
  4030c8:	aa1403e0 	mov	x0, x20
  4030cc:	97fffcfd 	bl	4024c0 <free@plt>
  4030d0:	3500007a 	cbnz	w26, 4030dc <main+0x65c>
  4030d4:	f9419b60 	ldr	x0, [x27, #816]
  4030d8:	b5002280 	cbnz	x0, 403528 <main+0xaa8>
  4030dc:	f9419b60 	ldr	x0, [x27, #816]
  4030e0:	91000400 	add	x0, x0, #0x1
  4030e4:	f9019b60 	str	x0, [x27, #816]
  4030e8:	f0000036 	adrp	x22, 40a000 <soxi1+0x330>
  4030ec:	912be2d6 	add	x22, x22, #0xaf8
  4030f0:	f0000020 	adrp	x0, 40a000 <soxi1+0x330>
  4030f4:	912c001a 	add	x26, x0, #0xb00
  4030f8:	940015b7 	bl	4087d4 <process>
  4030fc:	b9008be0 	str	w0, [sp, #136]
  403100:	3100041f 	cmn	w0, #0x1
  403104:	54000de0 	b.eq	4032c0 <main+0x840>  // b.none
  403108:	b9447f60 	ldr	w0, [x27, #1148]
  40310c:	f9427361 	ldr	x1, [x27, #1248]
  403110:	f90043e1 	str	x1, [sp, #128]
  403114:	35000d60 	cbnz	w0, 4032c0 <main+0x840>
  403118:	f941a760 	ldr	x0, [x27, #840]
  40311c:	f9428361 	ldr	x1, [x27, #1280]
  403120:	eb00003f 	cmp	x1, x0
  403124:	54000ce2 	b.cs	4032c0 <main+0x840>  // b.hs, b.nlast
  403128:	b9450b60 	ldr	w0, [x27, #1288]
  40312c:	b900c2bf 	str	wzr, [x21, #192]
  403130:	35000b40 	cbnz	w0, 403298 <main+0x818>
  403134:	b944eb60 	ldr	w0, [x27, #1256]
  403138:	f9428b79 	ldr	x25, [x27, #1296]
  40313c:	34000980 	cbz	w0, 40326c <main+0x7ec>
  403140:	f9419f73 	ldr	x19, [x27, #824]
  403144:	b904eb7f 	str	wzr, [x27, #1256]
  403148:	d37df320 	lsl	x0, x25, #3
  40314c:	f8797a61 	ldr	x1, [x19, x25, lsl #3]
  403150:	f100043f 	cmp	x1, #0x1
  403154:	540006a1 	b.ne	403228 <main+0x7a8>  // b.any
  403158:	f9419b78 	ldr	x24, [x27, #816]
  40315c:	52800037 	mov	w23, #0x1                   	// #1
  403160:	f941a374 	ldr	x20, [x27, #832]
  403164:	d503201f 	nop
  403168:	f8606a80 	ldr	x0, [x20, x0]
  40316c:	f940001c 	ldr	x28, [x0]
  403170:	b40001bc 	cbz	x28, 4031a4 <main+0x724>
  403174:	aa1c03e1 	mov	x1, x28
  403178:	aa1603e0 	mov	x0, x22
  40317c:	97fffdb1 	bl	402840 <strcmp@plt>
  403180:	340005c0 	cbz	w0, 403238 <main+0x7b8>
  403184:	aa1c03e1 	mov	x1, x28
  403188:	aa1a03e0 	mov	x0, x26
  40318c:	97fffdad 	bl	402840 <strcmp@plt>
  403190:	34000640 	cbz	w0, 403258 <main+0x7d8>
  403194:	39400380 	ldrb	w0, [x28]
  403198:	52800741 	mov	w1, #0x3a                  	// #58
  40319c:	6b00003f 	cmp	w1, w0
  4031a0:	54000320 	b.eq	403204 <main+0x784>  // b.none
  4031a4:	35000437 	cbnz	w23, 403228 <main+0x7a8>
  4031a8:	f9427360 	ldr	x0, [x27, #1248]
  4031ac:	f9400401 	ldr	x1, [x0, #8]
  4031b0:	f100043f 	cmp	x1, #0x1
  4031b4:	540000c9 	b.ls	4031cc <main+0x74c>  // b.plast
  4031b8:	97fffce6 	bl	402550 <sox_delete_effect_last@plt>
  4031bc:	f9427360 	ldr	x0, [x27, #1248]
  4031c0:	f9400401 	ldr	x1, [x0, #8]
  4031c4:	f100043f 	cmp	x1, #0x1
  4031c8:	54ffff88 	b.hi	4031b8 <main+0x738>  // b.pmore
  4031cc:	f942c360 	ldr	x0, [x27, #1408]
  4031d0:	b5fff940 	cbnz	x0, 4030f8 <main+0x678>
  4031d4:	f941af60 	ldr	x0, [x27, #856]
  4031d8:	f941b761 	ldr	x1, [x27, #872]
  4031dc:	8b000c20 	add	x0, x1, x0, lsl #3
  4031e0:	f85f8000 	ldur	x0, [x0, #-8]
  4031e4:	f9409c00 	ldr	x0, [x0, #312]
  4031e8:	97fffd22 	bl	402670 <sox_close@plt>
  4031ec:	f941af60 	ldr	x0, [x27, #856]
  4031f0:	f941b761 	ldr	x1, [x27, #872]
  4031f4:	8b000c20 	add	x0, x1, x0, lsl #3
  4031f8:	f85f8000 	ldur	x0, [x0, #-8]
  4031fc:	f9009c1f 	str	xzr, [x0, #312]
  403200:	17ffffbc 	b	4030f0 <main+0x670>
  403204:	39400780 	ldrb	w0, [x28, #1]
  403208:	35fffce0 	cbnz	w0, 4031a4 <main+0x724>
  40320c:	f9428b79 	ldr	x25, [x27, #1296]
  403210:	d37df320 	lsl	x0, x25, #3
  403214:	8b000261 	add	x1, x19, x0
  403218:	f9400021 	ldr	x1, [x1]
  40321c:	f100043f 	cmp	x1, #0x1
  403220:	54fffa40 	b.eq	403168 <main+0x6e8>  // b.none
  403224:	34fffc37 	cbz	w23, 4031a8 <main+0x728>
  403228:	f94043e0 	ldr	x0, [sp, #128]
  40322c:	97fffd1d 	bl	4026a0 <sox_pop_effect_last@plt>
  403230:	f902c360 	str	x0, [x27, #1408]
  403234:	17ffffdd 	b	4031a8 <main+0x728>
  403238:	91000739 	add	x25, x25, #0x1
  40323c:	f9028b79 	str	x25, [x27, #1296]
  403240:	eb18033f 	cmp	x25, x24
  403244:	540003e2 	b.cs	4032c0 <main+0x840>  // b.hs, b.nlast
  403248:	d37df320 	lsl	x0, x25, #3
  40324c:	52800017 	mov	w23, #0x0                   	// #0
  403250:	8b000261 	add	x1, x19, x0
  403254:	17fffff1 	b	403218 <main+0x798>
  403258:	aa1303e1 	mov	x1, x19
  40325c:	d2800000 	mov	x0, #0x0                   	// #0
  403260:	d2800019 	mov	x25, #0x0                   	// #0
  403264:	f9028b7f 	str	xzr, [x27, #1296]
  403268:	17ffffec 	b	403218 <main+0x798>
  40326c:	f9419b78 	ldr	x24, [x27, #816]
  403270:	91000739 	add	x25, x25, #0x1
  403274:	f9028b79 	str	x25, [x27, #1296]
  403278:	eb18033f 	cmp	x25, x24
  40327c:	54000222 	b.cs	4032c0 <main+0x840>  // b.hs, b.nlast
  403280:	f9419f73 	ldr	x19, [x27, #824]
  403284:	d37df320 	lsl	x0, x25, #3
  403288:	f8797a61 	ldr	x1, [x19, x25, lsl #3]
  40328c:	f100043f 	cmp	x1, #0x1
  403290:	54fff660 	b.eq	40315c <main+0x6dc>  // b.none
  403294:	17ffffe5 	b	403228 <main+0x7a8>
  403298:	f94043e0 	ldr	x0, [sp, #128]
  40329c:	97fffc71 	bl	402460 <sox_delete_effects@plt>
  4032a0:	f942c360 	ldr	x0, [x27, #1408]
  4032a4:	b5fff2a0 	cbnz	x0, 4030f8 <main+0x678>
  4032a8:	17ffffcb 	b	4031d4 <main+0x754>
  4032ac:	ad408c02 	ldp	q2, q3, [x0, #16]
  4032b0:	ad418400 	ldp	q0, q1, [x0, #48]
  4032b4:	ad000c22 	stp	q2, q3, [x1]
  4032b8:	ad000440 	stp	q0, q1, [x2]
  4032bc:	17fffe6f 	b	402c78 <main+0x1f8>
  4032c0:	f9427360 	ldr	x0, [x27, #1248]
  4032c4:	97fffc2f 	bl	402380 <sox_delete_effects_chain@plt>
  4032c8:	9400035f 	bl	404044 <delete_eff_chains>
  4032cc:	f941af61 	ldr	x1, [x27, #856]
  4032d0:	b4000ee1 	cbz	x1, 4034ac <main+0xa2c>
  4032d4:	f0000038 	adrp	x24, 40a000 <soxi1+0x330>
  4032d8:	90000057 	adrp	x23, 40b000 <__dso_handle+0xfa8>
  4032dc:	910b0318 	add	x24, x24, #0x2c0
  4032e0:	911a22f7 	add	x23, x23, #0x688
  4032e4:	d2800013 	mov	x19, #0x0                   	// #0
  4032e8:	9000005a 	adrp	x26, 40b000 <__dso_handle+0xfa8>
  4032ec:	14000009 	b	403310 <main+0x890>
  4032f0:	f9413a81 	ldr	x1, [x20, #624]
  4032f4:	f9400021 	ldr	x1, [x1]
  4032f8:	aa1603e2 	mov	x2, x22
  4032fc:	97fffc65 	bl	402490 <lsx_warn_impl@plt>
  403300:	f941af61 	ldr	x1, [x27, #856]
  403304:	91000673 	add	x19, x19, #0x1
  403308:	eb01027f 	cmp	x19, x1
  40330c:	54000202 	b.cs	40334c <main+0x8cc>  // b.hs, b.nlast
  403310:	f941b760 	ldr	x0, [x27, #872]
  403314:	f8737800 	ldr	x0, [x0, x19, lsl #3]
  403318:	f9409c14 	ldr	x20, [x0, #312]
  40331c:	f9409a96 	ldr	x22, [x20, #304]
  403320:	b4ffff36 	cbz	x22, 403304 <main+0x884>
  403324:	97fffcfb 	bl	402710 <sox_get_globals@plt>
  403328:	f941a763 	ldr	x3, [x27, #840]
  40332c:	9119a341 	add	x1, x26, #0x668
  403330:	b9427a82 	ldr	w2, [x20, #632]
  403334:	eb13007f 	cmp	x3, x19
  403338:	f9002018 	str	x24, [x0, #64]
  40333c:	9a978020 	csel	x0, x1, x23, hi  // hi = pmore
  403340:	370ffd82 	tbnz	w2, #1, 4032f0 <main+0x870>
  403344:	f9400281 	ldr	x1, [x20]
  403348:	17ffffec 	b	4032f8 <main+0x878>
  40334c:	f9426f73 	ldr	x19, [x27, #1240]
  403350:	b5000b33 	cbnz	x19, 4034b4 <main+0xa34>
  403354:	f941af61 	ldr	x1, [x27, #856]
  403358:	b40001e1 	cbz	x1, 403394 <main+0x914>
  40335c:	f0000037 	adrp	x23, 40a000 <soxi1+0x330>
  403360:	90000056 	adrp	x22, 40b000 <__dso_handle+0xfa8>
  403364:	910b02f7 	add	x23, x23, #0x2c0
  403368:	912602d6 	add	x22, x22, #0x980
  40336c:	d503201f 	nop
  403370:	f9403fe2 	ldr	x2, [sp, #120]
  403374:	f941b760 	ldr	x0, [x27, #872]
  403378:	f8627814 	ldr	x20, [x0, x2, lsl #3]
  40337c:	f940a293 	ldr	x19, [x20, #320]
  403380:	b5000553 	cbnz	x19, 403428 <main+0x9a8>
  403384:	91000440 	add	x0, x2, #0x1
  403388:	f9003fe0 	str	x0, [sp, #120]
  40338c:	eb01001f 	cmp	x0, x1
  403390:	54ffff03 	b.cc	403370 <main+0x8f0>  // b.lo, b.ul, b.last
  403394:	b94006a0 	ldr	w0, [x21, #4]
  403398:	34000200 	cbz	w0, 4033d8 <main+0x958>
  40339c:	b9447f60 	ldr	w0, [x27, #1148]
  4033a0:	b00000e1 	adrp	x1, 420000 <fputs@GLIBC_2.17>
  4033a4:	f9425023 	ldr	x3, [x1, #1184]
  4033a8:	350013a0 	cbnz	w0, 40361c <main+0xb9c>
  4033ac:	b9447b60 	ldr	w0, [x27, #1144]
  4033b0:	34000b00 	cbz	w0, 403510 <main+0xa90>
  4033b4:	b9436360 	ldr	w0, [x27, #864]
  4033b8:	7100081f 	cmp	w0, #0x2
  4033bc:	54000aa0 	b.eq	403510 <main+0xa90>  // b.none
  4033c0:	90000040 	adrp	x0, 40b000 <__dso_handle+0xfa8>
  4033c4:	d2800122 	mov	x2, #0x9                   	// #9
  4033c8:	91272000 	add	x0, x0, #0x9c8
  4033cc:	d2800021 	mov	x1, #0x1                   	// #1
  4033d0:	97fffd60 	bl	402950 <fwrite@plt>
  4033d4:	d503201f 	nop
  4033d8:	52800020 	mov	w0, #0x1                   	// #1
  4033dc:	b9038f60 	str	w0, [x27, #908]
  4033e0:	94000740 	bl	4050e0 <cleanup>
  4033e4:	b9408be0 	ldr	w0, [sp, #136]
  4033e8:	900000e1 	adrp	x1, 41f000 <__FRAME_END__+0x10b24>
  4033ec:	7100001f 	cmp	w0, #0x0
  4033f0:	1a9f07e0 	cset	w0, ne  // ne = any
  4033f4:	f940b7e3 	ldr	x3, [sp, #360]
  4033f8:	f946e022 	ldr	x2, [x1, #3520]
  4033fc:	eb020063 	subs	x3, x3, x2
  403400:	d2800002 	mov	x2, #0x0                   	// #0
  403404:	54001f01 	b.ne	4037e4 <main+0xd64>  // b.any
  403408:	a94153f3 	ldp	x19, x20, [sp, #16]
  40340c:	a9425bf5 	ldp	x21, x22, [sp, #32]
  403410:	a94363f7 	ldp	x23, x24, [sp, #48]
  403414:	a9446bf9 	ldp	x25, x26, [sp, #64]
  403418:	a94573fb 	ldp	x27, x28, [sp, #80]
  40341c:	fd4033e8 	ldr	d8, [sp, #96]
  403420:	a8d77bfd 	ldp	x29, x30, [sp], #368
  403424:	d65f03c0 	ret
  403428:	97fffcba 	bl	402710 <sox_get_globals@plt>
  40342c:	f9403fe3 	ldr	x3, [sp, #120]
  403430:	aa1303e2 	mov	x2, x19
  403434:	f9400281 	ldr	x1, [x20]
  403438:	91000463 	add	x3, x3, #0x1
  40343c:	f9002017 	str	x23, [x0, #64]
  403440:	aa0303f3 	mov	x19, x3
  403444:	aa1603e0 	mov	x0, x22
  403448:	f9003fe3 	str	x3, [sp, #120]
  40344c:	97fffc11 	bl	402490 <lsx_warn_impl@plt>
  403450:	f941af61 	ldr	x1, [x27, #856]
  403454:	eb13003f 	cmp	x1, x19
  403458:	54fff8c8 	b.hi	403370 <main+0x8f0>  // b.pmore
  40345c:	17ffffce 	b	403394 <main+0x914>
  403460:	b944ff60 	ldr	w0, [x27, #1276]
  403464:	340003e0 	cbz	w0, 4034e0 <main+0xa60>
  403468:	f100071f 	cmp	x24, #0x1
  40346c:	54000628 	b.hi	403530 <main+0xab0>  // b.pmore
  403470:	52800037 	mov	w23, #0x1                   	// #1
  403474:	b9001ab7 	str	w23, [x21, #24]
  403478:	17fffe65 	b	402e0c <main+0x38c>
  40347c:	b00000e0 	adrp	x0, 420000 <fputs@GLIBC_2.17>
  403480:	f9425000 	ldr	x0, [x0, #1184]
  403484:	94000597 	bl	404ae0 <display_SoX_version>
  403488:	17fffdbe 	b	402b80 <main+0x100>
  40348c:	d2800001 	mov	x1, #0x0                   	// #0
  403490:	9102e3e0 	add	x0, sp, #0xb8
  403494:	97fffc4b 	bl	4025c0 <gettimeofday@plt>
  403498:	a94b83f3 	ldp	x19, x0, [sp, #184]
  40349c:	4b000273 	sub	w19, w19, w0
  4034a0:	97fffc9c 	bl	402710 <sox_get_globals@plt>
  4034a4:	b9002813 	str	w19, [x0, #40]
  4034a8:	17fffec2 	b	402fb0 <main+0x530>
  4034ac:	f9426f73 	ldr	x19, [x27, #1240]
  4034b0:	b4fff733 	cbz	x19, 403394 <main+0x914>
  4034b4:	97fffc97 	bl	402710 <sox_get_globals@plt>
  4034b8:	f0000022 	adrp	x2, 40a000 <soxi1+0x330>
  4034bc:	910b0042 	add	x2, x2, #0x2c0
  4034c0:	90000043 	adrp	x3, 40b000 <__dso_handle+0xfa8>
  4034c4:	f9002002 	str	x2, [x0, #64]
  4034c8:	aa1303e1 	mov	x1, x19
  4034cc:	91252060 	add	x0, x3, #0x948
  4034d0:	97fffbf0 	bl	402490 <lsx_warn_impl@plt>
  4034d4:	17ffffa0 	b	403354 <main+0x8d4>
  4034d8:	b903c818 	str	w24, [x0, #968]
  4034dc:	17fffdba 	b	402bc4 <main+0x144>
  4034e0:	52800017 	mov	w23, #0x0                   	// #0
  4034e4:	b9001ab7 	str	w23, [x21, #24]
  4034e8:	17fffe49 	b	402e0c <main+0x38c>
  4034ec:	90000041 	adrp	x1, 40b000 <__dso_handle+0xfa8>
  4034f0:	aa1303e0 	mov	x0, x19
  4034f4:	911b8021 	add	x1, x1, #0x6e0
  4034f8:	97fffcd2 	bl	402840 <strcmp@plt>
  4034fc:	35ffb100 	cbnz	w0, 402b1c <main+0x9c>
  403500:	17fffe1f 	b	402d7c <main+0x2fc>
  403504:	52800040 	mov	w0, #0x2                   	// #2
  403508:	b9036360 	str	w0, [x27, #864]
  40350c:	17fffd84 	b	402b1c <main+0x9c>
  403510:	90000040 	adrp	x0, 40b000 <__dso_handle+0xfa8>
  403514:	d28000c2 	mov	x2, #0x6                   	// #6
  403518:	d2800021 	mov	x1, #0x1                   	// #1
  40351c:	91276000 	add	x0, x0, #0x9d8
  403520:	97fffd0c 	bl	402950 <fwrite@plt>
  403524:	17ffffad 	b	4033d8 <main+0x958>
  403528:	94000272 	bl	403ef0 <free_eff_chain>
  40352c:	17fffeef 	b	4030e8 <main+0x668>
  403530:	f9400320 	ldr	x0, [x25]
  403534:	90000053 	adrp	x19, 40b000 <__dso_handle+0xfa8>
  403538:	9121a273 	add	x19, x19, #0x868
  40353c:	aa1303e1 	mov	x1, x19
  403540:	f9409c00 	ldr	x0, [x0, #312]
  403544:	f9402800 	ldr	x0, [x0, #80]
  403548:	97fffcda 	bl	4028b0 <sox_find_comment@plt>
  40354c:	f941b762 	ldr	x2, [x27, #872]
  403550:	aa1303e1 	mov	x1, x19
  403554:	aa0003f3 	mov	x19, x0
  403558:	f9400440 	ldr	x0, [x2, #8]
  40355c:	f9409c00 	ldr	x0, [x0, #312]
  403560:	f9402800 	ldr	x0, [x0, #80]
  403564:	97fffcd3 	bl	4028b0 <sox_find_comment@plt>
  403568:	f100001f 	cmp	x0, #0x0
  40356c:	aa0003e1 	mov	x1, x0
  403570:	fa401a64 	ccmp	x19, #0x0, #0x4, ne  // ne = any
  403574:	54fff7e0 	b.eq	403470 <main+0x9f0>  // b.none
  403578:	aa1303e0 	mov	x0, x19
  40357c:	97fffce1 	bl	402900 <strcasecmp@plt>
  403580:	35fff780 	cbnz	w0, 403470 <main+0x9f0>
  403584:	f941b760 	ldr	x0, [x27, #872]
  403588:	90000053 	adrp	x19, 40b000 <__dso_handle+0xfa8>
  40358c:	9121c273 	add	x19, x19, #0x870
  403590:	aa1303e1 	mov	x1, x19
  403594:	f9400000 	ldr	x0, [x0]
  403598:	f9409c00 	ldr	x0, [x0, #312]
  40359c:	f9402800 	ldr	x0, [x0, #80]
  4035a0:	97fffcc4 	bl	4028b0 <sox_find_comment@plt>
  4035a4:	f941b762 	ldr	x2, [x27, #872]
  4035a8:	aa1303e1 	mov	x1, x19
  4035ac:	aa0003f3 	mov	x19, x0
  4035b0:	f9400440 	ldr	x0, [x2, #8]
  4035b4:	f9409c00 	ldr	x0, [x0, #312]
  4035b8:	f9402800 	ldr	x0, [x0, #80]
  4035bc:	97fffcbd 	bl	4028b0 <sox_find_comment@plt>
  4035c0:	aa0003e1 	mov	x1, x0
  4035c4:	f100027f 	cmp	x19, #0x0
  4035c8:	fa401804 	ccmp	x0, #0x0, #0x4, ne  // ne = any
  4035cc:	54fff520 	b.eq	403470 <main+0x9f0>  // b.none
  4035d0:	aa1303e0 	mov	x0, x19
  4035d4:	97fffccb 	bl	402900 <strcasecmp@plt>
  4035d8:	35fff4c0 	cbnz	w0, 403470 <main+0x9f0>
  4035dc:	52800057 	mov	w23, #0x2                   	// #2
  4035e0:	b9001ab7 	str	w23, [x21, #24]
  4035e4:	17fffe0a 	b	402e0c <main+0x38c>
  4035e8:	f941b760 	ldr	x0, [x27, #872]
  4035ec:	52800022 	mov	w2, #0x1                   	// #1
  4035f0:	f8737801 	ldr	x1, [x0, x19, lsl #3]
  4035f4:	91000673 	add	x19, x19, #0x1
  4035f8:	f9409c20 	ldr	x0, [x1, #312]
  4035fc:	94000f95 	bl	407450 <display_file_info>
  403600:	f941a760 	ldr	x0, [x27, #840]
  403604:	eb13001f 	cmp	x0, x19
  403608:	54ffcc28 	b.hi	402f8c <main+0x50c>  // b.pmore
  40360c:	17fffe64 	b	402f9c <main+0x51c>
  403610:	52800000 	mov	w0, #0x0                   	// #0
  403614:	b904ff60 	str	w0, [x27, #1276]
  403618:	17fffd5d 	b	402b8c <main+0x10c>
  40361c:	90000040 	adrp	x0, 40b000 <__dso_handle+0xfa8>
  403620:	d2800122 	mov	x2, #0x9                   	// #9
  403624:	d2800021 	mov	x1, #0x1                   	// #1
  403628:	9126e000 	add	x0, x0, #0x9b8
  40362c:	97fffcc9 	bl	402950 <fwrite@plt>
  403630:	17ffff6a 	b	4033d8 <main+0x958>
  403634:	91100339 	add	x25, x25, #0x400
  403638:	aa1403e0 	mov	x0, x20
  40363c:	aa1903e1 	mov	x1, x25
  403640:	0b1c0318 	add	w24, w24, w28
  403644:	97fffb43 	bl	402350 <lsx_realloc@plt>
  403648:	aa0003f4 	mov	x20, x0
  40364c:	17fffe83 	b	403058 <main+0x5d8>
  403650:	38206a9f 	strb	wzr, [x20, x0]
  403654:	9102e3e1 	add	x1, sp, #0xb8
  403658:	aa1403e0 	mov	x0, x20
  40365c:	94000291 	bl	4040a0 <strtoargv>
  403660:	aa0003f7 	mov	x23, x0
  403664:	b40002c0 	cbz	x0, 4036bc <main+0xc3c>
  403668:	f9400018 	ldr	x24, [x0]
  40366c:	b940bbfc 	ldr	w28, [sp, #184]
  403670:	aa1803e0 	mov	x0, x24
  403674:	97fffbb3 	bl	402540 <sox_find_effect@plt>
  403678:	aa0003e3 	mov	x3, x0
  40367c:	7100079f 	cmp	w28, #0x1
  403680:	540005e0 	b.eq	40373c <main+0xcbc>  // b.none
  403684:	b40002a0 	cbz	x0, 4036d8 <main+0xc58>
  403688:	5280001a 	mov	w26, #0x0                   	// #0
  40368c:	2a1c03e0 	mov	w0, w28
  403690:	aa1703e1 	mov	x1, x23
  403694:	b9043b7f 	str	wzr, [x27, #1080]
  403698:	9400079f 	bl	405514 <parse_effects>
  40369c:	f9419b60 	ldr	x0, [x27, #816]
  4036a0:	f9419f61 	ldr	x1, [x27, #824]
  4036a4:	f8607821 	ldr	x1, [x1, x0, lsl #3]
  4036a8:	b5000101 	cbnz	x1, 4036c8 <main+0xc48>
  4036ac:	aa1703e0 	mov	x0, x23
  4036b0:	52800018 	mov	w24, #0x0                   	// #0
  4036b4:	97fffb83 	bl	4024c0 <free@plt>
  4036b8:	17fffe68 	b	403058 <main+0x5d8>
  4036bc:	5280001a 	mov	w26, #0x0                   	// #0
  4036c0:	52800018 	mov	w24, #0x0                   	// #0
  4036c4:	17fffe65 	b	403058 <main+0x5d8>
  4036c8:	91000400 	add	x0, x0, #0x1
  4036cc:	f9019b60 	str	x0, [x27, #816]
  4036d0:	940002dd 	bl	404244 <add_eff_chain>
  4036d4:	17fffff6 	b	4036ac <main+0xc2c>
  4036d8:	b40001f8 	cbz	x24, 403714 <main+0xc94>
  4036dc:	5280001a 	mov	w26, #0x0                   	// #0
  4036e0:	f94047e0 	ldr	x0, [sp, #136]
  4036e4:	aa1803e1 	mov	x1, x24
  4036e8:	97fffc56 	bl	402840 <strcmp@plt>
  4036ec:	34fffd00 	cbz	w0, 40368c <main+0xc0c>
  4036f0:	f9404be0 	ldr	x0, [sp, #144]
  4036f4:	aa1803e1 	mov	x1, x24
  4036f8:	97fffc52 	bl	402840 <strcmp@plt>
  4036fc:	34fffc80 	cbz	w0, 40368c <main+0xc0c>
  403700:	f0000020 	adrp	x0, 40a000 <soxi1+0x330>
  403704:	aa1803e1 	mov	x1, x24
  403708:	91228000 	add	x0, x0, #0x8a0
  40370c:	97fffc4d 	bl	402840 <strcmp@plt>
  403710:	34fffbe0 	cbz	w0, 40368c <main+0xc0c>
  403714:	97fffbff 	bl	402710 <sox_get_globals@plt>
  403718:	aa0003e1 	mov	x1, x0
  40371c:	f94043e2 	ldr	x2, [sp, #128]
  403720:	90000040 	adrp	x0, 40b000 <__dso_handle+0xfa8>
  403724:	f9002022 	str	x2, [x1, #64]
  403728:	9123e000 	add	x0, x0, #0x8f8
  40372c:	f94002e1 	ldr	x1, [x23]
  403730:	97fffb44 	bl	402440 <lsx_fail_impl@plt>
  403734:	52800020 	mov	w0, #0x1                   	// #1
  403738:	97fffc7a 	bl	402920 <exit@plt>
  40373c:	aa1803e0 	mov	x0, x24
  403740:	f0000021 	adrp	x1, 40a000 <soxi1+0x330>
  403744:	91228021 	add	x1, x1, #0x8a0
  403748:	f9004fe3 	str	x3, [sp, #152]
  40374c:	97fffc3d 	bl	402840 <strcmp@plt>
  403750:	7100001f 	cmp	w0, #0x0
  403754:	f9404fe3 	ldr	x3, [sp, #152]
  403758:	1a9f17fa 	cset	w26, eq  // eq = none
  40375c:	b5fff983 	cbnz	x3, 40368c <main+0xc0c>
  403760:	17ffffe0 	b	4036e0 <main+0xc60>
  403764:	52800040 	mov	w0, #0x2                   	// #2
  403768:	97fffc6e 	bl	402920 <exit@plt>
  40376c:	90000040 	adrp	x0, 40b000 <__dso_handle+0xfa8>
  403770:	911d6000 	add	x0, x0, #0x758
  403774:	9400053b 	bl	404c60 <usage>
  403778:	90000040 	adrp	x0, 40b000 <__dso_handle+0xfa8>
  40377c:	911e6000 	add	x0, x0, #0x798
  403780:	94000538 	bl	404c60 <usage>
  403784:	97fffbe3 	bl	402710 <sox_get_globals@plt>
  403788:	aa0003e2 	mov	x2, x0
  40378c:	f94043e3 	ldr	x3, [sp, #128]
  403790:	aa1603e1 	mov	x1, x22
  403794:	f9002043 	str	x3, [x2, #64]
  403798:	90000040 	adrp	x0, 40b000 <__dso_handle+0xfa8>
  40379c:	91230000 	add	x0, x0, #0x8c0
  4037a0:	97fffb28 	bl	402440 <lsx_fail_impl@plt>
  4037a4:	52800020 	mov	w0, #0x1                   	// #1
  4037a8:	97fffc5e 	bl	402920 <exit@plt>
  4037ac:	97fffbd9 	bl	402710 <sox_get_globals@plt>
  4037b0:	aa0003e1 	mov	x1, x0
  4037b4:	f94057e0 	ldr	x0, [sp, #168]
  4037b8:	f94043e2 	ldr	x2, [sp, #128]
  4037bc:	b9400000 	ldr	w0, [x0]
  4037c0:	f9002022 	str	x2, [x1, #64]
  4037c4:	97fffb6f 	bl	402580 <strerror@plt>
  4037c8:	aa0003e2 	mov	x2, x0
  4037cc:	aa1603e1 	mov	x1, x22
  4037d0:	90000040 	adrp	x0, 40b000 <__dso_handle+0xfa8>
  4037d4:	91248000 	add	x0, x0, #0x920
  4037d8:	97fffb1a 	bl	402440 <lsx_fail_impl@plt>
  4037dc:	52800020 	mov	w0, #0x1                   	// #1
  4037e0:	97fffc50 	bl	402920 <exit@plt>
  4037e4:	97fffb07 	bl	402400 <__stack_chk_fail@plt>
  4037e8:	90000040 	adrp	x0, 40b000 <__dso_handle+0xfa8>
  4037ec:	911ce000 	add	x0, x0, #0x738
  4037f0:	9400051c 	bl	404c60 <usage>
  4037f4:	90000040 	adrp	x0, 40b000 <__dso_handle+0xfa8>
  4037f8:	911f2000 	add	x0, x0, #0x7c8
  4037fc:	94000519 	bl	404c60 <usage>
  403800:	90000040 	adrp	x0, 40b000 <__dso_handle+0xfa8>
  403804:	9120c000 	add	x0, x0, #0x830
  403808:	94000516 	bl	404c60 <usage>
  40380c:	97fffbc1 	bl	402710 <sox_get_globals@plt>
  403810:	aa0003e2 	mov	x2, x0
  403814:	f94057e0 	ldr	x0, [sp, #168]
  403818:	f0000021 	adrp	x1, 40a000 <soxi1+0x330>
  40381c:	910b0021 	add	x1, x1, #0x2c0
  403820:	b9400000 	ldr	w0, [x0]
  403824:	f9002041 	str	x1, [x2, #64]
  403828:	97fffb56 	bl	402580 <strerror@plt>
  40382c:	aa0003e2 	mov	x2, x0
  403830:	aa1603e1 	mov	x1, x22
  403834:	90000040 	adrp	x0, 40b000 <__dso_handle+0xfa8>
  403838:	9121e000 	add	x0, x0, #0x878
  40383c:	97fffb01 	bl	402440 <lsx_fail_impl@plt>
  403840:	52800020 	mov	w0, #0x1                   	// #1
  403844:	97fffc37 	bl	402920 <exit@plt>
  403848:	b9409be0 	ldr	w0, [sp, #152]
  40384c:	b900b7ff 	str	wzr, [sp, #180]
  403850:	7100041f 	cmp	w0, #0x1
  403854:	54000c0d 	b.le	4039d4 <main+0xf54>
  403858:	b9409be0 	ldr	w0, [sp, #152]
  40385c:	b0000054 	adrp	x20, 40c000 <__dso_handle+0x1fa8>
  403860:	f94053e1 	ldr	x1, [sp, #160]
  403864:	91386294 	add	x20, x20, #0xe18
  403868:	91298294 	add	x20, x20, #0xa60
  40386c:	91102377 	add	x23, x27, #0x408
  403870:	52800025 	mov	w5, #0x1                   	// #1
  403874:	f0000036 	adrp	x22, 40a000 <soxi1+0x330>
  403878:	aa1403e2 	mov	x2, x20
  40387c:	aa1703e6 	mov	x6, x23
  403880:	2a0503e4 	mov	w4, w5
  403884:	913782d6 	add	x22, x22, #0xde0
  403888:	d2800003 	mov	x3, #0x0                   	// #0
  40388c:	52800015 	mov	w21, #0x0                   	// #0
  403890:	97fffaac 	bl	402340 <lsx_getopt_init@plt>
  403894:	aa1703e0 	mov	x0, x23
  403898:	97fffabe 	bl	402390 <lsx_getopt@plt>
  40389c:	2a0003e1 	mov	w1, w0
  4038a0:	7100001f 	cmp	w0, #0x0
  4038a4:	5400036d 	b.le	403910 <main+0xe90>
  4038a8:	7101583f 	cmp	w1, #0x56
  4038ac:	54000180 	b.eq	4038dc <main+0xe5c>  // b.none
  4038b0:	7101503f 	cmp	w1, #0x54
  4038b4:	54000ae0 	b.eq	403a10 <main+0xf90>  // b.none
  4038b8:	aa1403e0 	mov	x0, x20
  4038bc:	97fffb0d 	bl	4024f0 <strchr@plt>
  4038c0:	cb140000 	sub	x0, x0, x20
  4038c4:	11000400 	add	w0, w0, #0x1
  4038c8:	b900b7e0 	str	w0, [sp, #180]
  4038cc:	71002c1f 	cmp	w0, #0xb
  4038d0:	54fffe29 	b.ls	403894 <main+0xe14>  // b.plast
  4038d4:	52800020 	mov	w0, #0x1                   	// #1
  4038d8:	940004d2 	bl	404c20 <soxi_usage>
  4038dc:	f9401ee0 	ldr	x0, [x23, #56]
  4038e0:	b40009c0 	cbz	x0, 403a18 <main+0xf98>
  4038e4:	9102cfe3 	add	x3, sp, #0xb3
  4038e8:	9102e3e2 	add	x2, sp, #0xb8
  4038ec:	aa1603e1 	mov	x1, x22
  4038f0:	97fffb94 	bl	402740 <__isoc99_sscanf@plt>
  4038f4:	7100041f 	cmp	w0, #0x1
  4038f8:	54000721 	b.ne	4039dc <main+0xf5c>  // b.any
  4038fc:	b940bbf8 	ldr	w24, [sp, #184]
  403900:	97fffb84 	bl	402710 <sox_get_globals@plt>
  403904:	37f806d8 	tbnz	w24, #31, 4039dc <main+0xf5c>
  403908:	b9000018 	str	w24, [x0]
  40390c:	17ffffe2 	b	403894 <main+0xe14>
  403910:	b940b7e0 	ldr	w0, [sp, #180]
  403914:	340004a0 	cbz	w0, 4039a8 <main+0xf28>
  403918:	34000095 	cbz	w21, 403928 <main+0xea8>
  40391c:	51001000 	sub	w0, w0, #0x4
  403920:	7100081f 	cmp	w0, #0x2
  403924:	54000468 	b.hi	4039b0 <main+0xf30>  // b.pmore
  403928:	510006a0 	sub	w0, w21, #0x1
  40392c:	d0000036 	adrp	x22, 409000 <process+0x82c>
  403930:	91102374 	add	x20, x27, #0x408
  403934:	913342d6 	add	x22, x22, #0xcd0
  403938:	1e620000 	scvtf	d0, w0
  40393c:	fd02d760 	str	d0, [x27, #1448]
  403940:	1400000b 	b	40396c <main+0xeec>
  403944:	b9803282 	ldrsw	x2, [x20, #48]
  403948:	9102d3e1 	add	x1, sp, #0xb4
  40394c:	aa1603e0 	mov	x0, x22
  403950:	f8627ae2 	ldr	x2, [x23, x2, lsl #3]
  403954:	97fffb73 	bl	402720 <sox_parse_playlist@plt>
  403958:	7100001f 	cmp	w0, #0x0
  40395c:	1a930673 	cinc	w19, w19, ne  // ne = any
  403960:	b9403280 	ldr	w0, [x20, #48]
  403964:	11000400 	add	w0, w0, #0x1
  403968:	b9003280 	str	w0, [x20, #48]
  40396c:	b9403280 	ldr	w0, [x20, #48]
  403970:	b9409be1 	ldr	w1, [sp, #152]
  403974:	6b00003f 	cmp	w1, w0
  403978:	540005ad 	b.le	403a2c <main+0xfac>
  40397c:	f94053f7 	ldr	x23, [sp, #160]
  403980:	f860dae0 	ldr	x0, [x23, w0, sxtw #3]
  403984:	97fffb93 	bl	4027d0 <sox_is_playlist@plt>
  403988:	35fffde0 	cbnz	w0, 403944 <main+0xec4>
  40398c:	b9803281 	ldrsw	x1, [x20, #48]
  403990:	9102d3e0 	add	x0, sp, #0xb4
  403994:	f94053e2 	ldr	x2, [sp, #160]
  403998:	f8617841 	ldr	x1, [x2, x1, lsl #3]
  40399c:	940018cd 	bl	409cd0 <soxi1>
  4039a0:	0b000273 	add	w19, w19, w0
  4039a4:	17ffffef 	b	403960 <main+0xee0>
  4039a8:	52800035 	mov	w21, #0x1                   	// #1
  4039ac:	17ffffdf 	b	403928 <main+0xea8>
  4039b0:	b00000e1 	adrp	x1, 420000 <fputs@GLIBC_2.17>
  4039b4:	90000040 	adrp	x0, 40b000 <__dso_handle+0xfa8>
  4039b8:	d28005c2 	mov	x2, #0x2e                  	// #46
  4039bc:	52800015 	mov	w21, #0x0                   	// #0
  4039c0:	f9425023 	ldr	x3, [x1, #1184]
  4039c4:	911ba000 	add	x0, x0, #0x6e8
  4039c8:	d2800021 	mov	x1, #0x1                   	// #1
  4039cc:	97fffbe1 	bl	402950 <fwrite@plt>
  4039d0:	17ffffd6 	b	403928 <main+0xea8>
  4039d4:	52800000 	mov	w0, #0x0                   	// #0
  4039d8:	94000492 	bl	404c20 <soxi_usage>
  4039dc:	97fffb4d 	bl	402710 <sox_get_globals@plt>
  4039e0:	52800041 	mov	w1, #0x2                   	// #2
  4039e4:	b9000001 	str	w1, [x0]
  4039e8:	97fffb4a 	bl	402710 <sox_get_globals@plt>
  4039ec:	f9422361 	ldr	x1, [x27, #1088]
  4039f0:	f0000022 	adrp	x2, 40a000 <soxi1+0x330>
  4039f4:	910b0042 	add	x2, x2, #0x2c0
  4039f8:	f9002002 	str	x2, [x0, #64]
  4039fc:	f0000020 	adrp	x0, 40a000 <soxi1+0x330>
  403a00:	9139c000 	add	x0, x0, #0xe70
  403a04:	97fffa8f 	bl	402440 <lsx_fail_impl@plt>
  403a08:	52800020 	mov	w0, #0x1                   	// #1
  403a0c:	97fffbc5 	bl	402920 <exit@plt>
  403a10:	52800035 	mov	w21, #0x1                   	// #1
  403a14:	17ffffa0 	b	403894 <main+0xe14>
  403a18:	97fffb3e 	bl	402710 <sox_get_globals@plt>
  403a1c:	b9400001 	ldr	w1, [x0]
  403a20:	11000421 	add	w1, w1, #0x1
  403a24:	b9000001 	str	w1, [x0]
  403a28:	17ffff9b 	b	403894 <main+0xe14>
  403a2c:	b940b7e0 	ldr	w0, [sp, #180]
  403a30:	35000120 	cbnz	w0, 403a54 <main+0xfd4>
  403a34:	f942d374 	ldr	x20, [x27, #1440]
  403a38:	f100069f 	cmp	x20, #0x1
  403a3c:	54000089 	b.ls	403a4c <main+0xfcc>  // b.plast
  403a40:	fd42d760 	ldr	d0, [x27, #1448]
  403a44:	1e602018 	fcmpe	d0, #0.0
  403a48:	540001ac 	b.gt	403a7c <main+0xffc>
  403a4c:	2a1303e0 	mov	w0, w19
  403a50:	97fffbb4 	bl	402920 <exit@plt>
  403a54:	34ffffd5 	cbz	w21, 403a4c <main+0xfcc>
  403a58:	fd42d760 	ldr	d0, [x27, #1448]
  403a5c:	1e602018 	fcmpe	d0, #0.0
  403a60:	54000224 	b.mi	403aa4 <main+0x1024>  // b.first
  403a64:	7100141f 	cmp	w0, #0x5
  403a68:	54000180 	b.eq	403a98 <main+0x1018>  // b.none
  403a6c:	90000040 	adrp	x0, 40b000 <__dso_handle+0xfa8>
  403a70:	9118c000 	add	x0, x0, #0x630
  403a74:	97fffbf3 	bl	402a40 <printf@plt>
  403a78:	17fffff5 	b	403a4c <main+0xfcc>
  403a7c:	940000b1 	bl	403d40 <str_time>
  403a80:	aa0003e2 	mov	x2, x0
  403a84:	2a1403e1 	mov	w1, w20
  403a88:	90000040 	adrp	x0, 40b000 <__dso_handle+0xfa8>
  403a8c:	911c6000 	add	x0, x0, #0x718
  403a90:	97fffbec 	bl	402a40 <printf@plt>
  403a94:	17ffffee 	b	403a4c <main+0xfcc>
  403a98:	940000aa 	bl	403d40 <str_time>
  403a9c:	97fffa31 	bl	402360 <puts@plt>
  403aa0:	17ffffeb 	b	403a4c <main+0xfcc>
  403aa4:	90000040 	adrp	x0, 40b000 <__dso_handle+0xfa8>
  403aa8:	91184000 	add	x0, x0, #0x610
  403aac:	97fffa2d 	bl	402360 <puts@plt>
  403ab0:	17ffffe7 	b	403a4c <main+0xfcc>

0000000000403ab4 <.annobin_lto.hot>:
  403ab4:	d503201f 	nop
  403ab8:	d503201f 	nop
  403abc:	d503201f 	nop

0000000000403ac0 <_start>:
  403ac0:	d503245f 	bti	c
  403ac4:	d280001d 	mov	x29, #0x0                   	// #0
  403ac8:	d280001e 	mov	x30, #0x0                   	// #0
  403acc:	aa0003e5 	mov	x5, x0
  403ad0:	f94003e1 	ldr	x1, [sp]
  403ad4:	910023e2 	add	x2, sp, #0x8
  403ad8:	910003e6 	mov	x6, sp
  403adc:	90000000 	adrp	x0, 403000 <main+0x580>
  403ae0:	912bd000 	add	x0, x0, #0xaf4
  403ae4:	d2800003 	mov	x3, #0x0                   	// #0
  403ae8:	d2800004 	mov	x4, #0x0                   	// #0
  403aec:	97fffab1 	bl	4025b0 <__libc_start_main@plt>
  403af0:	97fffb7c 	bl	4028e0 <abort@plt>

0000000000403af4 <__wrap_main>:
  403af4:	d503245f 	bti	c
  403af8:	17fffbe2 	b	402a80 <main>

0000000000403afc <.annobin_lto>:
  403afc:	d503201f 	nop

0000000000403b00 <_dl_relocate_static_pie>:
  403b00:	d503245f 	bti	c
  403b04:	d65f03c0 	ret

0000000000403b08 <call_weak_fn>:
  403b08:	900000e0 	adrp	x0, 41f000 <__FRAME_END__+0x10b24>
  403b0c:	f947f000 	ldr	x0, [x0, #4064]
  403b10:	b4000040 	cbz	x0, 403b18 <call_weak_fn+0x10>
  403b14:	17fffbb3 	b	4029e0 <__gmon_start__@plt>
  403b18:	d65f03c0 	ret
  403b1c:	d503201f 	nop

0000000000403b20 <deregister_tm_clones>:
  403b20:	b00000e0 	adrp	x0, 420000 <fputs@GLIBC_2.17>
  403b24:	91124000 	add	x0, x0, #0x490
  403b28:	b00000e1 	adrp	x1, 420000 <fputs@GLIBC_2.17>
  403b2c:	91124021 	add	x1, x1, #0x490
  403b30:	eb00003f 	cmp	x1, x0
  403b34:	540000c0 	b.eq	403b4c <deregister_tm_clones+0x2c>  // b.none
  403b38:	f0000021 	adrp	x1, 40a000 <soxi1+0x330>
  403b3c:	f9403021 	ldr	x1, [x1, #96]
  403b40:	b4000061 	cbz	x1, 403b4c <deregister_tm_clones+0x2c>
  403b44:	aa0103f0 	mov	x16, x1
  403b48:	d61f0200 	br	x16
  403b4c:	d65f03c0 	ret

0000000000403b50 <register_tm_clones>:
  403b50:	b00000e0 	adrp	x0, 420000 <fputs@GLIBC_2.17>
  403b54:	91124000 	add	x0, x0, #0x490
  403b58:	b00000e1 	adrp	x1, 420000 <fputs@GLIBC_2.17>
  403b5c:	91124021 	add	x1, x1, #0x490
  403b60:	cb000021 	sub	x1, x1, x0
  403b64:	d37ffc22 	lsr	x2, x1, #63
  403b68:	8b810c41 	add	x1, x2, x1, asr #3
  403b6c:	9341fc21 	asr	x1, x1, #1
  403b70:	b40000c1 	cbz	x1, 403b88 <register_tm_clones+0x38>
  403b74:	f0000022 	adrp	x2, 40a000 <soxi1+0x330>
  403b78:	f9403442 	ldr	x2, [x2, #104]
  403b7c:	b4000062 	cbz	x2, 403b88 <register_tm_clones+0x38>
  403b80:	aa0203f0 	mov	x16, x2
  403b84:	d61f0200 	br	x16
  403b88:	d65f03c0 	ret
  403b8c:	d503201f 	nop

0000000000403b90 <__do_global_dtors_aux>:
  403b90:	d503233f 	paciasp
  403b94:	a9be7bfd 	stp	x29, x30, [sp, #-32]!
  403b98:	910003fd 	mov	x29, sp
  403b9c:	f9000bf3 	str	x19, [sp, #16]
  403ba0:	b00000f3 	adrp	x19, 420000 <fputs@GLIBC_2.17>
  403ba4:	3952a260 	ldrb	w0, [x19, #1192]
  403ba8:	35000080 	cbnz	w0, 403bb8 <__do_global_dtors_aux+0x28>
  403bac:	97ffffdd 	bl	403b20 <deregister_tm_clones>
  403bb0:	52800020 	mov	w0, #0x1                   	// #1
  403bb4:	3912a260 	strb	w0, [x19, #1192]
  403bb8:	f9400bf3 	ldr	x19, [sp, #16]
  403bbc:	a8c27bfd 	ldp	x29, x30, [sp], #32
  403bc0:	d50323bf 	autiasp
  403bc4:	d65f03c0 	ret
  403bc8:	d503201f 	nop
  403bcc:	d503201f 	nop

0000000000403bd0 <frame_dummy>:
  403bd0:	d503245f 	bti	c
  403bd4:	17ffffdf 	b	403b50 <register_tm_clones>
  403bd8:	d503201f 	nop
  403bdc:	d503201f 	nop

0000000000403be0 <ostart>:
  403be0:	f9401001 	ldr	x1, [x0, #32]
  403be4:	b4000201 	cbz	x1, 403c24 <ostart+0x44>
  403be8:	b9401402 	ldr	w2, [x0, #20]
  403bec:	b9403400 	ldr	w0, [x0, #52]
  403bf0:	6b00005f 	cmp	w2, w0
  403bf4:	54000189 	b.ls	403c24 <ostart+0x44>  // b.plast
  403bf8:	52b00003 	mov	w3, #0x80000000            	// #-2147483648
  403bfc:	d2a00402 	mov	x2, #0x200000              	// #2097152
  403c00:	1ac02460 	lsr	w0, w3, w0
  403c04:	f2e7c002 	movk	x2, #0x3e00, lsl #48
  403c08:	9e670042 	fmov	d2, x2
  403c0c:	1e6e1001 	fmov	d1, #1.000000000000000000e+00
  403c10:	1e620003 	scvtf	d3, w0
  403c14:	fd400020 	ldr	d0, [x1]
  403c18:	1f428461 	fmsub	d1, d3, d2, d1
  403c1c:	1e610800 	fmul	d0, d0, d1
  403c20:	fd000020 	str	d0, [x1]
  403c24:	52800000 	mov	w0, #0x0                   	// #0
  403c28:	d65f03c0 	ret
  403c2c:	d503201f 	nop

0000000000403c30 <strcmp_p>:
  403c30:	f9400000 	ldr	x0, [x0]
  403c34:	f9400021 	ldr	x1, [x1]
  403c38:	17fffb02 	b	402840 <strcmp@plt>
  403c3c:	d503201f 	nop

0000000000403c40 <output_message>:
  403c40:	a9af7bfd 	stp	x29, x30, [sp, #-272]!
  403c44:	b0000044 	adrp	x4, 40c000 <__dso_handle+0x1fa8>
  403c48:	91386084 	add	x4, x4, #0xe18
  403c4c:	910003fd 	mov	x29, sp
  403c50:	a90153f3 	stp	x19, x20, [sp, #16]
  403c54:	9101a3f4 	add	x20, sp, #0x68
  403c58:	2a0003f3 	mov	w19, w0
  403c5c:	a9025bf5 	stp	x21, x22, [sp, #32]
  403c60:	aa0203f6 	mov	x22, x2
  403c64:	aa0303f5 	mov	x21, x3
  403c68:	f9001bf7 	str	x23, [sp, #48]
  403c6c:	aa0103f7 	mov	x23, x1
  403c70:	4c40a080 	ld1	{v0.16b, v1.16b}, [x4]
  403c74:	900000e4 	adrp	x4, 41f000 <__FRAME_END__+0x10b24>
  403c78:	91370084 	add	x4, x4, #0xdc0
  403c7c:	f9400080 	ldr	x0, [x4]
  403c80:	f90087e0 	str	x0, [sp, #264]
  403c84:	d2800000 	mov	x0, #0x0                   	// #0
  403c88:	4c00a280 	st1	{v0.16b, v1.16b}, [x20]
  403c8c:	97fffaa1 	bl	402710 <sox_get_globals@plt>
  403c90:	b9400000 	ldr	w0, [x0]
  403c94:	6b13001f 	cmp	w0, w19
  403c98:	54000182 	b.cs	403cc8 <output_message+0x88>  // b.hs, b.nlast
  403c9c:	900000e0 	adrp	x0, 41f000 <__FRAME_END__+0x10b24>
  403ca0:	f94087e2 	ldr	x2, [sp, #264]
  403ca4:	f946e001 	ldr	x1, [x0, #3520]
  403ca8:	eb010042 	subs	x2, x2, x1
  403cac:	d2800001 	mov	x1, #0x0                   	// #0
  403cb0:	54000421 	b.ne	403d34 <output_message+0xf4>  // b.any
  403cb4:	a94153f3 	ldp	x19, x20, [sp, #16]
  403cb8:	a9425bf5 	ldp	x21, x22, [sp, #32]
  403cbc:	f9401bf7 	ldr	x23, [sp, #48]
  403cc0:	a8d17bfd 	ldp	x29, x30, [sp], #272
  403cc4:	d65f03c0 	ret
  403cc8:	aa1703e2 	mov	x2, x23
  403ccc:	910223e0 	add	x0, sp, #0x88
  403cd0:	51000673 	sub	w19, w19, #0x1
  403cd4:	d2801001 	mov	x1, #0x80                  	// #128
  403cd8:	97fffb22 	bl	402960 <sox_basename@plt>
  403cdc:	b00000f7 	adrp	x23, 420000 <fputs@GLIBC_2.17>
  403ce0:	71000e7f 	cmp	w19, #0x3
  403ce4:	52800060 	mov	w0, #0x3                   	// #3
  403ce8:	1a809273 	csel	w19, w19, w0, ls  // ls = plast
  403cec:	b00000e0 	adrp	x0, 420000 <fputs@GLIBC_2.17>
  403cf0:	910223e4 	add	x4, sp, #0x88
  403cf4:	f0000021 	adrp	x1, 40a000 <soxi1+0x330>
  403cf8:	f9425802 	ldr	x2, [x0, #1200]
  403cfc:	9101c021 	add	x1, x1, #0x70
  403d00:	f94252e0 	ldr	x0, [x23, #1184]
  403d04:	f8737a83 	ldr	x3, [x20, x19, lsl #3]
  403d08:	97fff9b2 	bl	4023d0 <fprintf@plt>
  403d0c:	f94252e0 	ldr	x0, [x23, #1184]
  403d10:	aa1603e1 	mov	x1, x22
  403d14:	ad4006a0 	ldp	q0, q1, [x21]
  403d18:	910103e2 	add	x2, sp, #0x40
  403d1c:	ad0207e0 	stp	q0, q1, [sp, #64]
  403d20:	97fffb4c 	bl	402a50 <vfprintf@plt>
  403d24:	52800140 	mov	w0, #0xa                   	// #10
  403d28:	f94252e1 	ldr	x1, [x23, #1184]
  403d2c:	97fffa71 	bl	4026f0 <fputc@plt>
  403d30:	17ffffdb 	b	403c9c <output_message+0x5c>
  403d34:	97fff9b3 	bl	402400 <__stack_chk_fail@plt>
  403d38:	d503201f 	nop
  403d3c:	d503201f 	nop

0000000000403d40 <str_time>:
  403d40:	d2e809c0 	mov	x0, #0x404e000000000000    	// #4633641066610819072
  403d44:	9e670001 	fmov	d1, x0
  403d48:	a9bd7bfd 	stp	x29, x30, [sp, #-48]!
  403d4c:	52911122 	mov	w2, #0x8889                	// #34953
  403d50:	72b11102 	movk	w2, #0x8888, lsl #16
  403d54:	1e611801 	fdiv	d1, d0, d1
  403d58:	910003fd 	mov	x29, sp
  403d5c:	f0000021 	adrp	x1, 40a000 <soxi1+0x330>
  403d60:	a90153f3 	stp	x19, x20, [sp, #16]
  403d64:	b00000f3 	adrp	x19, 420000 <fputs@GLIBC_2.17>
  403d68:	9112c273 	add	x19, x19, #0x4b0
  403d6c:	91004274 	add	x20, x19, #0x10
  403d70:	f90013f5 	str	x21, [sp, #32]
  403d74:	52800655 	mov	w21, #0x32                  	// #50
  403d78:	91020021 	add	x1, x1, #0x80
  403d7c:	b9400a60 	ldr	w0, [x19, #8]
  403d80:	11000400 	add	w0, w0, #0x1
  403d84:	12000c00 	and	w0, w0, #0xf
  403d88:	b9000a60 	str	w0, [x19, #8]
  403d8c:	9b355000 	smaddl	x0, w0, w21, x20
  403d90:	1e780024 	fcvtzs	w4, d1
  403d94:	531c6c83 	lsl	w3, w4, #4
  403d98:	9b227c82 	smull	x2, w4, w2
  403d9c:	4b040063 	sub	w3, w3, w4
  403da0:	531e7463 	lsl	w3, w3, #2
  403da4:	d360fc42 	lsr	x2, x2, #32
  403da8:	0b020082 	add	w2, w4, w2
  403dac:	1e620061 	scvtf	d1, w3
  403db0:	13057c42 	asr	w2, w2, #5
  403db4:	4b847c42 	sub	w2, w2, w4, asr #31
  403db8:	1e613800 	fsub	d0, d0, d1
  403dbc:	4b021043 	sub	w3, w2, w2, lsl #4
  403dc0:	0b030883 	add	w3, w4, w3, lsl #2
  403dc4:	97fffa03 	bl	4025d0 <sprintf@plt>
  403dc8:	b9400a60 	ldr	w0, [x19, #8]
  403dcc:	9b355000 	smaddl	x0, w0, w21, x20
  403dd0:	a94153f3 	ldp	x19, x20, [sp, #16]
  403dd4:	f94013f5 	ldr	x21, [sp, #32]
  403dd8:	a8c37bfd 	ldp	x29, x30, [sp], #48
  403ddc:	d65f03c0 	ret

0000000000403de0 <device_name>:
  403de0:	a9be7bfd 	stp	x29, x30, [sp, #-32]!
  403de4:	f0000021 	adrp	x1, 40a000 <soxi1+0x330>
  403de8:	910003fd 	mov	x29, sp
  403dec:	a90153f3 	stp	x19, x20, [sp, #16]
  403df0:	aa0003f4 	mov	x20, x0
  403df4:	91028020 	add	x0, x1, #0xa0
  403df8:	97fffabe 	bl	4028f0 <getenv@plt>
  403dfc:	b4000774 	cbz	x20, 403ee8 <device_name+0x108>
  403e00:	aa0003f3 	mov	x19, x0
  403e04:	f0000021 	adrp	x1, 40a000 <soxi1+0x330>
  403e08:	aa1403e0 	mov	x0, x20
  403e0c:	9102c021 	add	x1, x1, #0xb0
  403e10:	97fffa8c 	bl	402840 <strcmp@plt>
  403e14:	35000120 	cbnz	w0, 403e38 <device_name+0x58>
  403e18:	f100027f 	cmp	x19, #0x0
  403e1c:	f0000020 	adrp	x0, 40a000 <soxi1+0x330>
  403e20:	91026000 	add	x0, x0, #0x98
  403e24:	9a930013 	csel	x19, x0, x19, eq  // eq = none
  403e28:	aa1303e0 	mov	x0, x19
  403e2c:	a94153f3 	ldp	x19, x20, [sp, #16]
  403e30:	a8c27bfd 	ldp	x29, x30, [sp], #32
  403e34:	d65f03c0 	ret
  403e38:	f0000021 	adrp	x1, 40a000 <soxi1+0x330>
  403e3c:	aa1403e0 	mov	x0, x20
  403e40:	9102e021 	add	x1, x1, #0xb8
  403e44:	97fffa7f 	bl	402840 <strcmp@plt>
  403e48:	34fffe80 	cbz	w0, 403e18 <device_name+0x38>
  403e4c:	f0000021 	adrp	x1, 40a000 <soxi1+0x330>
  403e50:	aa1403e0 	mov	x0, x20
  403e54:	91030021 	add	x1, x1, #0xc0
  403e58:	97fffa7a 	bl	402840 <strcmp@plt>
  403e5c:	34fffde0 	cbz	w0, 403e18 <device_name+0x38>
  403e60:	f0000021 	adrp	x1, 40a000 <soxi1+0x330>
  403e64:	aa1403e0 	mov	x0, x20
  403e68:	91032021 	add	x1, x1, #0xc8
  403e6c:	97fffa75 	bl	402840 <strcmp@plt>
  403e70:	34fffd40 	cbz	w0, 403e18 <device_name+0x38>
  403e74:	39400280 	ldrb	w0, [x20]
  403e78:	7101841f 	cmp	w0, #0x61
  403e7c:	540000e1 	b.ne	403e98 <device_name+0xb8>  // b.any
  403e80:	39400680 	ldrb	w0, [x20, #1]
  403e84:	7101bc1f 	cmp	w0, #0x6f
  403e88:	54000081 	b.ne	403e98 <device_name+0xb8>  // b.any
  403e8c:	39400a80 	ldrb	w0, [x20, #2]
  403e90:	34fffc40 	cbz	w0, 403e18 <device_name+0x38>
  403e94:	d503201f 	nop
  403e98:	f0000021 	adrp	x1, 40a000 <soxi1+0x330>
  403e9c:	aa1403e0 	mov	x0, x20
  403ea0:	91034021 	add	x1, x1, #0xd0
  403ea4:	97fffa67 	bl	402840 <strcmp@plt>
  403ea8:	34fffb80 	cbz	w0, 403e18 <device_name+0x38>
  403eac:	f0000021 	adrp	x1, 40a000 <soxi1+0x330>
  403eb0:	aa1403e0 	mov	x0, x20
  403eb4:	91036021 	add	x1, x1, #0xd8
  403eb8:	97fffa62 	bl	402840 <strcmp@plt>
  403ebc:	34fffae0 	cbz	w0, 403e18 <device_name+0x38>
  403ec0:	f0000021 	adrp	x1, 40a000 <soxi1+0x330>
  403ec4:	aa1403e0 	mov	x0, x20
  403ec8:	9103a021 	add	x1, x1, #0xe8
  403ecc:	97fffa5d 	bl	402840 <strcmp@plt>
  403ed0:	34fffa40 	cbz	w0, 403e18 <device_name+0x38>
  403ed4:	f0000021 	adrp	x1, 40a000 <soxi1+0x330>
  403ed8:	aa1403e0 	mov	x0, x20
  403edc:	9103e021 	add	x1, x1, #0xf8
  403ee0:	97fffa58 	bl	402840 <strcmp@plt>
  403ee4:	34fff9a0 	cbz	w0, 403e18 <device_name+0x38>
  403ee8:	d2800013 	mov	x19, #0x0                   	// #0
  403eec:	17ffffcf 	b	403e28 <device_name+0x48>

0000000000403ef0 <free_eff_chain>:
  403ef0:	a9bb7bfd 	stp	x29, x30, [sp, #-80]!
  403ef4:	b00000e0 	adrp	x0, 420000 <fputs@GLIBC_2.17>
  403ef8:	9112c000 	add	x0, x0, #0x4b0
  403efc:	910003fd 	mov	x29, sp
  403f00:	a90363f7 	stp	x23, x24, [sp, #48]
  403f04:	f9419818 	ldr	x24, [x0, #816]
  403f08:	f90023f9 	str	x25, [sp, #64]
  403f0c:	f9419c19 	ldr	x25, [x0, #824]
  403f10:	a9025bf5 	stp	x21, x22, [sp, #32]
  403f14:	d37df315 	lsl	x21, x24, #3
  403f18:	f941a000 	ldr	x0, [x0, #832]
  403f1c:	8b150337 	add	x23, x25, x21
  403f20:	f8787b21 	ldr	x1, [x25, x24, lsl #3]
  403f24:	8b150015 	add	x21, x0, x21
  403f28:	f8787800 	ldr	x0, [x0, x24, lsl #3]
  403f2c:	b4000461 	cbz	x1, 403fb8 <free_eff_chain+0xc8>
  403f30:	d2800016 	mov	x22, #0x0                   	// #0
  403f34:	a90153f3 	stp	x19, x20, [sp, #16]
  403f38:	d37bead4 	lsl	x20, x22, #5
  403f3c:	f8746800 	ldr	x0, [x0, x20]
  403f40:	97fff960 	bl	4024c0 <free@plt>
  403f44:	f94002a0 	ldr	x0, [x21]
  403f48:	8b140001 	add	x1, x0, x20
  403f4c:	f834681f 	str	xzr, [x0, x20]
  403f50:	b9400820 	ldr	w0, [x1, #8]
  403f54:	7100001f 	cmp	w0, #0x0
  403f58:	f9400820 	ldr	x0, [x1, #16]
  403f5c:	540001ad 	b.le	403f90 <free_eff_chain+0xa0>
  403f60:	d2800013 	mov	x19, #0x0                   	// #0
  403f64:	d503201f 	nop
  403f68:	f8737800 	ldr	x0, [x0, x19, lsl #3]
  403f6c:	97fff955 	bl	4024c0 <free@plt>
  403f70:	f94002a1 	ldr	x1, [x21]
  403f74:	8b140021 	add	x1, x1, x20
  403f78:	f9400820 	ldr	x0, [x1, #16]
  403f7c:	b9400822 	ldr	w2, [x1, #8]
  403f80:	f833781f 	str	xzr, [x0, x19, lsl #3]
  403f84:	91000673 	add	x19, x19, #0x1
  403f88:	6b13005f 	cmp	w2, w19
  403f8c:	54fffeec 	b.gt	403f68 <free_eff_chain+0x78>
  403f90:	b900083f 	str	wzr, [x1, #8]
  403f94:	910006d6 	add	x22, x22, #0x1
  403f98:	97fff94a 	bl	4024c0 <free@plt>
  403f9c:	f94002a0 	ldr	x0, [x21]
  403fa0:	8b140014 	add	x20, x0, x20
  403fa4:	a9017e9f 	stp	xzr, xzr, [x20, #16]
  403fa8:	f94002e1 	ldr	x1, [x23]
  403fac:	eb16003f 	cmp	x1, x22
  403fb0:	54fffc48 	b.hi	403f38 <free_eff_chain+0x48>  // b.pmore
  403fb4:	a94153f3 	ldp	x19, x20, [sp, #16]
  403fb8:	f8387b3f 	str	xzr, [x25, x24, lsl #3]
  403fbc:	a9425bf5 	ldp	x21, x22, [sp, #32]
  403fc0:	a94363f7 	ldp	x23, x24, [sp, #48]
  403fc4:	f94023f9 	ldr	x25, [sp, #64]
  403fc8:	a8c57bfd 	ldp	x29, x30, [sp], #80
  403fcc:	17fff93d 	b	4024c0 <free@plt>

0000000000403fd0 <combiner_stop>:
  403fd0:	a9bd7bfd 	stp	x29, x30, [sp, #-48]!
  403fd4:	b00000e1 	adrp	x1, 420000 <fputs@GLIBC_2.17>
  403fd8:	910003fd 	mov	x29, sp
  403fdc:	b943c821 	ldr	w1, [x1, #968]
  403fe0:	a90153f3 	stp	x19, x20, [sp, #16]
  403fe4:	f9406014 	ldr	x20, [x0, #192]
  403fe8:	7100043f 	cmp	w1, #0x1
  403fec:	54000209 	b.ls	40402c <combiner_stop+0x5c>  // b.plast
  403ff0:	b00000e0 	adrp	x0, 420000 <fputs@GLIBC_2.17>
  403ff4:	f90013f5 	str	x21, [sp, #32]
  403ff8:	f943fc15 	ldr	x21, [x0, #2040]
  403ffc:	b4000135 	cbz	x21, 404020 <combiner_stop+0x50>
  404000:	d2800013 	mov	x19, #0x0                   	// #0
  404004:	d503201f 	nop
  404008:	f9400280 	ldr	x0, [x20]
  40400c:	f8737800 	ldr	x0, [x0, x19, lsl #3]
  404010:	91000673 	add	x19, x19, #0x1
  404014:	97fff92b 	bl	4024c0 <free@plt>
  404018:	eb15027f 	cmp	x19, x21
  40401c:	54ffff61 	b.ne	404008 <combiner_stop+0x38>  // b.any
  404020:	f9400280 	ldr	x0, [x20]
  404024:	97fff927 	bl	4024c0 <free@plt>
  404028:	f94013f5 	ldr	x21, [sp, #32]
  40402c:	f9400680 	ldr	x0, [x20, #8]
  404030:	97fff924 	bl	4024c0 <free@plt>
  404034:	52800000 	mov	w0, #0x0                   	// #0
  404038:	a94153f3 	ldp	x19, x20, [sp, #16]
  40403c:	a8c37bfd 	ldp	x29, x30, [sp], #48
  404040:	d65f03c0 	ret

0000000000404044 <delete_eff_chains>:
  404044:	a9be7bfd 	stp	x29, x30, [sp, #-32]!
  404048:	910003fd 	mov	x29, sp
  40404c:	a90153f3 	stp	x19, x20, [sp, #16]
  404050:	900000f4 	adrp	x20, 420000 <fputs@GLIBC_2.17>
  404054:	9112c294 	add	x20, x20, #0x4b0
  404058:	f9419a93 	ldr	x19, [x20, #816]
  40405c:	b40000b3 	cbz	x19, 404070 <delete_eff_chains+0x2c>
  404060:	d1000673 	sub	x19, x19, #0x1
  404064:	f9019a93 	str	x19, [x20, #816]
  404068:	97ffffa2 	bl	403ef0 <free_eff_chain>
  40406c:	b5ffffb3 	cbnz	x19, 404060 <delete_eff_chains+0x1c>
  404070:	f941a280 	ldr	x0, [x20, #832]
  404074:	97fff913 	bl	4024c0 <free@plt>
  404078:	f941aa80 	ldr	x0, [x20, #848]
  40407c:	97fff911 	bl	4024c0 <free@plt>
  404080:	f9419e80 	ldr	x0, [x20, #824]
  404084:	97fff90f 	bl	4024c0 <free@plt>
  404088:	f9019e9f 	str	xzr, [x20, #824]
  40408c:	f901a29f 	str	xzr, [x20, #832]
  404090:	f901aa9f 	str	xzr, [x20, #848]
  404094:	a94153f3 	ldp	x19, x20, [sp, #16]
  404098:	a8c27bfd 	ldp	x29, x30, [sp], #32
  40409c:	d65f03c0 	ret

00000000004040a0 <strtoargv>:
  4040a0:	a9bb7bfd 	stp	x29, x30, [sp, #-80]!
  4040a4:	910003fd 	mov	x29, sp
  4040a8:	a90153f3 	stp	x19, x20, [sp, #16]
  4040ac:	aa0003f4 	mov	x20, x0
  4040b0:	a9025bf5 	stp	x21, x22, [sp, #32]
  4040b4:	52800015 	mov	w21, #0x0                   	// #0
  4040b8:	52800016 	mov	w22, #0x0                   	// #0
  4040bc:	a90363f7 	stp	x23, x24, [sp, #48]
  4040c0:	aa0103f8 	mov	x24, x1
  4040c4:	d2800017 	mov	x23, #0x0                   	// #0
  4040c8:	f90023f9 	str	x25, [sp, #64]
  4040cc:	b900003f 	str	wzr, [x1]
  4040d0:	39400293 	ldrb	w19, [x20]
  4040d4:	340001d3 	cbz	w19, 40410c <strtoargv+0x6c>
  4040d8:	97fff996 	bl	402730 <__ctype_b_loc@plt>
  4040dc:	aa0003f9 	mov	x25, x0
  4040e0:	2a1303e2 	mov	w2, w19
  4040e4:	f9400324 	ldr	x4, [x25]
  4040e8:	d37f1c40 	ubfiz	x0, x2, #1, #8
  4040ec:	78606880 	ldrh	w0, [x4, x0]
  4040f0:	366800c0 	tbz	w0, #13, 404108 <strtoargv+0x68>
  4040f4:	d503201f 	nop
  4040f8:	38401e82 	ldrb	w2, [x20, #1]!
  4040fc:	d37f1c43 	ubfiz	x3, x2, #1, #8
  404100:	78636883 	ldrh	w3, [x4, x3]
  404104:	376fffa3 	tbnz	w3, #13, 4040f8 <strtoargv+0x58>
  404108:	35000102 	cbnz	w2, 404128 <strtoargv+0x88>
  40410c:	aa1703e0 	mov	x0, x23
  404110:	a94153f3 	ldp	x19, x20, [sp, #16]
  404114:	a9425bf5 	ldp	x21, x22, [sp, #32]
  404118:	a94363f7 	ldp	x23, x24, [sp, #48]
  40411c:	f94023f9 	ldr	x25, [sp, #64]
  404120:	a8c57bfd 	ldp	x29, x30, [sp], #80
  404124:	d65f03c0 	ret
  404128:	b9400301 	ldr	w1, [x24]
  40412c:	aa1703e0 	mov	x0, x23
  404130:	d2800102 	mov	x2, #0x8                   	// #8
  404134:	11000421 	add	w1, w1, #0x1
  404138:	93407c21 	sxtw	x1, w1
  40413c:	97fff879 	bl	402320 <lsx_realloc_array@plt>
  404140:	b9400303 	ldr	w3, [x24]
  404144:	aa0003f7 	mov	x23, x0
  404148:	aa1403e1 	mov	x1, x20
  40414c:	52800002 	mov	w2, #0x0                   	// #0
  404150:	11000460 	add	w0, w3, #0x1
  404154:	b9000300 	str	w0, [x24]
  404158:	f823daf4 	str	x20, [x23, w3, sxtw #3]
  40415c:	39400280 	ldrb	w0, [x20]
  404160:	35000220 	cbnz	w0, 4041a4 <strtoargv+0x104>
  404164:	1400001d 	b	4041d8 <strtoargv+0x138>
  404168:	f9400323 	ldr	x3, [x25]
  40416c:	d37f1c02 	ubfiz	x2, x0, #1, #8
  404170:	78626862 	ldrh	w2, [x3, x2]
  404174:	376805e2 	tbnz	w2, #13, 404230 <strtoargv+0x190>
  404178:	7100881f 	cmp	w0, #0x22
  40417c:	54000360 	b.eq	4041e8 <strtoargv+0x148>  // b.none
  404180:	71009c1f 	cmp	w0, #0x27
  404184:	54000200 	b.eq	4041c4 <strtoargv+0x124>  // b.none
  404188:	7101701f 	cmp	w0, #0x5c
  40418c:	54000360 	b.eq	4041f8 <strtoargv+0x158>  // b.none
  404190:	38001420 	strb	w0, [x1], #1
  404194:	39400680 	ldrb	w0, [x20, #1]
  404198:	91000694 	add	x20, x20, #0x1
  40419c:	340001e0 	cbz	w0, 4041d8 <strtoargv+0x138>
  4041a0:	52800002 	mov	w2, #0x0                   	// #0
  4041a4:	2a0202c3 	orr	w3, w22, w2
  4041a8:	2a150064 	orr	w4, w3, w21
  4041ac:	34fffde4 	cbz	w4, 404168 <strtoargv+0xc8>
  4041b0:	34000183 	cbz	w3, 4041e0 <strtoargv+0x140>
  4041b4:	2a0202a2 	orr	w2, w21, w2
  4041b8:	35fffec2 	cbnz	w2, 404190 <strtoargv+0xf0>
  4041bc:	71009c1f 	cmp	w0, #0x27
  4041c0:	54fffe41 	b.ne	404188 <strtoargv+0xe8>  // b.any
  4041c4:	39400680 	ldrb	w0, [x20, #1]
  4041c8:	520002d6 	eor	w22, w22, #0x1
  4041cc:	91000694 	add	x20, x20, #0x1
  4041d0:	52800015 	mov	w21, #0x0                   	// #0
  4041d4:	35fffe60 	cbnz	w0, 4041a0 <strtoargv+0x100>
  4041d8:	3900003f 	strb	wzr, [x1]
  4041dc:	17ffffbd 	b	4040d0 <strtoargv+0x30>
  4041e0:	7100881f 	cmp	w0, #0x22
  4041e4:	54fffd21 	b.ne	404188 <strtoargv+0xe8>  // b.any
  4041e8:	39400680 	ldrb	w0, [x20, #1]
  4041ec:	520002b5 	eor	w21, w21, #0x1
  4041f0:	52800016 	mov	w22, #0x0                   	// #0
  4041f4:	17ffffe9 	b	404198 <strtoargv+0xf8>
  4041f8:	39400683 	ldrb	w3, [x20, #1]
  4041fc:	520002c2 	eor	w2, w22, #0x1
  404200:	7100007f 	cmp	w3, #0x0
  404204:	1a9f07e4 	cset	w4, ne  // ne = any
  404208:	6a04005f 	tst	w2, w4
  40420c:	54fffc20 	b.eq	404190 <strtoargv+0xf0>  // b.none
  404210:	7100887f 	cmp	w3, #0x22
  404214:	54000040 	b.eq	40421c <strtoargv+0x17c>  // b.none
  404218:	35fffbd5 	cbnz	w21, 404190 <strtoargv+0xf0>
  40421c:	91000694 	add	x20, x20, #0x1
  404220:	2a0303e0 	mov	w0, w3
  404224:	52800022 	mov	w2, #0x1                   	// #1
  404228:	52800016 	mov	w22, #0x0                   	// #0
  40422c:	17ffffde 	b	4041a4 <strtoargv+0x104>
  404230:	91000694 	add	x20, x20, #0x1
  404234:	52800016 	mov	w22, #0x0                   	// #0
  404238:	52800015 	mov	w21, #0x0                   	// #0
  40423c:	3900003f 	strb	wzr, [x1]
  404240:	17ffffa4 	b	4040d0 <strtoargv+0x30>

0000000000404244 <add_eff_chain>:
  404244:	a9bd7bfd 	stp	x29, x30, [sp, #-48]!
  404248:	d2800102 	mov	x2, #0x8                   	// #8
  40424c:	910003fd 	mov	x29, sp
  404250:	a90153f3 	stp	x19, x20, [sp, #16]
  404254:	900000f3 	adrp	x19, 420000 <fputs@GLIBC_2.17>
  404258:	9112c273 	add	x19, x19, #0x4b0
  40425c:	f90013f5 	str	x21, [sp, #32]
  404260:	f941a260 	ldr	x0, [x19, #832]
  404264:	f9419a61 	ldr	x1, [x19, #816]
  404268:	91000421 	add	x1, x1, #0x1
  40426c:	97fff82d 	bl	402320 <lsx_realloc_array@plt>
  404270:	f9419a75 	ldr	x21, [x19, #816]
  404274:	aa0003f4 	mov	x20, x0
  404278:	d2800400 	mov	x0, #0x20                  	// #32
  40427c:	f901a274 	str	x20, [x19, #832]
  404280:	97fff95c 	bl	4027f0 <lsx_malloc@plt>
  404284:	f8357a80 	str	x0, [x20, x21, lsl #3]
  404288:	d2800102 	mov	x2, #0x8                   	// #8
  40428c:	f941aa60 	ldr	x0, [x19, #848]
  404290:	f9419a61 	ldr	x1, [x19, #816]
  404294:	91000421 	add	x1, x1, #0x1
  404298:	97fff822 	bl	402320 <lsx_realloc_array@plt>
  40429c:	f9419a64 	ldr	x4, [x19, #816]
  4042a0:	aa0003e3 	mov	x3, x0
  4042a4:	f9419e60 	ldr	x0, [x19, #824]
  4042a8:	91000481 	add	x1, x4, #0x1
  4042ac:	f824787f 	str	xzr, [x3, x4, lsl #3]
  4042b0:	d2800102 	mov	x2, #0x8                   	// #8
  4042b4:	f901aa63 	str	x3, [x19, #848]
  4042b8:	97fff81a 	bl	402320 <lsx_realloc_array@plt>
  4042bc:	f9019e60 	str	x0, [x19, #824]
  4042c0:	f9419a61 	ldr	x1, [x19, #816]
  4042c4:	a94153f3 	ldp	x19, x20, [sp, #16]
  4042c8:	f821781f 	str	xzr, [x0, x1, lsl #3]
  4042cc:	f94013f5 	ldr	x21, [sp, #32]
  4042d0:	a8c37bfd 	ldp	x29, x30, [sp], #48
  4042d4:	d65f03c0 	ret
  4042d8:	d503201f 	nop
  4042dc:	d503201f 	nop

00000000004042e0 <display_supported_effects>:
  4042e0:	a9bd7bfd 	stp	x29, x30, [sp, #-48]!
  4042e4:	d0000020 	adrp	x0, 40a000 <soxi1+0x330>
  4042e8:	91048000 	add	x0, x0, #0x120
  4042ec:	910003fd 	mov	x29, sp
  4042f0:	a90153f3 	stp	x19, x20, [sp, #16]
  4042f4:	d0000034 	adrp	x20, 40a000 <soxi1+0x330>
  4042f8:	91044294 	add	x20, x20, #0x110
  4042fc:	a9025bf5 	stp	x21, x22, [sp, #32]
  404300:	d0000035 	adrp	x21, 40a000 <soxi1+0x330>
  404304:	9104c2b5 	add	x21, x21, #0x130
  404308:	d2800013 	mov	x19, #0x0                   	// #0
  40430c:	d0000036 	adrp	x22, 40a000 <soxi1+0x330>
  404310:	97fff9cc 	bl	402a40 <printf@plt>
  404314:	d503201f 	nop
  404318:	97fff946 	bl	402830 <sox_get_effect_fns@plt>
  40431c:	f8736800 	ldr	x0, [x0, x19]
  404320:	91002273 	add	x19, x19, #0x8
  404324:	b40002e0 	cbz	x0, 404380 <display_supported_effects+0xa0>
  404328:	d63f0000 	blr	x0
  40432c:	aa0003e3 	mov	x3, x0
  404330:	b4ffff40 	cbz	x0, 404318 <display_supported_effects+0x38>
  404334:	f9400061 	ldr	x1, [x3]
  404338:	aa1503e0 	mov	x0, x21
  40433c:	aa1403e2 	mov	x2, x20
  404340:	b4fffec1 	cbz	x1, 404318 <display_supported_effects+0x38>
  404344:	b9401063 	ldr	w3, [x3, #16]
  404348:	37300123 	tbnz	w3, #6, 40436c <display_supported_effects+0x8c>
  40434c:	d0000022 	adrp	x2, 40a000 <soxi1+0x330>
  404350:	d0000025 	adrp	x5, 40a000 <soxi1+0x330>
  404354:	9131e044 	add	x4, x2, #0xc78
  404358:	910460a5 	add	x5, x5, #0x118
  40435c:	910422c2 	add	x2, x22, #0x108
  404360:	37480063 	tbnz	w3, #9, 40436c <display_supported_effects+0x8c>
  404364:	f276007f 	tst	x3, #0x400
  404368:	9a8410a2 	csel	x2, x5, x4, ne  // ne = any
  40436c:	97fff9b5 	bl	402a40 <printf@plt>
  404370:	97fff930 	bl	402830 <sox_get_effect_fns@plt>
  404374:	f8736800 	ldr	x0, [x0, x19]
  404378:	91002273 	add	x19, x19, #0x8
  40437c:	b5fffd60 	cbnz	x0, 404328 <display_supported_effects+0x48>
  404380:	a94153f3 	ldp	x19, x20, [sp, #16]
  404384:	d0000020 	adrp	x0, 40a000 <soxi1+0x330>
  404388:	a9425bf5 	ldp	x21, x22, [sp, #32]
  40438c:	9104e000 	add	x0, x0, #0x138
  404390:	a8c37bfd 	ldp	x29, x30, [sp], #48
  404394:	17fff7f3 	b	402360 <puts@plt>
  404398:	d503201f 	nop
  40439c:	d503201f 	nop

00000000004043a0 <display_supported_formats>:
  4043a0:	a9bc7bfd 	stp	x29, x30, [sp, #-64]!
  4043a4:	910003fd 	mov	x29, sp
  4043a8:	a90153f3 	stp	x19, x20, [sp, #16]
  4043ac:	d2800014 	mov	x20, #0x0                   	// #0
  4043b0:	d2800013 	mov	x19, #0x0                   	// #0
  4043b4:	a9025bf5 	stp	x21, x22, [sp, #32]
  4043b8:	f9001bf7 	str	x23, [sp, #48]
  4043bc:	97fff931 	bl	402880 <sox_format_init@plt>
  4043c0:	97fff7fc 	bl	4023b0 <sox_get_format_fns@plt>
  4043c4:	8b140000 	add	x0, x0, x20
  4043c8:	f9400400 	ldr	x0, [x0, #8]
  4043cc:	b40001e0 	cbz	x0, 404408 <display_supported_formats+0x68>
  4043d0:	d63f0000 	blr	x0
  4043d4:	f9400801 	ldr	x1, [x0, #16]
  4043d8:	f9400020 	ldr	x0, [x1]
  4043dc:	b40000c0 	cbz	x0, 4043f4 <display_supported_formats+0x54>
  4043e0:	cb130c21 	sub	x1, x1, x19, lsl #3
  4043e4:	d503201f 	nop
  4043e8:	91000673 	add	x19, x19, #0x1
  4043ec:	f8737820 	ldr	x0, [x1, x19, lsl #3]
  4043f0:	b5ffffc0 	cbnz	x0, 4043e8 <display_supported_formats+0x48>
  4043f4:	91004294 	add	x20, x20, #0x10
  4043f8:	97fff7ee 	bl	4023b0 <sox_get_format_fns@plt>
  4043fc:	8b140000 	add	x0, x0, x20
  404400:	f9400400 	ldr	x0, [x0, #8]
  404404:	b5fffe60 	cbnz	x0, 4043d0 <display_supported_formats+0x30>
  404408:	d37df260 	lsl	x0, x19, #3
  40440c:	97fff8f9 	bl	4027f0 <lsx_malloc@plt>
  404410:	d0000021 	adrp	x1, 40a000 <soxi1+0x330>
  404414:	aa0003f5 	mov	x21, x0
  404418:	91060020 	add	x0, x1, #0x180
  40441c:	d2800017 	mov	x23, #0x0                   	// #0
  404420:	97fff988 	bl	402a40 <printf@plt>
  404424:	d2800016 	mov	x22, #0x0                   	// #0
  404428:	97fff7e2 	bl	4023b0 <sox_get_format_fns@plt>
  40442c:	8b170000 	add	x0, x0, x23
  404430:	f9400400 	ldr	x0, [x0, #8]
  404434:	b4000120 	cbz	x0, 404458 <display_supported_formats+0xb8>
  404438:	d63f0000 	blr	x0
  40443c:	b9401801 	ldr	w1, [x0, #24]
  404440:	36080921 	tbz	w1, #1, 404564 <display_supported_formats+0x1c4>
  404444:	910042f7 	add	x23, x23, #0x10
  404448:	97fff7da 	bl	4023b0 <sox_get_format_fns@plt>
  40444c:	8b170000 	add	x0, x0, x23
  404450:	f9400400 	ldr	x0, [x0, #8]
  404454:	b5ffff20 	cbnz	x0, 404438 <display_supported_formats+0x98>
  404458:	f0fffff4 	adrp	x20, 403000 <main+0x580>
  40445c:	9130c294 	add	x20, x20, #0xc30
  404460:	aa1403e3 	mov	x3, x20
  404464:	aa1603e1 	mov	x1, x22
  404468:	aa1503e0 	mov	x0, x21
  40446c:	d2800102 	mov	x2, #0x8                   	// #8
  404470:	97fff82c 	bl	402520 <qsort@plt>
  404474:	b4000176 	cbz	x22, 4044a0 <display_supported_formats+0x100>
  404478:	f0000037 	adrp	x23, 40b000 <__dso_handle+0xfa8>
  40447c:	912502f7 	add	x23, x23, #0x940
  404480:	d2800013 	mov	x19, #0x0                   	// #0
  404484:	d503201f 	nop
  404488:	f8737aa1 	ldr	x1, [x21, x19, lsl #3]
  40448c:	aa1703e0 	mov	x0, x23
  404490:	91000673 	add	x19, x19, #0x1
  404494:	97fff96b 	bl	402a40 <printf@plt>
  404498:	eb1302df 	cmp	x22, x19
  40449c:	54ffff61 	b.ne	404488 <display_supported_formats+0xe8>  // b.any
  4044a0:	900000e1 	adrp	x1, 420000 <fputs@GLIBC_2.17>
  4044a4:	52800140 	mov	w0, #0xa                   	// #10
  4044a8:	d2800016 	mov	x22, #0x0                   	// #0
  4044ac:	d10022b7 	sub	x23, x21, #0x8
  4044b0:	f9424c21 	ldr	x1, [x1, #1176]
  4044b4:	d2800013 	mov	x19, #0x0                   	// #0
  4044b8:	97fff7da 	bl	402420 <putc@plt>
  4044bc:	d0000020 	adrp	x0, 40a000 <soxi1+0x330>
  4044c0:	91066000 	add	x0, x0, #0x198
  4044c4:	97fff95f 	bl	402a40 <printf@plt>
  4044c8:	97fff7ba 	bl	4023b0 <sox_get_format_fns@plt>
  4044cc:	8b160000 	add	x0, x0, x22
  4044d0:	f9400400 	ldr	x0, [x0, #8]
  4044d4:	b4000160 	cbz	x0, 404500 <display_supported_formats+0x160>
  4044d8:	d63f0000 	blr	x0
  4044dc:	f9400c01 	ldr	x1, [x0, #24]
  4044e0:	927f0421 	and	x1, x1, #0x6
  4044e4:	f100083f 	cmp	x1, #0x2
  4044e8:	54000660 	b.eq	4045b4 <display_supported_formats+0x214>  // b.none
  4044ec:	910042d6 	add	x22, x22, #0x10
  4044f0:	97fff7b0 	bl	4023b0 <sox_get_format_fns@plt>
  4044f4:	8b160000 	add	x0, x0, x22
  4044f8:	f9400400 	ldr	x0, [x0, #8]
  4044fc:	b5fffee0 	cbnz	x0, 4044d8 <display_supported_formats+0x138>
  404500:	aa1403e3 	mov	x3, x20
  404504:	aa1303e1 	mov	x1, x19
  404508:	aa1503e0 	mov	x0, x21
  40450c:	d2800102 	mov	x2, #0x8                   	// #8
  404510:	97fff804 	bl	402520 <qsort@plt>
  404514:	b4000173 	cbz	x19, 404540 <display_supported_formats+0x1a0>
  404518:	f0000037 	adrp	x23, 40b000 <__dso_handle+0xfa8>
  40451c:	912502f7 	add	x23, x23, #0x940
  404520:	d2800014 	mov	x20, #0x0                   	// #0
  404524:	d503201f 	nop
  404528:	f8747aa1 	ldr	x1, [x21, x20, lsl #3]
  40452c:	aa1703e0 	mov	x0, x23
  404530:	91000694 	add	x20, x20, #0x1
  404534:	97fff943 	bl	402a40 <printf@plt>
  404538:	eb14027f 	cmp	x19, x20
  40453c:	54ffff61 	b.ne	404528 <display_supported_formats+0x188>  // b.any
  404540:	f0000020 	adrp	x0, 40b000 <__dso_handle+0xfa8>
  404544:	910c6000 	add	x0, x0, #0x318
  404548:	97fff786 	bl	402360 <puts@plt>
  40454c:	aa1503e0 	mov	x0, x21
  404550:	a94153f3 	ldp	x19, x20, [sp, #16]
  404554:	a9425bf5 	ldp	x21, x22, [sp, #32]
  404558:	f9401bf7 	ldr	x23, [sp, #48]
  40455c:	a8c47bfd 	ldp	x29, x30, [sp], #64
  404560:	17fff7d8 	b	4024c0 <free@plt>
  404564:	f9400814 	ldr	x20, [x0, #16]
  404568:	f9400293 	ldr	x19, [x20]
  40456c:	b4fff6d3 	cbz	x19, 404444 <display_supported_formats+0xa4>
  404570:	aa1303e0 	mov	x0, x19
  404574:	528005e1 	mov	w1, #0x2f                  	// #47
  404578:	97fff7de 	bl	4024f0 <strchr@plt>
  40457c:	b40000e0 	cbz	x0, 404598 <display_supported_formats+0x1f8>
  404580:	f8408e93 	ldr	x19, [x20, #8]!
  404584:	b4fff613 	cbz	x19, 404444 <display_supported_formats+0xa4>
  404588:	aa1303e0 	mov	x0, x19
  40458c:	528005e1 	mov	w1, #0x2f                  	// #47
  404590:	97fff7d8 	bl	4024f0 <strchr@plt>
  404594:	b5ffff60 	cbnz	x0, 404580 <display_supported_formats+0x1e0>
  404598:	f8367ab3 	str	x19, [x21, x22, lsl #3]
  40459c:	910006c0 	add	x0, x22, #0x1
  4045a0:	aa0003f6 	mov	x22, x0
  4045a4:	f8408e93 	ldr	x19, [x20, #8]!
  4045a8:	b5fffe53 	cbnz	x19, 404570 <display_supported_formats+0x1d0>
  4045ac:	910042f7 	add	x23, x23, #0x10
  4045b0:	17ffffa6 	b	404448 <display_supported_formats+0xa8>
  4045b4:	f9400801 	ldr	x1, [x0, #16]
  4045b8:	f9400020 	ldr	x0, [x1]
  4045bc:	b4fff980 	cbz	x0, 4044ec <display_supported_formats+0x14c>
  4045c0:	cb130c21 	sub	x1, x1, x19, lsl #3
  4045c4:	d503201f 	nop
  4045c8:	91000673 	add	x19, x19, #0x1
  4045cc:	f8337ae0 	str	x0, [x23, x19, lsl #3]
  4045d0:	f8737820 	ldr	x0, [x1, x19, lsl #3]
  4045d4:	b5ffffa0 	cbnz	x0, 4045c8 <display_supported_formats+0x228>
  4045d8:	910042d6 	add	x22, x22, #0x10
  4045dc:	17ffffc5 	b	4044f0 <display_supported_formats+0x150>

00000000004045e0 <usage_format1>:
  4045e0:	a9ba7bfd 	stp	x29, x30, [sp, #-96]!
  4045e4:	d0000021 	adrp	x1, 40a000 <soxi1+0x330>
  4045e8:	910003fd 	mov	x29, sp
  4045ec:	a9046bf9 	stp	x25, x26, [sp, #64]
  4045f0:	aa0003f9 	mov	x25, x0
  4045f4:	91072020 	add	x0, x1, #0x1c8
  4045f8:	a90153f3 	stp	x19, x20, [sp, #16]
  4045fc:	f9400b21 	ldr	x1, [x25, #16]
  404600:	f9400021 	ldr	x1, [x1]
  404604:	97fff90f 	bl	402a40 <printf@plt>
  404608:	f9400721 	ldr	x1, [x25, #8]
  40460c:	d0000020 	adrp	x0, 40a000 <soxi1+0x330>
  404610:	91076000 	add	x0, x0, #0x1d8
  404614:	97fff90b 	bl	402a40 <printf@plt>
  404618:	f9400b20 	ldr	x0, [x25, #16]
  40461c:	f9400400 	ldr	x0, [x0, #8]
  404620:	b4000240 	cbz	x0, 404668 <usage_format1+0x88>
  404624:	d0000020 	adrp	x0, 40a000 <soxi1+0x330>
  404628:	9107c000 	add	x0, x0, #0x1f0
  40462c:	97fff905 	bl	402a40 <printf@plt>
  404630:	f0000034 	adrp	x20, 40b000 <__dso_handle+0xfa8>
  404634:	f9400b20 	ldr	x0, [x25, #16]
  404638:	91250294 	add	x20, x20, #0x940
  40463c:	91002013 	add	x19, x0, #0x8
  404640:	f9400401 	ldr	x1, [x0, #8]
  404644:	b40000a1 	cbz	x1, 404658 <usage_format1+0x78>
  404648:	aa1403e0 	mov	x0, x20
  40464c:	97fff8fd 	bl	402a40 <printf@plt>
  404650:	f8408e61 	ldr	x1, [x19, #8]!
  404654:	b5ffffa1 	cbnz	x1, 404648 <usage_format1+0x68>
  404658:	900000e1 	adrp	x1, 420000 <fputs@GLIBC_2.17>
  40465c:	52800140 	mov	w0, #0xa                   	// #10
  404660:	f9424c21 	ldr	x1, [x1, #1176]
  404664:	97fff76f 	bl	402420 <putc@plt>
  404668:	b9401b20 	ldr	w0, [x25, #24]
  40466c:	7218081f 	tst	w0, #0x700
  404670:	54000b01 	b.ne	4047d0 <usage_format1+0x1f0>  // b.any
  404674:	f9403333 	ldr	x19, [x25, #96]
  404678:	b4000273 	cbz	x19, 4046c4 <usage_format1+0xe4>
  40467c:	d0000020 	adrp	x0, 40a000 <soxi1+0x330>
  404680:	9108c000 	add	x0, x0, #0x230
  404684:	97fff8ef 	bl	402a40 <printf@plt>
  404688:	d0000034 	adrp	x20, 40a000 <soxi1+0x330>
  40468c:	fd400260 	ldr	d0, [x19]
  404690:	91094294 	add	x20, x20, #0x250
  404694:	1e602008 	fcmp	d0, #0.0
  404698:	540000e0 	b.eq	4046b4 <usage_format1+0xd4>  // b.none
  40469c:	d503201f 	nop
  4046a0:	aa1403e0 	mov	x0, x20
  4046a4:	97fff8e7 	bl	402a40 <printf@plt>
  4046a8:	fc408e60 	ldr	d0, [x19, #8]!
  4046ac:	1e602008 	fcmp	d0, #0.0
  4046b0:	54ffff81 	b.ne	4046a0 <usage_format1+0xc0>  // b.any
  4046b4:	900000e1 	adrp	x1, 420000 <fputs@GLIBC_2.17>
  4046b8:	52800140 	mov	w0, #0xa                   	// #10
  4046bc:	f9424c21 	ldr	x1, [x1, #1176]
  4046c0:	97fff758 	bl	402420 <putc@plt>
  4046c4:	f9401320 	ldr	x0, [x25, #32]
  4046c8:	d0000021 	adrp	x1, 40a000 <soxi1+0x330>
  4046cc:	910aa021 	add	x1, x1, #0x2a8
  4046d0:	b4000a80 	cbz	x0, 404820 <usage_format1+0x240>
  4046d4:	d0000020 	adrp	x0, 40a000 <soxi1+0x330>
  4046d8:	91096000 	add	x0, x0, #0x258
  4046dc:	97fff8d9 	bl	402a40 <printf@plt>
  4046e0:	f9401f20 	ldr	x0, [x25, #56]
  4046e4:	b40008e0 	cbz	x0, 404800 <usage_format1+0x220>
  4046e8:	f9402f20 	ldr	x0, [x25, #88]
  4046ec:	b4000a60 	cbz	x0, 404838 <usage_format1+0x258>
  4046f0:	d0000020 	adrp	x0, 40a000 <soxi1+0x330>
  4046f4:	9109a000 	add	x0, x0, #0x268
  4046f8:	a9025bf5 	stp	x21, x22, [sp, #32]
  4046fc:	52800034 	mov	w20, #0x1                   	// #1
  404700:	a90363f7 	stp	x23, x24, [sp, #48]
  404704:	97fff717 	bl	402360 <puts@plt>
  404708:	f9402f37 	ldr	x23, [x25, #88]
  40470c:	b94002f6 	ldr	w22, [x23]
  404710:	340002d6 	cbz	w22, 404768 <usage_format1+0x188>
  404714:	d000003a 	adrp	x26, 40a000 <soxi1+0x330>
  404718:	910a235a 	add	x26, x26, #0x288
  40471c:	a90573fb 	stp	x27, x28, [sp, #80]
  404720:	d000003b 	adrp	x27, 40a000 <soxi1+0x330>
  404724:	9109c37b 	add	x27, x27, #0x270
  404728:	d37f7ed8 	ubfiz	x24, x22, #1, #32
  40472c:	d000003c 	adrp	x28, 40a000 <soxi1+0x330>
  404730:	8b364318 	add	x24, x24, w22, uxtw
  404734:	d37df318 	lsl	x24, x24, #3
  404738:	2a1403f5 	mov	w21, w20
  40473c:	2a1603e0 	mov	w0, w22
  404740:	11000694 	add	w20, w20, #0x1
  404744:	b8755af3 	ldr	w19, [x23, w21, uxtw #2]
  404748:	2a1303e1 	mov	w1, w19
  40474c:	97fff7d9 	bl	4026b0 <sox_precision@plt>
  404750:	35000180 	cbnz	w0, 404780 <usage_format1+0x1a0>
  404754:	35ffff33 	cbnz	w19, 404738 <usage_format1+0x158>
  404758:	b8745af6 	ldr	w22, [x23, w20, uxtw #2]
  40475c:	11000ab4 	add	w20, w21, #0x2
  404760:	35fffe56 	cbnz	w22, 404728 <usage_format1+0x148>
  404764:	a94573fb 	ldp	x27, x28, [sp, #80]
  404768:	a94153f3 	ldp	x19, x20, [sp, #16]
  40476c:	a9425bf5 	ldp	x21, x22, [sp, #32]
  404770:	a94363f7 	ldp	x23, x24, [sp, #48]
  404774:	a9446bf9 	ldp	x25, x26, [sp, #64]
  404778:	a8c67bfd 	ldp	x29, x30, [sp], #96
  40477c:	d65f03c0 	ret
  404780:	aa1b03e0 	mov	x0, x27
  404784:	97fff8af 	bl	402a40 <printf@plt>
  404788:	350001d3 	cbnz	w19, 4047c0 <usage_format1+0x1e0>
  40478c:	97fff841 	bl	402890 <sox_get_encodings_info@plt>
  404790:	aa0003f7 	mov	x23, x0
  404794:	8b1802f7 	add	x23, x23, x24
  404798:	2a1303e1 	mov	w1, w19
  40479c:	2a1603e0 	mov	w0, w22
  4047a0:	97fff7c4 	bl	4026b0 <sox_precision@plt>
  4047a4:	2a0003e2 	mov	w2, w0
  4047a8:	aa1a03e0 	mov	x0, x26
  4047ac:	f9400ae1 	ldr	x1, [x23, #16]
  4047b0:	97fff8a4 	bl	402a40 <printf@plt>
  4047b4:	f9402f37 	ldr	x23, [x25, #88]
  4047b8:	35fffc13 	cbnz	w19, 404738 <usage_format1+0x158>
  4047bc:	17ffffe7 	b	404758 <usage_format1+0x178>
  4047c0:	2a1303e1 	mov	w1, w19
  4047c4:	9109e380 	add	x0, x28, #0x278
  4047c8:	97fff89e 	bl	402a40 <printf@plt>
  4047cc:	17fffff0 	b	40478c <usage_format1+0x1ac>
  4047d0:	d0000020 	adrp	x0, 40a000 <soxi1+0x330>
  4047d4:	91080000 	add	x0, x0, #0x200
  4047d8:	97fff89a 	bl	402a40 <printf@plt>
  4047dc:	b9401b20 	ldr	w0, [x25, #24]
  4047e0:	374004a0 	tbnz	w0, #8, 404874 <usage_format1+0x294>
  4047e4:	37480360 	tbnz	w0, #9, 404850 <usage_format1+0x270>
  4047e8:	375003e0 	tbnz	w0, #10, 404864 <usage_format1+0x284>
  4047ec:	900000e1 	adrp	x1, 420000 <fputs@GLIBC_2.17>
  4047f0:	52800140 	mov	w0, #0xa                   	// #10
  4047f4:	f9424c21 	ldr	x1, [x1, #1176]
  4047f8:	97fff70a 	bl	402420 <putc@plt>
  4047fc:	17ffff9e 	b	404674 <usage_format1+0x94>
  404800:	f9402320 	ldr	x0, [x25, #64]
  404804:	b5fff720 	cbnz	x0, 4046e8 <usage_format1+0x108>
  404808:	a94153f3 	ldp	x19, x20, [sp, #16]
  40480c:	d0000020 	adrp	x0, 40a000 <soxi1+0x330>
  404810:	a9446bf9 	ldp	x25, x26, [sp, #64]
  404814:	910ac000 	add	x0, x0, #0x2b0
  404818:	a8c67bfd 	ldp	x29, x30, [sp], #96
  40481c:	17fff6d1 	b	402360 <puts@plt>
  404820:	f9401722 	ldr	x2, [x25, #40]
  404824:	d0000020 	adrp	x0, 40a000 <soxi1+0x330>
  404828:	910ae000 	add	x0, x0, #0x2b8
  40482c:	f100005f 	cmp	x2, #0x0
  404830:	9a801021 	csel	x1, x1, x0, ne  // ne = any
  404834:	17ffffa8 	b	4046d4 <usage_format1+0xf4>
  404838:	a94153f3 	ldp	x19, x20, [sp, #16]
  40483c:	d0000020 	adrp	x0, 40a000 <soxi1+0x330>
  404840:	a9446bf9 	ldp	x25, x26, [sp, #64]
  404844:	910a8000 	add	x0, x0, #0x2a0
  404848:	a8c67bfd 	ldp	x29, x30, [sp], #96
  40484c:	17fff6c5 	b	402360 <puts@plt>
  404850:	d0000020 	adrp	x0, 40a000 <soxi1+0x330>
  404854:	91088000 	add	x0, x0, #0x220
  404858:	97fff87a 	bl	402a40 <printf@plt>
  40485c:	b9401b20 	ldr	w0, [x25, #24]
  404860:	3657fc60 	tbz	w0, #10, 4047ec <usage_format1+0x20c>
  404864:	d0000020 	adrp	x0, 40a000 <soxi1+0x330>
  404868:	9108a000 	add	x0, x0, #0x228
  40486c:	97fff875 	bl	402a40 <printf@plt>
  404870:	17ffffdf 	b	4047ec <usage_format1+0x20c>
  404874:	d0000020 	adrp	x0, 40a000 <soxi1+0x330>
  404878:	91086000 	add	x0, x0, #0x218
  40487c:	97fff871 	bl	402a40 <printf@plt>
  404880:	b9401b20 	ldr	w0, [x25, #24]
  404884:	364ffb20 	tbz	w0, #9, 4047e8 <usage_format1+0x208>
  404888:	17fffff2 	b	404850 <usage_format1+0x270>
  40488c:	d503201f 	nop

0000000000404890 <init_file>:
  404890:	a9be7bfd 	stp	x29, x30, [sp, #-32]!
  404894:	d2802a02 	mov	x2, #0x150                 	// #336
  404898:	52800001 	mov	w1, #0x0                   	// #0
  40489c:	910003fd 	mov	x29, sp
  4048a0:	f9000bf3 	str	x19, [sp, #16]
  4048a4:	aa0003f3 	mov	x19, x0
  4048a8:	97fff70a 	bl	4024d0 <memset@plt>
  4048ac:	9100c260 	add	x0, x19, #0x30
  4048b0:	97fff808 	bl	4028d0 <sox_init_encodinginfo@plt>
  4048b4:	b0000040 	adrp	x0, 40d000 <lines3.7+0x130>
  4048b8:	3dc22400 	ldr	q0, [x0, #2192]
  4048bc:	3d801660 	str	q0, [x19, #80]
  4048c0:	f9400bf3 	ldr	x19, [sp, #16]
  4048c4:	a8c27bfd 	ldp	x29, x30, [sp], #32
  4048c8:	d65f03c0 	ret
  4048cc:	d503201f 	nop

00000000004048d0 <try_device>:
  4048d0:	d10c03ff 	sub	sp, sp, #0x300
  4048d4:	f00000c1 	adrp	x1, 41f000 <__FRAME_END__+0x10b24>
  4048d8:	91370021 	add	x1, x1, #0xdc0
  4048dc:	a9007bfd 	stp	x29, x30, [sp]
  4048e0:	910003fd 	mov	x29, sp
  4048e4:	a90153f3 	stp	x19, x20, [sp, #16]
  4048e8:	aa0003f4 	mov	x20, x0
  4048ec:	f9400022 	ldr	x2, [x1]
  4048f0:	f9017fe2 	str	x2, [sp, #760]
  4048f4:	d2800002 	mov	x2, #0x0                   	// #0
  4048f8:	52800001 	mov	w1, #0x0                   	// #0
  4048fc:	97fff6ed 	bl	4024b0 <sox_find_format@plt>
  404900:	aa0003f3 	mov	x19, x0
  404904:	b40003e0 	cbz	x0, 404980 <try_device+0xb0>
  404908:	97fff782 	bl	402710 <sox_get_globals@plt>
  40490c:	d0000022 	adrp	x2, 40a000 <soxi1+0x330>
  404910:	910b0042 	add	x2, x2, #0x2c0
  404914:	d0000023 	adrp	x3, 40a000 <soxi1+0x330>
  404918:	f9002002 	str	x2, [x0, #64]
  40491c:	aa1403e1 	mov	x1, x20
  404920:	910b2060 	add	x0, x3, #0x2c8
  404924:	97fff743 	bl	402630 <lsx_debug_impl@plt>
  404928:	d2805b02 	mov	x2, #0x2d8                 	// #728
  40492c:	52800001 	mov	w1, #0x0                   	// #0
  404930:	910083e0 	add	x0, sp, #0x20
  404934:	97fff6e7 	bl	4024d0 <memset@plt>
  404938:	aa1403e0 	mov	x0, x20
  40493c:	97fffd29 	bl	403de0 <device_name>
  404940:	f9403661 	ldr	x1, [x19, #104]
  404944:	aa0003e2 	mov	x2, x0
  404948:	d2800020 	mov	x0, #0x1                   	// #1
  40494c:	f90013e2 	str	x2, [sp, #32]
  404950:	97fff78c 	bl	402780 <lsx_calloc@plt>
  404954:	f9401e61 	ldr	x1, [x19, #56]
  404958:	f9017be0 	str	x0, [sp, #752]
  40495c:	910083e0 	add	x0, sp, #0x20
  404960:	d63f0020 	blr	x1
  404964:	35000240 	cbnz	w0, 4049ac <try_device+0xdc>
  404968:	f9402661 	ldr	x1, [x19, #72]
  40496c:	910083e0 	add	x0, sp, #0x20
  404970:	aa1403f3 	mov	x19, x20
  404974:	d63f0020 	blr	x1
  404978:	f9417be0 	ldr	x0, [sp, #752]
  40497c:	97fff6d1 	bl	4024c0 <free@plt>
  404980:	f00000c0 	adrp	x0, 41f000 <__FRAME_END__+0x10b24>
  404984:	f9417fe2 	ldr	x2, [sp, #760]
  404988:	f946e001 	ldr	x1, [x0, #3520]
  40498c:	eb010042 	subs	x2, x2, x1
  404990:	d2800001 	mov	x1, #0x0                   	// #0
  404994:	54000141 	b.ne	4049bc <try_device+0xec>  // b.any
  404998:	aa1303e0 	mov	x0, x19
  40499c:	a9407bfd 	ldp	x29, x30, [sp]
  4049a0:	a94153f3 	ldp	x19, x20, [sp, #16]
  4049a4:	910c03ff 	add	sp, sp, #0x300
  4049a8:	d65f03c0 	ret
  4049ac:	f9417be0 	ldr	x0, [sp, #752]
  4049b0:	d2800013 	mov	x19, #0x0                   	// #0
  4049b4:	97fff6c3 	bl	4024c0 <free@plt>
  4049b8:	17fffff2 	b	404980 <try_device+0xb0>
  4049bc:	97fff691 	bl	402400 <__stack_chk_fail@plt>

00000000004049c0 <set_default_device>:
  4049c0:	a9be7bfd 	stp	x29, x30, [sp, #-32]!
  4049c4:	910003fd 	mov	x29, sp
  4049c8:	f9000bf3 	str	x19, [sp, #16]
  4049cc:	aa0003f3 	mov	x19, x0
  4049d0:	f9400400 	ldr	x0, [x0, #8]
  4049d4:	b4000080 	cbz	x0, 4049e4 <set_default_device+0x24>
  4049d8:	f9400bf3 	ldr	x19, [sp, #16]
  4049dc:	a8c27bfd 	ldp	x29, x30, [sp], #32
  4049e0:	17fffd00 	b	403de0 <device_name>
  4049e4:	d0000020 	adrp	x0, 40a000 <soxi1+0x330>
  4049e8:	910c0000 	add	x0, x0, #0x300
  4049ec:	97fff7c1 	bl	4028f0 <getenv@plt>
  4049f0:	f9000660 	str	x0, [x19, #8]
  4049f4:	b5ffff20 	cbnz	x0, 4049d8 <set_default_device+0x18>
  4049f8:	d0000020 	adrp	x0, 40a000 <soxi1+0x330>
  4049fc:	91036000 	add	x0, x0, #0xd8
  404a00:	97ffffb4 	bl	4048d0 <try_device>
  404a04:	f9000660 	str	x0, [x19, #8]
  404a08:	b5fffe80 	cbnz	x0, 4049d8 <set_default_device+0x18>
  404a0c:	d0000020 	adrp	x0, 40a000 <soxi1+0x330>
  404a10:	9103a000 	add	x0, x0, #0xe8
  404a14:	97ffffaf 	bl	4048d0 <try_device>
  404a18:	f9000660 	str	x0, [x19, #8]
  404a1c:	b5fffde0 	cbnz	x0, 4049d8 <set_default_device+0x18>
  404a20:	d0000020 	adrp	x0, 40a000 <soxi1+0x330>
  404a24:	91032000 	add	x0, x0, #0xc8
  404a28:	97ffffaa 	bl	4048d0 <try_device>
  404a2c:	f9000660 	str	x0, [x19, #8]
  404a30:	b5fffd40 	cbnz	x0, 4049d8 <set_default_device+0x18>
  404a34:	d0000020 	adrp	x0, 40a000 <soxi1+0x330>
  404a38:	9103e000 	add	x0, x0, #0xf8
  404a3c:	97ffffa5 	bl	4048d0 <try_device>
  404a40:	f9000660 	str	x0, [x19, #8]
  404a44:	b5fffca0 	cbnz	x0, 4049d8 <set_default_device+0x18>
  404a48:	d0000020 	adrp	x0, 40a000 <soxi1+0x330>
  404a4c:	91034000 	add	x0, x0, #0xd0
  404a50:	97ffffa0 	bl	4048d0 <try_device>
  404a54:	f9000660 	str	x0, [x19, #8]
  404a58:	b5fffc00 	cbnz	x0, 4049d8 <set_default_device+0x18>
  404a5c:	d0000020 	adrp	x0, 40a000 <soxi1+0x330>
  404a60:	9102e000 	add	x0, x0, #0xb8
  404a64:	97ffff9b 	bl	4048d0 <try_device>
  404a68:	f9000660 	str	x0, [x19, #8]
  404a6c:	b5fffb60 	cbnz	x0, 4049d8 <set_default_device+0x18>
  404a70:	d0000020 	adrp	x0, 40a000 <soxi1+0x330>
  404a74:	9102c000 	add	x0, x0, #0xb0
  404a78:	97ffff96 	bl	4048d0 <try_device>
  404a7c:	f9000660 	str	x0, [x19, #8]
  404a80:	b5fffac0 	cbnz	x0, 4049d8 <set_default_device+0x18>
  404a84:	900000e0 	adrp	x0, 420000 <fputs@GLIBC_2.17>
  404a88:	f9440400 	ldr	x0, [x0, #2056]
  404a8c:	b5000160 	cbnz	x0, 404ab8 <set_default_device+0xf8>
  404a90:	97fff720 	bl	402710 <sox_get_globals@plt>
  404a94:	aa0003e2 	mov	x2, x0
  404a98:	d0000021 	adrp	x1, 40a000 <soxi1+0x330>
  404a9c:	910b0021 	add	x1, x1, #0x2c0
  404aa0:	d0000020 	adrp	x0, 40a000 <soxi1+0x330>
  404aa4:	910c4000 	add	x0, x0, #0x310
  404aa8:	f9002041 	str	x1, [x2, #64]
  404aac:	97fff665 	bl	402440 <lsx_fail_impl@plt>
  404ab0:	52800020 	mov	w0, #0x1                   	// #1
  404ab4:	97fff79b 	bl	402920 <exit@plt>
  404ab8:	d0000020 	adrp	x0, 40a000 <soxi1+0x330>
  404abc:	910d2000 	add	x0, x0, #0x348
  404ac0:	97ffff84 	bl	4048d0 <try_device>
  404ac4:	f9000660 	str	x0, [x19, #8]
  404ac8:	b4fffe40 	cbz	x0, 404a90 <set_default_device+0xd0>
  404acc:	f9400bf3 	ldr	x19, [sp, #16]
  404ad0:	a8c27bfd 	ldp	x29, x30, [sp], #32
  404ad4:	17fffcc3 	b	403de0 <device_name>
  404ad8:	d503201f 	nop
  404adc:	d503201f 	nop

0000000000404ae0 <display_SoX_version>:
  404ae0:	a9a57bfd 	stp	x29, x30, [sp, #-432]!
  404ae4:	f00000c1 	adrp	x1, 41f000 <__FRAME_END__+0x10b24>
  404ae8:	91370021 	add	x1, x1, #0xdc0
  404aec:	910003fd 	mov	x29, sp
  404af0:	a90153f3 	stp	x19, x20, [sp, #16]
  404af4:	aa0003f4 	mov	x20, x0
  404af8:	f9400020 	ldr	x0, [x1]
  404afc:	f900d7e0 	str	x0, [sp, #424]
  404b00:	d2800000 	mov	x0, #0x0                   	// #0
  404b04:	97fff68b 	bl	402530 <sox_version_info@plt>
  404b08:	aa0003f3 	mov	x19, x0
  404b0c:	a9411403 	ldp	x3, x5, [x0, #16]
  404b10:	900000e1 	adrp	x1, 420000 <fputs@GLIBC_2.17>
  404b14:	d0000024 	adrp	x4, 40a000 <soxi1+0x330>
  404b18:	910d4084 	add	x4, x4, #0x350
  404b1c:	f9425822 	ldr	x2, [x1, #1200]
  404b20:	b40005a5 	cbz	x5, 404bd4 <display_SoX_version+0xf4>
  404b24:	d0000021 	adrp	x1, 40a000 <soxi1+0x330>
  404b28:	910d6021 	add	x1, x1, #0x358
  404b2c:	aa1403e0 	mov	x0, x20
  404b30:	97fff628 	bl	4023d0 <fprintf@plt>
  404b34:	97fff6f7 	bl	402710 <sox_get_globals@plt>
  404b38:	b9400000 	ldr	w0, [x0]
  404b3c:	71000c1f 	cmp	w0, #0x3
  404b40:	54000389 	b.ls	404bb0 <display_SoX_version+0xd0>  // b.plast
  404b44:	f9401262 	ldr	x2, [x19, #32]
  404b48:	b40000a2 	cbz	x2, 404b5c <display_SoX_version+0x7c>
  404b4c:	d0000021 	adrp	x1, 40a000 <soxi1+0x330>
  404b50:	aa1403e0 	mov	x0, x20
  404b54:	910dc021 	add	x1, x1, #0x370
  404b58:	97fff61e 	bl	4023d0 <fprintf@plt>
  404b5c:	f9401662 	ldr	x2, [x19, #40]
  404b60:	b40000a2 	cbz	x2, 404b74 <display_SoX_version+0x94>
  404b64:	d0000021 	adrp	x1, 40a000 <soxi1+0x330>
  404b68:	aa1403e0 	mov	x0, x20
  404b6c:	910e0021 	add	x1, x1, #0x380
  404b70:	97fff618 	bl	4023d0 <fprintf@plt>
  404b74:	910083e0 	add	x0, sp, #0x20
  404b78:	97fff61a 	bl	4023e0 <uname@plt>
  404b7c:	34000340 	cbz	w0, 404be4 <display_SoX_version+0x104>
  404b80:	f9401a62 	ldr	x2, [x19, #48]
  404b84:	b40000a2 	cbz	x2, 404b98 <display_SoX_version+0xb8>
  404b88:	d0000021 	adrp	x1, 40a000 <soxi1+0x330>
  404b8c:	aa1403e0 	mov	x0, x20
  404b90:	910ec021 	add	x1, x1, #0x3b0
  404b94:	97fff60f 	bl	4023d0 <fprintf@plt>
  404b98:	f9401e62 	ldr	x2, [x19, #56]
  404b9c:	b40000a2 	cbz	x2, 404bb0 <display_SoX_version+0xd0>
  404ba0:	d0000021 	adrp	x1, 40a000 <soxi1+0x330>
  404ba4:	aa1403e0 	mov	x0, x20
  404ba8:	910f0021 	add	x1, x1, #0x3c0
  404bac:	97fff609 	bl	4023d0 <fprintf@plt>
  404bb0:	f00000c0 	adrp	x0, 41f000 <__FRAME_END__+0x10b24>
  404bb4:	f940d7e2 	ldr	x2, [sp, #424]
  404bb8:	f946e001 	ldr	x1, [x0, #3520]
  404bbc:	eb010042 	subs	x2, x2, x1
  404bc0:	d2800001 	mov	x1, #0x0                   	// #0
  404bc4:	54000281 	b.ne	404c14 <display_SoX_version+0x134>  // b.any
  404bc8:	a94153f3 	ldp	x19, x20, [sp, #16]
  404bcc:	a8db7bfd 	ldp	x29, x30, [sp], #432
  404bd0:	d65f03c0 	ret
  404bd4:	d0000024 	adrp	x4, 40a000 <soxi1+0x330>
  404bd8:	9131e084 	add	x4, x4, #0xc78
  404bdc:	aa0403e5 	mov	x5, x4
  404be0:	17ffffd1 	b	404b24 <display_SoX_version+0x44>
  404be4:	910083e2 	add	x2, sp, #0x20
  404be8:	910493e6 	add	x6, sp, #0x124
  404bec:	91038fe5 	add	x5, sp, #0xe3
  404bf0:	91028be4 	add	x4, sp, #0xa2
  404bf4:	910187e3 	add	x3, sp, #0x61
  404bf8:	aa1403e0 	mov	x0, x20
  404bfc:	d0000021 	adrp	x1, 40a000 <soxi1+0x330>
  404c00:	910e4021 	add	x1, x1, #0x390
  404c04:	97fff5f3 	bl	4023d0 <fprintf@plt>
  404c08:	f9401a62 	ldr	x2, [x19, #48]
  404c0c:	b5fffbe2 	cbnz	x2, 404b88 <display_SoX_version+0xa8>
  404c10:	17ffffe2 	b	404b98 <display_SoX_version+0xb8>
  404c14:	97fff5fb 	bl	402400 <__stack_chk_fail@plt>
  404c18:	d503201f 	nop
  404c1c:	d503201f 	nop

0000000000404c20 <soxi_usage>:
  404c20:	a9be7bfd 	stp	x29, x30, [sp, #-32]!
  404c24:	900000e1 	adrp	x1, 420000 <fputs@GLIBC_2.17>
  404c28:	910003fd 	mov	x29, sp
  404c2c:	f9000bf3 	str	x19, [sp, #16]
  404c30:	2a0003f3 	mov	w19, w0
  404c34:	f9424c20 	ldr	x0, [x1, #1176]
  404c38:	97ffffaa 	bl	404ae0 <display_SoX_version>
  404c3c:	d0000020 	adrp	x0, 40a000 <soxi1+0x330>
  404c40:	910f4000 	add	x0, x0, #0x3d0
  404c44:	97fff5c7 	bl	402360 <puts@plt>
  404c48:	d0000020 	adrp	x0, 40a000 <soxi1+0x330>
  404c4c:	91138000 	add	x0, x0, #0x4e0
  404c50:	97fff5c4 	bl	402360 <puts@plt>
  404c54:	2a1303e0 	mov	w0, w19
  404c58:	97fff732 	bl	402920 <exit@plt>
  404c5c:	d503201f 	nop

0000000000404c60 <usage>:
  404c60:	a9bc7bfd 	stp	x29, x30, [sp, #-64]!
  404c64:	910003fd 	mov	x29, sp
  404c68:	a90153f3 	stp	x19, x20, [sp, #16]
  404c6c:	a9025bf5 	stp	x21, x22, [sp, #32]
  404c70:	aa0003f6 	mov	x22, x0
  404c74:	f9001bf7 	str	x23, [sp, #48]
  404c78:	97fff62e 	bl	402530 <sox_version_info@plt>
  404c7c:	aa0003f7 	mov	x23, x0
  404c80:	97fff6a4 	bl	402710 <sox_get_globals@plt>
  404c84:	b9400000 	ldr	w0, [x0]
  404c88:	7100081f 	cmp	w0, #0x2
  404c8c:	54000a49 	b.ls	404dd4 <usage+0x174>  // b.plast
  404c90:	b4000136 	cbz	x22, 404cb4 <usage+0x54>
  404c94:	97fff69f 	bl	402710 <sox_get_globals@plt>
  404c98:	d0000022 	adrp	x2, 40a000 <soxi1+0x330>
  404c9c:	910b0042 	add	x2, x2, #0x2c0
  404ca0:	d0000023 	adrp	x3, 40a000 <soxi1+0x330>
  404ca4:	f9002002 	str	x2, [x0, #64]
  404ca8:	aa1603e1 	mov	x1, x22
  404cac:	911ba060 	add	x0, x3, #0x6e8
  404cb0:	97fff5e4 	bl	402440 <lsx_fail_impl@plt>
  404cb4:	900000e0 	adrp	x0, 420000 <fputs@GLIBC_2.17>
  404cb8:	d0000021 	adrp	x1, 40a000 <soxi1+0x330>
  404cbc:	d0000022 	adrp	x2, 40a000 <soxi1+0x330>
  404cc0:	911b6021 	add	x1, x1, #0x6d8
  404cc4:	b9481003 	ldr	w3, [x0, #2064]
  404cc8:	9131e042 	add	x2, x2, #0xc78
  404ccc:	d0000020 	adrp	x0, 40a000 <soxi1+0x330>
  404cd0:	911bc000 	add	x0, x0, #0x6f0
  404cd4:	7100047f 	cmp	w3, #0x1
  404cd8:	9a810041 	csel	x1, x2, x1, eq  // eq = none
  404cdc:	97fff759 	bl	402a40 <printf@plt>
  404ce0:	d0000020 	adrp	x0, 40a000 <soxi1+0x330>
  404ce4:	911d0000 	add	x0, x0, #0x740
  404ce8:	97fff59e 	bl	402360 <puts@plt>
  404cec:	d0000020 	adrp	x0, 40a000 <soxi1+0x330>
  404cf0:	911da000 	add	x0, x0, #0x768
  404cf4:	97fff59b 	bl	402360 <puts@plt>
  404cf8:	d0000020 	adrp	x0, 40a000 <soxi1+0x330>
  404cfc:	911ee000 	add	x0, x0, #0x7b8
  404d00:	97fff598 	bl	402360 <puts@plt>
  404d04:	d0000020 	adrp	x0, 40a000 <soxi1+0x330>
  404d08:	91200000 	add	x0, x0, #0x800
  404d0c:	97fff595 	bl	402360 <puts@plt>
  404d10:	d0000020 	adrp	x0, 40a000 <soxi1+0x330>
  404d14:	91214000 	add	x0, x0, #0x850
  404d18:	97fff592 	bl	402360 <puts@plt>
  404d1c:	b9400ae0 	ldr	w0, [x23, #8]
  404d20:	36000140 	tbz	w0, #0, 404d48 <usage+0xe8>
  404d24:	d0000020 	adrp	x0, 40a000 <soxi1+0x330>
  404d28:	91220000 	add	x0, x0, #0x880
  404d2c:	97fff58d 	bl	402360 <puts@plt>
  404d30:	d0000020 	adrp	x0, 40a000 <soxi1+0x330>
  404d34:	9122a000 	add	x0, x0, #0x8a8
  404d38:	97fff58a 	bl	402360 <puts@plt>
  404d3c:	d0000020 	adrp	x0, 40a000 <soxi1+0x330>
  404d40:	9123e000 	add	x0, x0, #0x8f8
  404d44:	97fff587 	bl	402360 <puts@plt>
  404d48:	90000054 	adrp	x20, 40c000 <__dso_handle+0x1fa8>
  404d4c:	91386294 	add	x20, x20, #0xe18
  404d50:	91008293 	add	x19, x20, #0x20
  404d54:	9102e295 	add	x21, x20, #0xb8
  404d58:	f8408660 	ldr	x0, [x19], #8
  404d5c:	97fff581 	bl	402360 <puts@plt>
  404d60:	eb15027f 	cmp	x19, x21
  404d64:	54ffffa1 	b.ne	404d58 <usage+0xf8>  // b.any
  404d68:	b9400ae0 	ldr	w0, [x23, #8]
  404d6c:	37080220 	tbnz	w0, #1, 404db0 <usage+0x150>
  404d70:	371002a0 	tbnz	w0, #2, 404dc4 <usage+0x164>
  404d74:	9102e293 	add	x19, x20, #0xb8
  404d78:	91080294 	add	x20, x20, #0x200
  404d7c:	d503201f 	nop
  404d80:	f8408660 	ldr	x0, [x19], #8
  404d84:	97fff577 	bl	402360 <puts@plt>
  404d88:	eb14027f 	cmp	x19, x20
  404d8c:	54ffffa1 	b.ne	404d80 <usage+0x120>  // b.any
  404d90:	97fffd84 	bl	4043a0 <display_supported_formats>
  404d94:	97fffd53 	bl	4042e0 <display_supported_effects>
  404d98:	d0000020 	adrp	x0, 40a000 <soxi1+0x330>
  404d9c:	91262000 	add	x0, x0, #0x988
  404da0:	97fff570 	bl	402360 <puts@plt>
  404da4:	f10002df 	cmp	x22, #0x0
  404da8:	1a9f07e0 	cset	w0, ne  // ne = any
  404dac:	97fff6dd 	bl	402920 <exit@plt>
  404db0:	d0000020 	adrp	x0, 40a000 <soxi1+0x330>
  404db4:	91252000 	add	x0, x0, #0x948
  404db8:	97fff56a 	bl	402360 <puts@plt>
  404dbc:	b9400ae0 	ldr	w0, [x23, #8]
  404dc0:	3617fda0 	tbz	w0, #2, 404d74 <usage+0x114>
  404dc4:	d0000020 	adrp	x0, 40a000 <soxi1+0x330>
  404dc8:	91272000 	add	x0, x0, #0x9c8
  404dcc:	97fff565 	bl	402360 <puts@plt>
  404dd0:	17ffffe9 	b	404d74 <usage+0x114>
  404dd4:	900000f3 	adrp	x19, 420000 <fputs@GLIBC_2.17>
  404dd8:	f9424e60 	ldr	x0, [x19, #1176]
  404ddc:	97ffff41 	bl	404ae0 <display_SoX_version>
  404de0:	f9424e61 	ldr	x1, [x19, #1176]
  404de4:	52800140 	mov	w0, #0xa                   	// #10
  404de8:	97fff58e 	bl	402420 <putc@plt>
  404dec:	17ffffa9 	b	404c90 <usage+0x30>

0000000000404df0 <add_file>:
  404df0:	a9bd7bfd 	stp	x29, x30, [sp, #-48]!
  404df4:	910003fd 	mov	x29, sp
  404df8:	a90153f3 	stp	x19, x20, [sp, #16]
  404dfc:	aa0103f3 	mov	x19, x1
  404e00:	f90013f5 	str	x21, [sp, #32]
  404e04:	aa0003f5 	mov	x21, x0
  404e08:	d2802a00 	mov	x0, #0x150                 	// #336
  404e0c:	97fff679 	bl	4027f0 <lsx_malloc@plt>
  404e10:	aa1503e1 	mov	x1, x21
  404e14:	aa0003f4 	mov	x20, x0
  404e18:	d2802a02 	mov	x2, #0x150                 	// #336
  404e1c:	97fff539 	bl	402300 <memcpy@plt>
  404e20:	b40002d3 	cbz	x19, 404e78 <add_file+0x88>
  404e24:	aa1303e0 	mov	x0, x19
  404e28:	900000f3 	adrp	x19, 420000 <fputs@GLIBC_2.17>
  404e2c:	9112c273 	add	x19, x19, #0x4b0
  404e30:	97fff60c 	bl	402660 <lsx_strdup@plt>
  404e34:	f9000280 	str	x0, [x20]
  404e38:	f941ae61 	ldr	x1, [x19, #856]
  404e3c:	f941b660 	ldr	x0, [x19, #872]
  404e40:	91000421 	add	x1, x1, #0x1
  404e44:	d37df021 	lsl	x1, x1, #3
  404e48:	97fff542 	bl	402350 <lsx_realloc@plt>
  404e4c:	aa0003e1 	mov	x1, x0
  404e50:	f941ae62 	ldr	x2, [x19, #856]
  404e54:	52800000 	mov	w0, #0x0                   	// #0
  404e58:	f94013f5 	ldr	x21, [sp, #32]
  404e5c:	91000443 	add	x3, x2, #0x1
  404e60:	f8227834 	str	x20, [x1, x2, lsl #3]
  404e64:	f901ae63 	str	x3, [x19, #856]
  404e68:	f901b661 	str	x1, [x19, #872]
  404e6c:	a94153f3 	ldp	x19, x20, [sp, #16]
  404e70:	a8c37bfd 	ldp	x29, x30, [sp], #48
  404e74:	d65f03c0 	ret
  404e78:	d0000020 	adrp	x0, 40a000 <soxi1+0x330>
  404e7c:	91284000 	add	x0, x0, #0xa10
  404e80:	97ffff78 	bl	404c60 <usage>

0000000000404e84 <output_flow>:
  404e84:	a9bd7bfd 	stp	x29, x30, [sp, #-48]!
  404e88:	900000e2 	adrp	x2, 420000 <fputs@GLIBC_2.17>
  404e8c:	910003fd 	mov	x29, sp
  404e90:	b943cc42 	ldr	w2, [x2, #972]
  404e94:	a90153f3 	stp	x19, x20, [sp, #16]
  404e98:	aa0303f4 	mov	x20, x3
  404e9c:	f90013f5 	str	x21, [sp, #32]
  404ea0:	35000362 	cbnz	w2, 404f0c <output_flow+0x88>
  404ea4:	900000f3 	adrp	x19, 420000 <fputs@GLIBC_2.17>
  404ea8:	9112c273 	add	x19, x19, #0x4b0
  404eac:	f900009f 	str	xzr, [x4]
  404eb0:	d2800004 	mov	x4, #0x0                   	// #0
  404eb4:	f9400282 	ldr	x2, [x20]
  404eb8:	b50006c2 	cbnz	x2, 404f90 <output_flow+0x10c>
  404ebc:	f941ae60 	ldr	x0, [x19, #856]
  404ec0:	eb04005f 	cmp	x2, x4
  404ec4:	f941b663 	ldr	x3, [x19, #872]
  404ec8:	1a9f07e4 	cset	w4, ne  // ne = any
  404ecc:	f941c261 	ldr	x1, [x19, #896]
  404ed0:	b9038a64 	str	w4, [x19, #904]
  404ed4:	8b000c60 	add	x0, x3, x0, lsl #3
  404ed8:	52800015 	mov	w21, #0x0                   	// #0
  404edc:	f85f8000 	ldur	x0, [x0, #-8]
  404ee0:	f9409c14 	ldr	x20, [x0, #312]
  404ee4:	b9401280 	ldr	w0, [x20, #16]
  404ee8:	9ac00842 	udiv	x2, x2, x0
  404eec:	8b010042 	add	x2, x2, x1
  404ef0:	f901c262 	str	x2, [x19, #896]
  404ef4:	54000a41 	b.ne	40503c <output_flow+0x1b8>  // b.any
  404ef8:	2a1503e0 	mov	w0, w21
  404efc:	a94153f3 	ldp	x19, x20, [sp, #16]
  404f00:	f94013f5 	ldr	x21, [sp, #32]
  404f04:	a8c37bfd 	ldp	x29, x30, [sp], #48
  404f08:	d65f03c0 	ret
  404f0c:	f940006a 	ldr	x10, [x3]
  404f10:	900000f3 	adrp	x19, 420000 <fputs@GLIBC_2.17>
  404f14:	9112c273 	add	x19, x19, #0x4b0
  404f18:	b4fffcaa 	cbz	x10, 404eac <output_flow+0x28>
  404f1c:	910de266 	add	x6, x19, #0x378
  404f20:	b9401003 	ldr	w3, [x0, #16]
  404f24:	9100102c 	add	x12, x1, #0x4
  404f28:	d2800005 	mov	x5, #0x0                   	// #0
  404f2c:	2a0303eb 	mov	w11, w3
  404f30:	297f24c2 	ldp	w2, w9, [x6, #-8]
  404f34:	294020c0 	ldp	w0, w8, [x6]
  404f38:	7100047f 	cmp	w3, #0x1
  404f3c:	540003c9 	b.ls	404fb4 <output_flow+0x130>  // b.plast
  404f40:	b8657827 	ldr	w7, [x1, x5, lsl #2]
  404f44:	b8657986 	ldr	w6, [x12, x5, lsl #2]
  404f48:	8b0b00a5 	add	x5, x5, x11
  404f4c:	6b07005f 	cmp	w2, w7
  404f50:	1a87a042 	csel	w2, w2, w7, ge  // ge = tcont
  404f54:	6b07001f 	cmp	w0, w7
  404f58:	1a87d000 	csel	w0, w0, w7, le
  404f5c:	6b06013f 	cmp	w9, w6
  404f60:	1a86a129 	csel	w9, w9, w6, ge  // ge = tcont
  404f64:	6b06011f 	cmp	w8, w6
  404f68:	1a86d108 	csel	w8, w8, w6, le
  404f6c:	eb05015f 	cmp	x10, x5
  404f70:	54fffe88 	b.hi	404f40 <output_flow+0xbc>  // b.pmore
  404f74:	910de263 	add	x3, x19, #0x378
  404f78:	293f2462 	stp	w2, w9, [x3, #-8]
  404f7c:	29002060 	stp	w0, w8, [x3]
  404f80:	f900009f 	str	xzr, [x4]
  404f84:	d2800004 	mov	x4, #0x0                   	// #0
  404f88:	f9400282 	ldr	x2, [x20]
  404f8c:	b4fff982 	cbz	x2, 404ebc <output_flow+0x38>
  404f90:	f941ae60 	ldr	x0, [x19, #856]
  404f94:	f941b663 	ldr	x3, [x19, #872]
  404f98:	8b000c60 	add	x0, x3, x0, lsl #3
  404f9c:	f85f8000 	ldur	x0, [x0, #-8]
  404fa0:	f9409c00 	ldr	x0, [x0, #312]
  404fa4:	97fff597 	bl	402600 <sox_write@plt>
  404fa8:	aa0003e2 	mov	x2, x0
  404fac:	f9400284 	ldr	x4, [x20]
  404fb0:	17ffffc3 	b	404ebc <output_flow+0x38>
  404fb4:	d2800006 	mov	x6, #0x0                   	// #0
  404fb8:	54000201 	b.ne	404ff8 <output_flow+0x174>  // b.any
  404fbc:	d503201f 	nop
  404fc0:	b8667825 	ldr	w5, [x1, x6, lsl #2]
  404fc4:	910004c6 	add	x6, x6, #0x1
  404fc8:	6b05005f 	cmp	w2, w5
  404fcc:	1a85a042 	csel	w2, w2, w5, ge  // ge = tcont
  404fd0:	6b05001f 	cmp	w0, w5
  404fd4:	1a85d000 	csel	w0, w0, w5, le
  404fd8:	eb0a00df 	cmp	x6, x10
  404fdc:	54ffff23 	b.cc	404fc0 <output_flow+0x13c>  // b.lo, b.ul, b.last
  404fe0:	910de263 	add	x3, x19, #0x378
  404fe4:	2a0203e9 	mov	w9, w2
  404fe8:	2a0003e8 	mov	w8, w0
  404fec:	293f2462 	stp	w2, w9, [x3, #-8]
  404ff0:	29002060 	stp	w0, w8, [x3]
  404ff4:	17ffffe3 	b	404f80 <output_flow+0xfc>
  404ff8:	b8657823 	ldr	w3, [x1, x5, lsl #2]
  404ffc:	8b0b00a5 	add	x5, x5, x11
  405000:	6b03005f 	cmp	w2, w3
  405004:	1a83a042 	csel	w2, w2, w3, ge  // ge = tcont
  405008:	6b03001f 	cmp	w0, w3
  40500c:	1a83d000 	csel	w0, w0, w3, le
  405010:	eb05015f 	cmp	x10, x5
  405014:	54fffe69 	b.ls	404fe0 <output_flow+0x15c>  // b.plast
  405018:	b8657823 	ldr	w3, [x1, x5, lsl #2]
  40501c:	8b0b00a5 	add	x5, x5, x11
  405020:	6b03005f 	cmp	w2, w3
  405024:	1a83a042 	csel	w2, w2, w3, ge  // ge = tcont
  405028:	6b03001f 	cmp	w0, w3
  40502c:	1a83d000 	csel	w0, w0, w3, le
  405030:	eb05015f 	cmp	x10, x5
  405034:	54fffe28 	b.hi	404ff8 <output_flow+0x174>  // b.pmore
  405038:	17ffffea 	b	404fe0 <output_flow+0x15c>
  40503c:	b9413a93 	ldr	w19, [x20, #312]
  405040:	12800015 	mov	w21, #0xffffffff            	// #-1
  405044:	34fff5b3 	cbz	w19, 404ef8 <output_flow+0x74>
  405048:	97fff5b2 	bl	402710 <sox_get_globals@plt>
  40504c:	aa0003e2 	mov	x2, x0
  405050:	b0000021 	adrp	x1, 40a000 <soxi1+0x330>
  405054:	910b0021 	add	x1, x1, #0x2c0
  405058:	2a1303e0 	mov	w0, w19
  40505c:	f9002041 	str	x1, [x2, #64]
  405060:	97fff564 	bl	4025f0 <sox_strerror@plt>
  405064:	aa0003e3 	mov	x3, x0
  405068:	f9400281 	ldr	x1, [x20]
  40506c:	9104f282 	add	x2, x20, #0x13c
  405070:	b0000020 	adrp	x0, 40a000 <soxi1+0x330>
  405074:	9128a000 	add	x0, x0, #0xa28
  405078:	97fff4f2 	bl	402440 <lsx_fail_impl@plt>
  40507c:	17ffff9f 	b	404ef8 <output_flow+0x74>

0000000000405080 <get_termwidth>:
  405080:	a9be7bfd 	stp	x29, x30, [sp, #-32]!
  405084:	d00000c0 	adrp	x0, 41f000 <__FRAME_END__+0x10b24>
  405088:	91370000 	add	x0, x0, #0xdc0
  40508c:	910003fd 	mov	x29, sp
  405090:	f9400001 	ldr	x1, [x0]
  405094:	f9000fe1 	str	x1, [sp, #24]
  405098:	d2800001 	mov	x1, #0x0                   	// #0
  40509c:	910043e2 	add	x2, sp, #0x10
  4050a0:	d28a8261 	mov	x1, #0x5413                	// #21523
  4050a4:	52800040 	mov	w0, #0x2                   	// #2
  4050a8:	97fff55e 	bl	402620 <ioctl@plt>
  4050ac:	35000080 	cbnz	w0, 4050bc <get_termwidth+0x3c>
  4050b0:	f00000c0 	adrp	x0, 420000 <fputs@GLIBC_2.17>
  4050b4:	794027e1 	ldrh	w1, [sp, #18]
  4050b8:	b903d001 	str	w1, [x0, #976]
  4050bc:	d00000c0 	adrp	x0, 41f000 <__FRAME_END__+0x10b24>
  4050c0:	f9400fe2 	ldr	x2, [sp, #24]
  4050c4:	f946e001 	ldr	x1, [x0, #3520]
  4050c8:	eb010042 	subs	x2, x2, x1
  4050cc:	d2800001 	mov	x1, #0x0                   	// #0
  4050d0:	54000061 	b.ne	4050dc <get_termwidth+0x5c>  // b.any
  4050d4:	a8c27bfd 	ldp	x29, x30, [sp], #32
  4050d8:	d65f03c0 	ret
  4050dc:	97fff4c9 	bl	402400 <__stack_chk_fail@plt>

00000000004050e0 <cleanup>:
  4050e0:	a9b47bfd 	stp	x29, x30, [sp, #-192]!
  4050e4:	d00000c0 	adrp	x0, 41f000 <__FRAME_END__+0x10b24>
  4050e8:	91370000 	add	x0, x0, #0xdc0
  4050ec:	910003fd 	mov	x29, sp
  4050f0:	a90153f3 	stp	x19, x20, [sp, #16]
  4050f4:	a9025bf5 	stp	x21, x22, [sp, #32]
  4050f8:	f00000d5 	adrp	x21, 420000 <fputs@GLIBC_2.17>
  4050fc:	9112c2b5 	add	x21, x21, #0x4b0
  405100:	f9400001 	ldr	x1, [x0]
  405104:	f9005fe1 	str	x1, [sp, #184]
  405108:	d2800001 	mov	x1, #0x0                   	// #0
  40510c:	b94392a1 	ldr	w1, [x21, #912]
  405110:	b9438ea0 	ldr	w0, [x21, #908]
  405114:	2a010000 	orr	w0, w0, w1
  405118:	34000ce0 	cbz	w0, 4052b4 <cleanup+0x1d4>
  40511c:	f941a6b6 	ldr	x22, [x21, #840]
  405120:	f941b6b4 	ldr	x20, [x21, #872]
  405124:	b4000316 	cbz	x22, 405184 <cleanup+0xa4>
  405128:	d2800013 	mov	x19, #0x0                   	// #0
  40512c:	1400000c 	b	40515c <cleanup+0x7c>
  405130:	97fff550 	bl	402670 <sox_close@plt>
  405134:	f941b6b4 	ldr	x20, [x21, #872]
  405138:	f941a6b6 	ldr	x22, [x21, #840]
  40513c:	f8737a80 	ldr	x0, [x20, x19, lsl #3]
  405140:	f9400000 	ldr	x0, [x0]
  405144:	97fff4df 	bl	4024c0 <free@plt>
  405148:	f8737a80 	ldr	x0, [x20, x19, lsl #3]
  40514c:	91000673 	add	x19, x19, #0x1
  405150:	97fff4dc 	bl	4024c0 <free@plt>
  405154:	eb16027f 	cmp	x19, x22
  405158:	54000162 	b.cs	405184 <cleanup+0xa4>  // b.hs, b.nlast
  40515c:	f8737a81 	ldr	x1, [x20, x19, lsl #3]
  405160:	f9409c20 	ldr	x0, [x1, #312]
  405164:	b5fffe60 	cbnz	x0, 405130 <cleanup+0x50>
  405168:	f9400020 	ldr	x0, [x1]
  40516c:	97fff4d5 	bl	4024c0 <free@plt>
  405170:	f8737a80 	ldr	x0, [x20, x19, lsl #3]
  405174:	91000673 	add	x19, x19, #0x1
  405178:	97fff4d2 	bl	4024c0 <free@plt>
  40517c:	eb16027f 	cmp	x19, x22
  405180:	54fffee3 	b.cc	40515c <cleanup+0x7c>  // b.lo, b.ul, b.last
  405184:	f941aea0 	ldr	x0, [x21, #856]
  405188:	b40004a0 	cbz	x0, 40521c <cleanup+0x13c>
  40518c:	d37df000 	lsl	x0, x0, #3
  405190:	d1002000 	sub	x0, x0, #0x8
  405194:	8b000293 	add	x19, x20, x0
  405198:	f8606a81 	ldr	x1, [x20, x0]
  40519c:	f9409c20 	ldr	x0, [x1, #312]
  4051a0:	b4000360 	cbz	x0, 40520c <cleanup+0x12c>
  4051a4:	b9438ea1 	ldr	w1, [x21, #908]
  4051a8:	35000241 	cbnz	w1, 4051f0 <cleanup+0x110>
  4051ac:	b9424801 	ldr	w1, [x0, #584]
  4051b0:	35000201 	cbnz	w1, 4051f0 <cleanup+0x110>
  4051b4:	f9400000 	ldr	x0, [x0]
  4051b8:	9100e3e1 	add	x1, sp, #0x38
  4051bc:	97fff531 	bl	402680 <stat@plt>
  4051c0:	35000120 	cbnz	w0, 4051e4 <cleanup+0x104>
  4051c4:	b9404be0 	ldr	w0, [sp, #72]
  4051c8:	12140c00 	and	w0, w0, #0xf000
  4051cc:	7140201f 	cmp	w0, #0x8, lsl #12
  4051d0:	540000a1 	b.ne	4051e4 <cleanup+0x104>  // b.any
  4051d4:	f9400260 	ldr	x0, [x19]
  4051d8:	f9409c00 	ldr	x0, [x0, #312]
  4051dc:	f9400000 	ldr	x0, [x0]
  4051e0:	97fff51c 	bl	402650 <unlink@plt>
  4051e4:	f9400260 	ldr	x0, [x19]
  4051e8:	f9409c00 	ldr	x0, [x0, #312]
  4051ec:	d503201f 	nop
  4051f0:	97fff520 	bl	402670 <sox_close@plt>
  4051f4:	f941aea0 	ldr	x0, [x21, #856]
  4051f8:	f941b6b4 	ldr	x20, [x21, #872]
  4051fc:	d37df000 	lsl	x0, x0, #3
  405200:	d1002000 	sub	x0, x0, #0x8
  405204:	8b000293 	add	x19, x20, x0
  405208:	f8606a81 	ldr	x1, [x20, x0]
  40520c:	f9400020 	ldr	x0, [x1]
  405210:	97fff4ac 	bl	4024c0 <free@plt>
  405214:	f9400260 	ldr	x0, [x19]
  405218:	97fff4aa 	bl	4024c0 <free@plt>
  40521c:	aa1403e0 	mov	x0, x20
  405220:	97fff4a8 	bl	4024c0 <free@plt>
  405224:	b94396a0 	ldr	w0, [x21, #916]
  405228:	35000380 	cbnz	w0, 405298 <cleanup+0x1b8>
  40522c:	f941eea0 	ldr	x0, [x21, #984]
  405230:	97fff4a4 	bl	4024c0 <free@plt>
  405234:	97fff537 	bl	402710 <sox_get_globals@plt>
  405238:	f9402400 	ldr	x0, [x0, #72]
  40523c:	97fff4a1 	bl	4024c0 <free@plt>
  405240:	97fff534 	bl	402710 <sox_get_globals@plt>
  405244:	aa0003e1 	mov	x1, x0
  405248:	f941f2a0 	ldr	x0, [x21, #992]
  40524c:	f900243f 	str	xzr, [x1, #72]
  405250:	97fff49c 	bl	4024c0 <free@plt>
  405254:	f941f6a0 	ldr	x0, [x21, #1000]
  405258:	97fff49a 	bl	4024c0 <free@plt>
  40525c:	f941faa0 	ldr	x0, [x21, #1008]
  405260:	97fff498 	bl	4024c0 <free@plt>
  405264:	97fff487 	bl	402480 <sox_quit@plt>
  405268:	52800020 	mov	w0, #0x1                   	// #1
  40526c:	b903faa0 	str	w0, [x21, #1016]
  405270:	d00000c0 	adrp	x0, 41f000 <__FRAME_END__+0x10b24>
  405274:	f9405fe2 	ldr	x2, [sp, #184]
  405278:	f946e001 	ldr	x1, [x0, #3520]
  40527c:	eb010042 	subs	x2, x2, x1
  405280:	d2800001 	mov	x1, #0x0                   	// #0
  405284:	54000381 	b.ne	4052f4 <cleanup+0x214>  // b.any
  405288:	a94153f3 	ldp	x19, x20, [sp, #16]
  40528c:	a9425bf5 	ldp	x21, x22, [sp, #32]
  405290:	a8cc7bfd 	ldp	x29, x30, [sp], #192
  405294:	d65f03c0 	ret
  405298:	f00000c0 	adrp	x0, 420000 <fputs@GLIBC_2.17>
  40529c:	f9424800 	ldr	x0, [x0, #1168]
  4052a0:	97fff45c 	bl	402410 <fileno@plt>
  4052a4:	910e62a2 	add	x2, x21, #0x398
  4052a8:	52800001 	mov	w1, #0x0                   	// #0
  4052ac:	97fff599 	bl	402910 <tcsetattr@plt>
  4052b0:	17ffffdf 	b	40522c <cleanup+0x14c>
  4052b4:	b0000020 	adrp	x0, 40a000 <soxi1+0x330>
  4052b8:	9128e000 	add	x0, x0, #0xa38
  4052bc:	97fff58d 	bl	4028f0 <getenv@plt>
  4052c0:	aa0003f3 	mov	x19, x0
  4052c4:	b4fff2c0 	cbz	x0, 40511c <cleanup+0x3c>
  4052c8:	39400000 	ldrb	w0, [x0]
  4052cc:	34fff280 	cbz	w0, 40511c <cleanup+0x3c>
  4052d0:	97fff510 	bl	402710 <sox_get_globals@plt>
  4052d4:	b0000022 	adrp	x2, 40a000 <soxi1+0x330>
  4052d8:	910b0042 	add	x2, x2, #0x2c0
  4052dc:	b0000023 	adrp	x3, 40a000 <soxi1+0x330>
  4052e0:	f9002002 	str	x2, [x0, #64]
  4052e4:	aa1303e1 	mov	x1, x19
  4052e8:	91292060 	add	x0, x3, #0xa48
  4052ec:	97fff519 	bl	402750 <lsx_report_impl@plt>
  4052f0:	17ffff8b 	b	40511c <cleanup+0x3c>
  4052f4:	97fff443 	bl	402400 <__stack_chk_fail@plt>
  4052f8:	d503201f 	nop
  4052fc:	d503201f 	nop

0000000000405300 <atexit_cleanup>:
  405300:	f00000c0 	adrp	x0, 420000 <fputs@GLIBC_2.17>
  405304:	b948a800 	ldr	w0, [x0, #2216]
  405308:	34000040 	cbz	w0, 405310 <atexit_cleanup+0x10>
  40530c:	d65f03c0 	ret
  405310:	17ffff74 	b	4050e0 <cleanup>

0000000000405314 <enum_option.part.0>:
  405314:	a9bc7bfd 	stp	x29, x30, [sp, #-64]!
  405318:	910003fd 	mov	x29, sp
  40531c:	a90153f3 	stp	x19, x20, [sp, #16]
  405320:	aa0203f4 	mov	x20, x2
  405324:	a9025bf5 	stp	x21, x22, [sp, #32]
  405328:	2a0103f6 	mov	w22, w1
  40532c:	a90363f7 	stp	x23, x24, [sp, #48]
  405330:	aa0003f7 	mov	x23, x0
  405334:	d2800020 	mov	x0, #0x1                   	// #1
  405338:	97fff52e 	bl	4027f0 <lsx_malloc@plt>
  40533c:	3900001f 	strb	wzr, [x0]
  405340:	aa0003f3 	mov	x19, x0
  405344:	f9400280 	ldr	x0, [x20]
  405348:	b4000300 	cbz	x0, 4053a8 <enum_option.part.0+0x94>
  40534c:	b0000038 	adrp	x24, 40a000 <soxi1+0x330>
  405350:	91298318 	add	x24, x24, #0xa60
  405354:	d2800035 	mov	x21, #0x1                   	// #1
  405358:	97fff41a 	bl	4023c0 <strlen@plt>
  40535c:	aa0003e3 	mov	x3, x0
  405360:	91000863 	add	x3, x3, #0x2
  405364:	aa1303e0 	mov	x0, x19
  405368:	8b0302b5 	add	x21, x21, x3
  40536c:	aa1503e1 	mov	x1, x21
  405370:	97fff3f8 	bl	402350 <lsx_realloc@plt>
  405374:	aa0003f3 	mov	x19, x0
  405378:	97fff412 	bl	4023c0 <strlen@plt>
  40537c:	8b000261 	add	x1, x19, x0
  405380:	79400304 	ldrh	w4, [x24]
  405384:	91000803 	add	x3, x0, #0x2
  405388:	39400b02 	ldrb	w2, [x24, #2]
  40538c:	78206a64 	strh	w4, [x19, x0]
  405390:	8b030260 	add	x0, x19, x3
  405394:	39000822 	strb	w2, [x1, #2]
  405398:	f9400281 	ldr	x1, [x20]
  40539c:	97fff47d 	bl	402590 <strcpy@plt>
  4053a0:	f8410e80 	ldr	x0, [x20, #16]!
  4053a4:	b5fffda0 	cbnz	x0, 405358 <enum_option.part.0+0x44>
  4053a8:	97fff4da 	bl	402710 <sox_get_globals@plt>
  4053ac:	937b7ed6 	sbfiz	x22, x22, #5, #32
  4053b0:	f0000021 	adrp	x1, 40c000 <__dso_handle+0x1fa8>
  4053b4:	91386021 	add	x1, x1, #0xe18
  4053b8:	91080021 	add	x1, x1, #0x200
  4053bc:	b0000024 	adrp	x4, 40a000 <soxi1+0x330>
  4053c0:	910b0084 	add	x4, x4, #0x2c0
  4053c4:	aa1703e2 	mov	x2, x23
  4053c8:	91000a63 	add	x3, x19, #0x2
  4053cc:	f9002004 	str	x4, [x0, #64]
  4053d0:	f8766821 	ldr	x1, [x1, x22]
  4053d4:	b0000020 	adrp	x0, 40a000 <soxi1+0x330>
  4053d8:	9129a000 	add	x0, x0, #0xa68
  4053dc:	97fff419 	bl	402440 <lsx_fail_impl@plt>
  4053e0:	aa1303e0 	mov	x0, x19
  4053e4:	97fff437 	bl	4024c0 <free@plt>
  4053e8:	52800020 	mov	w0, #0x1                   	// #1
  4053ec:	97fff54d 	bl	402920 <exit@plt>

00000000004053f0 <overwrite_permitted>:
  4053f0:	a9ba7bfd 	stp	x29, x30, [sp, #-96]!
  4053f4:	d00000c1 	adrp	x1, 41f000 <__FRAME_END__+0x10b24>
  4053f8:	91370021 	add	x1, x1, #0xdc0
  4053fc:	910003fd 	mov	x29, sp
  405400:	a90153f3 	stp	x19, x20, [sp, #16]
  405404:	aa0003f4 	mov	x20, x0
  405408:	f00000d3 	adrp	x19, 420000 <fputs@GLIBC_2.17>
  40540c:	a9025bf5 	stp	x21, x22, [sp, #32]
  405410:	9112c273 	add	x19, x19, #0x4b0
  405414:	f9400020 	ldr	x0, [x1]
  405418:	f9002fe0 	str	x0, [sp, #88]
  40541c:	d2800000 	mov	x0, #0x0                   	// #0
  405420:	97fff4bc 	bl	402710 <sox_get_globals@plt>
  405424:	b943fe75 	ldr	w21, [x19, #1020]
  405428:	b0000021 	adrp	x1, 40a000 <soxi1+0x330>
  40542c:	910b0021 	add	x1, x1, #0x2c0
  405430:	f9002001 	str	x1, [x0, #64]
  405434:	340005f5 	cbz	w21, 4054f0 <overwrite_permitted+0x100>
  405438:	aa1403e1 	mov	x1, x20
  40543c:	b0000020 	adrp	x0, 40a000 <soxi1+0x330>
  405440:	912a8000 	add	x0, x0, #0xaa0
  405444:	97fff413 	bl	402490 <lsx_warn_impl@plt>
  405448:	b9440260 	ldr	w0, [x19, #1024]
  40544c:	340003e0 	cbz	w0, 4054c8 <overwrite_permitted+0xd8>
  405450:	f00000d6 	adrp	x22, 420000 <fputs@GLIBC_2.17>
  405454:	b0000035 	adrp	x21, 40a000 <soxi1+0x330>
  405458:	911282d6 	add	x22, x22, #0x4a0
  40545c:	912b82b5 	add	x21, x21, #0xae0
  405460:	a90363f7 	stp	x23, x24, [sp, #48]
  405464:	b0000037 	adrp	x23, 40a000 <soxi1+0x330>
  405468:	912b02f7 	add	x23, x23, #0xac0
  40546c:	f90023f9 	str	x25, [sp, #64]
  405470:	b0000039 	adrp	x25, 40a000 <soxi1+0x330>
  405474:	912bc339 	add	x25, x25, #0xaf0
  405478:	f9400262 	ldr	x2, [x19]
  40547c:	aa1403e3 	mov	x3, x20
  405480:	f94002c0 	ldr	x0, [x22]
  405484:	aa1703e1 	mov	x1, x23
  405488:	97fff3d2 	bl	4023d0 <fprintf@plt>
  40548c:	91015fe1 	add	x1, sp, #0x57
  405490:	aa1503e0 	mov	x0, x21
  405494:	97fff433 	bl	402560 <__isoc99_scanf@plt>
  405498:	7100041f 	cmp	w0, #0x1
  40549c:	54fffee1 	b.ne	405478 <overwrite_permitted+0x88>  // b.any
  4054a0:	39415ff8 	ldrb	w24, [sp, #87]
  4054a4:	aa1903e0 	mov	x0, x25
  4054a8:	2a1803e1 	mov	w1, w24
  4054ac:	97fff411 	bl	4024f0 <strchr@plt>
  4054b0:	b4fffe40 	cbz	x0, 405478 <overwrite_permitted+0x88>
  4054b4:	121a7b18 	and	w24, w24, #0xffffffdf
  4054b8:	7101671f 	cmp	w24, #0x59
  4054bc:	a94363f7 	ldp	x23, x24, [sp, #48]
  4054c0:	1a9f17e0 	cset	w0, eq  // eq = none
  4054c4:	f94023f9 	ldr	x25, [sp, #64]
  4054c8:	d00000c1 	adrp	x1, 41f000 <__FRAME_END__+0x10b24>
  4054cc:	f9402fe3 	ldr	x3, [sp, #88]
  4054d0:	f946e022 	ldr	x2, [x1, #3520]
  4054d4:	eb020063 	subs	x3, x3, x2
  4054d8:	d2800002 	mov	x2, #0x0                   	// #0
  4054dc:	54000161 	b.ne	405508 <overwrite_permitted+0x118>  // b.any
  4054e0:	a94153f3 	ldp	x19, x20, [sp, #16]
  4054e4:	a9425bf5 	ldp	x21, x22, [sp, #32]
  4054e8:	a8c67bfd 	ldp	x29, x30, [sp], #96
  4054ec:	d65f03c0 	ret
  4054f0:	aa1403e1 	mov	x1, x20
  4054f4:	b0000020 	adrp	x0, 40a000 <soxi1+0x330>
  4054f8:	912a2000 	add	x0, x0, #0xa88
  4054fc:	97fff495 	bl	402750 <lsx_report_impl@plt>
  405500:	52800020 	mov	w0, #0x1                   	// #1
  405504:	17fffff1 	b	4054c8 <overwrite_permitted+0xd8>
  405508:	a90363f7 	stp	x23, x24, [sp, #48]
  40550c:	f90023f9 	str	x25, [sp, #64]
  405510:	97fff3bc 	bl	402400 <__stack_chk_fail@plt>

0000000000405514 <parse_effects>:
  405514:	a9b97bfd 	stp	x29, x30, [sp, #-112]!
  405518:	f00000c3 	adrp	x3, 420000 <fputs@GLIBC_2.17>
  40551c:	910003fd 	mov	x29, sp
  405520:	a90573fb 	stp	x27, x28, [sp, #80]
  405524:	9112c07b 	add	x27, x3, #0x4b0
  405528:	a9025bf5 	stp	x21, x22, [sp, #32]
  40552c:	b9443b75 	ldr	w21, [x27, #1080]
  405530:	6b15001f 	cmp	w0, w21
  405534:	54000c8d 	b.le	4056c4 <parse_effects+0x1b0>
  405538:	aa0103f6 	mov	x22, x1
  40553c:	a90153f3 	stp	x19, x20, [sp, #16]
  405540:	a90363f7 	stp	x23, x24, [sp, #48]
  405544:	2a0003f8 	mov	w24, w0
  405548:	a9046bf9 	stp	x25, x26, [sp, #64]
  40554c:	b0000039 	adrp	x25, 40a000 <soxi1+0x330>
  405550:	b000003a 	adrp	x26, 40a000 <soxi1+0x330>
  405554:	912be339 	add	x25, x25, #0xaf8
  405558:	912c035a 	add	x26, x26, #0xb00
  40555c:	1400000a 	b	405584 <parse_effects+0x70>
  405560:	39400680 	ldrb	w0, [x20, #1]
  405564:	35000280 	cbnz	w0, 4055b4 <parse_effects+0xa0>
  405568:	f9419f60 	ldr	x0, [x27, #824]
  40556c:	f87c6800 	ldr	x0, [x0, x28]
  405570:	b50010a0 	cbnz	x0, 405784 <parse_effects+0x270>
  405574:	110006b5 	add	w21, w21, #0x1
  405578:	b9043b75 	str	w21, [x27, #1080]
  40557c:	6b15031f 	cmp	w24, w21
  405580:	540009cd 	b.le	4056b8 <parse_effects+0x1a4>
  405584:	f9419b73 	ldr	x19, [x27, #816]
  405588:	f9419f61 	ldr	x1, [x27, #824]
  40558c:	f941ab60 	ldr	x0, [x27, #848]
  405590:	d37df27c 	lsl	x28, x19, #3
  405594:	f8737837 	ldr	x23, [x1, x19, lsl #3]
  405598:	f8737814 	ldr	x20, [x0, x19, lsl #3]
  40559c:	eb17029f 	cmp	x20, x23
  4055a0:	54001000 	b.eq	4057a0 <parse_effects+0x28c>  // b.none
  4055a4:	f875dad4 	ldr	x20, [x22, w21, sxtw #3]
  4055a8:	39400280 	ldrb	w0, [x20]
  4055ac:	7100e81f 	cmp	w0, #0x3a
  4055b0:	54fffd80 	b.eq	405560 <parse_effects+0x4c>  // b.none
  4055b4:	aa1903e1 	mov	x1, x25
  4055b8:	aa1403e0 	mov	x0, x20
  4055bc:	97fff4a1 	bl	402840 <strcmp@plt>
  4055c0:	35000c60 	cbnz	w0, 40574c <parse_effects+0x238>
  4055c4:	f9419f60 	ldr	x0, [x27, #824]
  4055c8:	f87c6800 	ldr	x0, [x0, x28]
  4055cc:	b5000d20 	cbnz	x0, 405770 <parse_effects+0x25c>
  4055d0:	52800020 	mov	w0, #0x1                   	// #1
  4055d4:	b9006fe0 	str	w0, [sp, #108]
  4055d8:	b9045360 	str	w0, [x27, #1104]
  4055dc:	f941a361 	ldr	x1, [x27, #832]
  4055e0:	aa1403e0 	mov	x0, x20
  4055e4:	d37beaf7 	lsl	x23, x23, #5
  4055e8:	d2800013 	mov	x19, #0x0                   	// #0
  4055ec:	f87c6834 	ldr	x20, [x1, x28]
  4055f0:	97fff41c 	bl	402660 <lsx_strdup@plt>
  4055f4:	b9443b75 	ldr	w21, [x27, #1080]
  4055f8:	f8376a80 	str	x0, [x20, x23]
  4055fc:	110006b5 	add	w21, w21, #0x1
  405600:	b9043b75 	str	w21, [x27, #1080]
  405604:	52800000 	mov	w0, #0x0                   	// #0
  405608:	6b1802bf 	cmp	w21, w24
  40560c:	54000300 	b.eq	40566c <parse_effects+0x158>  // b.none
  405610:	93407eb4 	sxtw	x20, w21
  405614:	8b130280 	add	x0, x20, x19
  405618:	f8607adc 	ldr	x28, [x22, x0, lsl #3]
  40561c:	aa1c03e0 	mov	x0, x28
  405620:	97fff3c8 	bl	402540 <sox_find_effect@plt>
  405624:	b5000220 	cbnz	x0, 405668 <parse_effects+0x154>
  405628:	b400057c 	cbz	x28, 4056d4 <parse_effects+0x1c0>
  40562c:	aa1c03e1 	mov	x1, x28
  405630:	aa1903e0 	mov	x0, x25
  405634:	97fff483 	bl	402840 <strcmp@plt>
  405638:	34000180 	cbz	w0, 405668 <parse_effects+0x154>
  40563c:	aa1c03e1 	mov	x1, x28
  405640:	aa1a03e0 	mov	x0, x26
  405644:	97fff47f 	bl	402840 <strcmp@plt>
  405648:	34000100 	cbz	w0, 405668 <parse_effects+0x154>
  40564c:	39400380 	ldrb	w0, [x28]
  405650:	52800741 	mov	w1, #0x3a                  	// #58
  405654:	6b00003f 	cmp	w1, w0
  405658:	540003e1 	b.ne	4056d4 <parse_effects+0x1c0>  // b.any
  40565c:	39400780 	ldrb	w0, [x28, #1]
  405660:	350003a0 	cbnz	w0, 4056d4 <parse_effects+0x1c0>
  405664:	d503201f 	nop
  405668:	2a1303e0 	mov	w0, w19
  40566c:	f9419b61 	ldr	x1, [x27, #816]
  405670:	0b1302b5 	add	w21, w21, w19
  405674:	f941a362 	ldr	x2, [x27, #832]
  405678:	f9419f65 	ldr	x5, [x27, #824]
  40567c:	f8617844 	ldr	x4, [x2, x1, lsl #3]
  405680:	f86178a2 	ldr	x2, [x5, x1, lsl #3]
  405684:	8b170084 	add	x4, x4, x23
  405688:	91000442 	add	x2, x2, #0x1
  40568c:	b9000880 	str	w0, [x4, #8]
  405690:	b9406fe0 	ldr	w0, [sp, #108]
  405694:	b9043b75 	str	w21, [x27, #1080]
  405698:	f82178a2 	str	x2, [x5, x1, lsl #3]
  40569c:	34fff700 	cbz	w0, 40557c <parse_effects+0x68>
  4056a0:	91000421 	add	x1, x1, #0x1
  4056a4:	f9019b61 	str	x1, [x27, #816]
  4056a8:	97fffae7 	bl	404244 <add_eff_chain>
  4056ac:	b9443b75 	ldr	w21, [x27, #1080]
  4056b0:	6b15031f 	cmp	w24, w21
  4056b4:	54fff68c 	b.gt	405584 <parse_effects+0x70>
  4056b8:	a94153f3 	ldp	x19, x20, [sp, #16]
  4056bc:	a94363f7 	ldp	x23, x24, [sp, #48]
  4056c0:	a9446bf9 	ldp	x25, x26, [sp, #64]
  4056c4:	a9425bf5 	ldp	x21, x22, [sp, #32]
  4056c8:	a94573fb 	ldp	x27, x28, [sp, #80]
  4056cc:	a8c77bfd 	ldp	x29, x30, [sp], #112
  4056d0:	d65f03c0 	ret
  4056d4:	f9419b61 	ldr	x1, [x27, #816]
  4056d8:	f941a360 	ldr	x0, [x27, #832]
  4056dc:	f8617815 	ldr	x21, [x0, x1, lsl #3]
  4056e0:	8b1702b5 	add	x21, x21, x23
  4056e4:	f9400ea1 	ldr	x1, [x21, #24]
  4056e8:	eb13003f 	cmp	x1, x19
  4056ec:	54000189 	b.ls	40571c <parse_effects+0x208>  // b.plast
  4056f0:	8b130280 	add	x0, x20, x19
  4056f4:	f9400ab4 	ldr	x20, [x21, #16]
  4056f8:	f8607ac0 	ldr	x0, [x22, x0, lsl #3]
  4056fc:	97fff3d9 	bl	402660 <lsx_strdup@plt>
  405700:	b9443b75 	ldr	w21, [x27, #1080]
  405704:	f8337a80 	str	x0, [x20, x19, lsl #3]
  405708:	91000673 	add	x19, x19, #0x1
  40570c:	4b150300 	sub	w0, w24, w21
  405710:	eb20c27f 	cmp	x19, w0, sxtw
  405714:	54fff7e3 	b.cc	405610 <parse_effects+0xfc>  // b.lo, b.ul, b.last
  405718:	17ffffd4 	b	405668 <parse_effects+0x154>
  40571c:	f9400aa0 	ldr	x0, [x21, #16]
  405720:	91002021 	add	x1, x1, #0x8
  405724:	f9000ea1 	str	x1, [x21, #24]
  405728:	d2800102 	mov	x2, #0x8                   	// #8
  40572c:	97fff2fd 	bl	402320 <lsx_realloc_array@plt>
  405730:	b9843b74 	ldrsw	x20, [x27, #1080]
  405734:	f9000aa0 	str	x0, [x21, #16]
  405738:	f9419b61 	ldr	x1, [x27, #816]
  40573c:	f941a360 	ldr	x0, [x27, #832]
  405740:	f8617815 	ldr	x21, [x0, x1, lsl #3]
  405744:	8b1702b5 	add	x21, x21, x23
  405748:	17ffffea 	b	4056f0 <parse_effects+0x1dc>
  40574c:	aa1a03e1 	mov	x1, x26
  405750:	aa1403e0 	mov	x0, x20
  405754:	97fff43b 	bl	402840 <strcmp@plt>
  405758:	35000200 	cbnz	w0, 405798 <parse_effects+0x284>
  40575c:	f9419f60 	ldr	x0, [x27, #824]
  405760:	52800021 	mov	w1, #0x1                   	// #1
  405764:	b9006fe1 	str	w1, [sp, #108]
  405768:	f87c6800 	ldr	x0, [x0, x28]
  40576c:	b4fff380 	cbz	x0, 4055dc <parse_effects+0xc8>
  405770:	91000673 	add	x19, x19, #0x1
  405774:	f9019b73 	str	x19, [x27, #816]
  405778:	97fffab3 	bl	404244 <add_eff_chain>
  40577c:	b9443b75 	ldr	w21, [x27, #1080]
  405780:	17ffff7f 	b	40557c <parse_effects+0x68>
  405784:	91000673 	add	x19, x19, #0x1
  405788:	f9019b73 	str	x19, [x27, #816]
  40578c:	97fffaae 	bl	404244 <add_eff_chain>
  405790:	b9443b75 	ldr	w21, [x27, #1080]
  405794:	17ffff78 	b	405574 <parse_effects+0x60>
  405798:	b9006fff 	str	wzr, [sp, #108]
  40579c:	17ffff90 	b	4055dc <parse_effects+0xc8>
  4057a0:	f941a375 	ldr	x21, [x27, #832]
  4057a4:	910022e1 	add	x1, x23, #0x8
  4057a8:	f8337801 	str	x1, [x0, x19, lsl #3]
  4057ac:	d2800402 	mov	x2, #0x20                  	// #32
  4057b0:	f8737aa0 	ldr	x0, [x21, x19, lsl #3]
  4057b4:	97fff2db 	bl	402320 <lsx_realloc_array@plt>
  4057b8:	f8337aa0 	str	x0, [x21, x19, lsl #3]
  4057bc:	f9419b73 	ldr	x19, [x27, #816]
  4057c0:	f941ab60 	ldr	x0, [x27, #848]
  4057c4:	d37df27c 	lsl	x28, x19, #3
  4057c8:	8b1c0004 	add	x4, x0, x28
  4057cc:	f8737800 	ldr	x0, [x0, x19, lsl #3]
  4057d0:	eb0002ff 	cmp	x23, x0
  4057d4:	54000162 	b.cs	405800 <parse_effects+0x2ec>  // b.hs, b.nlast
  4057d8:	f941a360 	ldr	x0, [x27, #832]
  4057dc:	f8737800 	ldr	x0, [x0, x19, lsl #3]
  4057e0:	8b141400 	add	x0, x0, x20, lsl #5
  4057e4:	d503201f 	nop
  4057e8:	a9017c1f 	stp	xzr, xzr, [x0, #16]
  4057ec:	91000694 	add	x20, x20, #0x1
  4057f0:	91008000 	add	x0, x0, #0x20
  4057f4:	f9400081 	ldr	x1, [x4]
  4057f8:	eb14003f 	cmp	x1, x20
  4057fc:	54ffff68 	b.hi	4057e8 <parse_effects+0x2d4>  // b.pmore
  405800:	b9443b75 	ldr	w21, [x27, #1080]
  405804:	17ffff68 	b	4055a4 <parse_effects+0x90>
  405808:	d503201f 	nop
  40580c:	d503201f 	nop

0000000000405810 <vu>:
  405810:	a9ba7bfd 	stp	x29, x30, [sp, #-96]!
  405814:	b26a67e1 	mov	x1, #0xffffffc00000        	// #281474972516352
  405818:	f2e83be1 	movk	x1, #0x41df, lsl #48
  40581c:	910003fd 	mov	x29, sp
  405820:	a90153f3 	stp	x19, x20, [sp, #16]
  405824:	f00000d3 	adrp	x19, 420000 <fputs@GLIBC_2.17>
  405828:	9112c273 	add	x19, x19, #0x4b0
  40582c:	8b204a62 	add	x2, x19, w0, uxtw #2
  405830:	2a0003f4 	mov	w20, w0
  405834:	9e670022 	fmov	d2, x1
  405838:	d2f7c001 	mov	x1, #0xbe00000000000000    	// #-4755801206503243776
  40583c:	9e670021 	fmov	d1, x1
  405840:	a9025bf5 	stp	x21, x22, [sp, #32]
  405844:	b9437043 	ldr	w3, [x2, #880]
  405848:	b9437840 	ldr	w0, [x2, #888]
  40584c:	d00000c1 	adrp	x1, 41f000 <__FRAME_END__+0x10b24>
  405850:	fd001be8 	str	d8, [sp, #48]
  405854:	91370021 	add	x1, x1, #0xdc0
  405858:	1e620068 	scvtf	d8, w3
  40585c:	f9400022 	ldr	x2, [x1]
  405860:	f9002fe2 	str	x2, [sp, #88]
  405864:	d2800002 	mov	x2, #0x0                   	// #0
  405868:	1e620000 	scvtf	d0, w0
  40586c:	52800015 	mov	w21, #0x0                   	// #0
  405870:	1e621908 	fdiv	d8, d8, d2
  405874:	1e610800 	fmul	d0, d0, d1
  405878:	1e602110 	fcmpe	d8, d0
  40587c:	1e60ad08 	fcsel	d8, d8, d0, ge  // ge = tcont
  405880:	1e604100 	fmov	d0, d8
  405884:	97fff363 	bl	402610 <log10@plt>
  405888:	1e602108 	fcmp	d8, #0.0
  40588c:	1e669001 	fmov	d1, #2.000000000000000000e+01
  405890:	1e610808 	fmul	d8, d0, d1
  405894:	540000e0 	b.eq	4058b0 <vu+0xa0>  // b.none
  405898:	1e677000 	fmov	d0, #2.700000000000000000e+01
  40589c:	528001b5 	mov	w21, #0xd                   	// #13
  4058a0:	1e602900 	fadd	d0, d8, d0
  4058a4:	1e700001 	fcvtms	w1, d0
  4058a8:	7100643f 	cmp	w1, #0x19
  4058ac:	5400076d 	b.le	405998 <vu+0x188>
  4058b0:	f00000d6 	adrp	x22, 420000 <fputs@GLIBC_2.17>
  4058b4:	910f22d6 	add	x22, x22, #0x3c8
  4058b8:	1e614108 	fneg	d8, d8
  4058bc:	8b140a61 	add	x1, x19, x20, lsl #2
  4058c0:	fd400ac0 	ldr	d0, [x22, #16]
  4058c4:	b903703f 	str	wzr, [x1, #880]
  4058c8:	b903783f 	str	wzr, [x1, #888]
  4058cc:	1e602110 	fcmpe	d8, d0
  4058d0:	54000324 	b.mi	405934 <vu+0x124>  // b.first
  4058d4:	910123e0 	add	x0, sp, #0x48
  4058d8:	d2800001 	mov	x1, #0x0                   	// #0
  4058dc:	97fff339 	bl	4025c0 <gettimeofday@plt>
  4058e0:	f94027e0 	ldr	x0, [sp, #72]
  4058e4:	1e611001 	fmov	d1, #3.000000000000000000e+00
  4058e8:	f9422e62 	ldr	x2, [x19, #1112]
  4058ec:	cb020000 	sub	x0, x0, x2
  4058f0:	9e620000 	scvtf	d0, x0
  4058f4:	1e612010 	fcmpe	d0, d1
  4058f8:	5400046c 	b.gt	405984 <vu+0x174>
  4058fc:	f9402be0 	ldr	x0, [sp, #80]
  405900:	d2d09002 	mov	x2, #0x848000000000        	// #145685290680320
  405904:	f9423263 	ldr	x3, [x19, #1120]
  405908:	f2e825c2 	movk	x2, #0x412e, lsl #48
  40590c:	9e670043 	fmov	d3, x2
  405910:	d2dc6c01 	mov	x1, #0xe36000000000        	// #250001456365568
  405914:	cb030000 	sub	x0, x0, x3
  405918:	f2e828c1 	movk	x1, #0x4146, lsl #48
  40591c:	9e670022 	fmov	d2, x1
  405920:	9e620001 	scvtf	d1, x0
  405924:	1f430400 	fmadd	d0, d0, d3, d1
  405928:	1e622010 	fcmpe	d0, d2
  40592c:	540002ca 	b.ge	405984 <vu+0x174>  // b.tcont
  405930:	14000005 	b	405944 <vu+0x134>
  405934:	91116260 	add	x0, x19, #0x458
  405938:	d2800001 	mov	x1, #0x0                   	// #0
  40593c:	97fff321 	bl	4025c0 <gettimeofday@plt>
  405940:	fd000ac8 	str	d8, [x22, #16]
  405944:	f0000021 	adrp	x1, 40c000 <__dso_handle+0x1fa8>
  405948:	91386021 	add	x1, x1, #0xe18
  40594c:	8b35c680 	add	x0, x20, w21, sxtw #1
  405950:	911e0021 	add	x1, x1, #0x780
  405954:	d00000c2 	adrp	x2, 41f000 <__FRAME_END__+0x10b24>
  405958:	f9402fe4 	ldr	x4, [sp, #88]
  40595c:	f946e043 	ldr	x3, [x2, #3520]
  405960:	eb030084 	subs	x4, x4, x3
  405964:	d2800003 	mov	x3, #0x0                   	// #0
  405968:	f8607820 	ldr	x0, [x1, x0, lsl #3]
  40596c:	54000201 	b.ne	4059ac <vu+0x19c>  // b.any
  405970:	a94153f3 	ldp	x19, x20, [sp, #16]
  405974:	a9425bf5 	ldp	x21, x22, [sp, #32]
  405978:	fd401be8 	ldr	d8, [sp, #48]
  40597c:	a8c67bfd 	ldp	x29, x30, [sp], #96
  405980:	d65f03c0 	ret
  405984:	91100273 	add	x19, x19, #0x400
  405988:	fd000ac8 	str	d8, [x22, #16]
  40598c:	a94487e0 	ldp	x0, x1, [sp, #72]
  405990:	a9058660 	stp	x0, x1, [x19, #88]
  405994:	17ffffec 	b	405944 <vu+0x134>
  405998:	0b417c20 	add	w0, w1, w1, lsr #31
  40599c:	3100083f 	cmn	w1, #0x2
  4059a0:	13017c00 	asr	w0, w0, #1
  4059a4:	1a9fc015 	csel	w21, w0, wzr, gt
  4059a8:	17ffffc2 	b	4058b0 <vu+0xa0>
  4059ac:	97fff295 	bl	402400 <__stack_chk_fail@plt>

00000000004059b0 <sigint>:
  4059b0:	a9b37bfd 	stp	x29, x30, [sp, #-208]!
  4059b4:	d00000c1 	adrp	x1, 41f000 <__FRAME_END__+0x10b24>
  4059b8:	91370021 	add	x1, x1, #0xdc0
  4059bc:	910003fd 	mov	x29, sp
  4059c0:	f9000bf3 	str	x19, [sp, #16]
  4059c4:	f00000d3 	adrp	x19, 420000 <fputs@GLIBC_2.17>
  4059c8:	9112c273 	add	x19, x19, #0x4b0
  4059cc:	f9400022 	ldr	x2, [x1]
  4059d0:	f90067e2 	str	x2, [sp, #200]
  4059d4:	d2800002 	mov	x2, #0x0                   	// #0
  4059d8:	f941a661 	ldr	x1, [x19, #840]
  4059dc:	f100043f 	cmp	x1, #0x1
  4059e0:	540000e9 	b.ls	4059fc <sigint+0x4c>  // b.plast
  4059e4:	f00000c1 	adrp	x1, 420000 <fputs@GLIBC_2.17>
  4059e8:	910f2022 	add	x2, x1, #0x3c8
  4059ec:	b9400442 	ldr	w2, [x2, #4]
  4059f0:	7100005f 	cmp	w2, #0x0
  4059f4:	7a421800 	ccmp	w0, #0x2, #0x0, ne  // ne = any
  4059f8:	54000180 	b.eq	405a28 <sigint+0x78>  // b.none
  4059fc:	52800020 	mov	w0, #0x1                   	// #1
  405a00:	b9047e60 	str	w0, [x19, #1148]
  405a04:	d00000c0 	adrp	x0, 41f000 <__FRAME_END__+0x10b24>
  405a08:	f94067e2 	ldr	x2, [sp, #200]
  405a0c:	f946e001 	ldr	x1, [x0, #3520]
  405a10:	eb010042 	subs	x2, x2, x1
  405a14:	d2800001 	mov	x1, #0x0                   	// #0
  405a18:	540005e1 	b.ne	405ad4 <sigint+0x124>  // b.any
  405a1c:	f9400bf3 	ldr	x19, [sp, #16]
  405a20:	a8cd7bfd 	ldp	x29, x30, [sp], #208
  405a24:	d65f03c0 	ret
  405a28:	b943c820 	ldr	w0, [x1, #968]
  405a2c:	7100041f 	cmp	w0, #0x1
  405a30:	54fffe68 	b.hi	4059fc <sigint+0x4c>  // b.pmore
  405a34:	d2800001 	mov	x1, #0x0                   	// #0
  405a38:	910083e0 	add	x0, sp, #0x20
  405a3c:	97fff2e1 	bl	4025c0 <gettimeofday@plt>
  405a40:	f94013e0 	ldr	x0, [sp, #32]
  405a44:	1e6e1001 	fmov	d1, #1.000000000000000000e+00
  405a48:	f9423662 	ldr	x2, [x19, #1128]
  405a4c:	91100261 	add	x1, x19, #0x400
  405a50:	cb020000 	sub	x0, x0, x2
  405a54:	9e620000 	scvtf	d0, x0
  405a58:	1e612010 	fcmpe	d0, d1
  405a5c:	540001cc 	b.gt	405a94 <sigint+0xe4>
  405a60:	f94017e0 	ldr	x0, [sp, #40]
  405a64:	d2d09002 	mov	x2, #0x848000000000        	// #145685290680320
  405a68:	f9403823 	ldr	x3, [x1, #112]
  405a6c:	f2e825c2 	movk	x2, #0x412e, lsl #48
  405a70:	9e670042 	fmov	d2, x2
  405a74:	cb030000 	sub	x0, x0, x3
  405a78:	9e620001 	scvtf	d1, x0
  405a7c:	1f420400 	fmadd	d0, d0, d2, d1
  405a80:	1e622010 	fcmpe	d0, d2
  405a84:	5400008a 	b.ge	405a94 <sigint+0xe4>  // b.tcont
  405a88:	a9420fe2 	ldp	x2, x3, [sp, #32]
  405a8c:	a9068c22 	stp	x2, x3, [x1, #104]
  405a90:	17ffffdb 	b	4059fc <sigint+0x4c>
  405a94:	a94217e4 	ldp	x4, x5, [sp, #32]
  405a98:	91100262 	add	x2, x19, #0x400
  405a9c:	90000001 	adrp	x1, 405000 <output_flow+0x17c>
  405aa0:	9126c021 	add	x1, x1, #0x9b0
  405aa4:	9100e3e0 	add	x0, sp, #0x38
  405aa8:	f9001be1 	str	x1, [sp, #48]
  405aac:	a9069444 	stp	x4, x5, [x2, #104]
  405ab0:	97fff27c 	bl	4024a0 <sigemptyset@plt>
  405ab4:	b900bbff 	str	wzr, [sp, #184]
  405ab8:	9100c3e1 	add	x1, sp, #0x30
  405abc:	d2800002 	mov	x2, #0x0                   	// #0
  405ac0:	52800040 	mov	w0, #0x2                   	// #2
  405ac4:	97fff3cb 	bl	4029f0 <sigaction@plt>
  405ac8:	52800020 	mov	w0, #0x1                   	// #1
  405acc:	b9047a60 	str	w0, [x19, #1144]
  405ad0:	17ffffcd 	b	405a04 <sigint+0x54>
  405ad4:	97fff24b 	bl	402400 <__stack_chk_fail@plt>
  405ad8:	d503201f 	nop
  405adc:	d503201f 	nop

0000000000405ae0 <update_status>:
  405ae0:	d10783ff 	sub	sp, sp, #0x1e0
  405ae4:	d00000c1 	adrp	x1, 41f000 <__FRAME_END__+0x10b24>
  405ae8:	91370021 	add	x1, x1, #0xdc0
  405aec:	a9027bfd 	stp	x29, x30, [sp, #32]
  405af0:	910083fd 	add	x29, sp, #0x20
  405af4:	a90353f3 	stp	x19, x20, [sp, #48]
  405af8:	f00000d3 	adrp	x19, 420000 <fputs@GLIBC_2.17>
  405afc:	9112c273 	add	x19, x19, #0x4b0
  405b00:	a9045bf5 	stp	x21, x22, [sp, #64]
  405b04:	a90563f7 	stp	x23, x24, [sp, #80]
  405b08:	2a0003f8 	mov	w24, w0
  405b0c:	a90773fb 	stp	x27, x28, [sp, #112]
  405b10:	f9400022 	ldr	x2, [x1]
  405b14:	f900efe2 	str	x2, [sp, #472]
  405b18:	d2800002 	mov	x2, #0x0                   	// #0
  405b1c:	b9449261 	ldr	w1, [x19, #1168]
  405b20:	34000641 	cbz	w1, 405be8 <update_status+0x108>
  405b24:	f00000d5 	adrp	x21, 420000 <fputs@GLIBC_2.17>
  405b28:	910363f6 	add	x22, sp, #0xd8
  405b2c:	911242b5 	add	x21, x21, #0x490
  405b30:	d2800037 	mov	x23, #0x1                   	// #1
  405b34:	14000003 	b	405b40 <update_status+0x60>
  405b38:	f94002a0 	ldr	x0, [x21]
  405b3c:	97fff2e1 	bl	4026c0 <getc@plt>
  405b40:	f94002a0 	ldr	x0, [x21]
  405b44:	a90c7fff 	stp	xzr, xzr, [sp, #192]
  405b48:	a90dffff 	stp	xzr, xzr, [sp, #216]
  405b4c:	a90effff 	stp	xzr, xzr, [sp, #232]
  405b50:	a90fffff 	stp	xzr, xzr, [sp, #248]
  405b54:	a910ffff 	stp	xzr, xzr, [sp, #264]
  405b58:	a911ffff 	stp	xzr, xzr, [sp, #280]
  405b5c:	a912ffff 	stp	xzr, xzr, [sp, #296]
  405b60:	a913ffff 	stp	xzr, xzr, [sp, #312]
  405b64:	a914ffff 	stp	xzr, xzr, [sp, #328]
  405b68:	97fff22a 	bl	402410 <fileno@plt>
  405b6c:	9ac022f4 	lsl	x20, x23, x0
  405b70:	f94002a0 	ldr	x0, [x21]
  405b74:	97fff227 	bl	402410 <fileno@plt>
  405b78:	7100001f 	cmp	w0, #0x0
  405b7c:	1100fc01 	add	w1, w0, #0x3f
  405b80:	1a80b021 	csel	w1, w1, w0, lt  // lt = tstop
  405b84:	f94002a0 	ldr	x0, [x21]
  405b88:	13067c21 	asr	w1, w1, #6
  405b8c:	93407c21 	sxtw	x1, w1
  405b90:	f8617ac2 	ldr	x2, [x22, x1, lsl #3]
  405b94:	aa020294 	orr	x20, x20, x2
  405b98:	f8217ad4 	str	x20, [x22, x1, lsl #3]
  405b9c:	97fff21d 	bl	402410 <fileno@plt>
  405ba0:	11000400 	add	w0, w0, #0x1
  405ba4:	910303e4 	add	x4, sp, #0xc0
  405ba8:	aa1603e1 	mov	x1, x22
  405bac:	d2800003 	mov	x3, #0x0                   	// #0
  405bb0:	d2800002 	mov	x2, #0x0                   	// #0
  405bb4:	97fff1d7 	bl	402310 <select@plt>
  405bb8:	f94002a0 	ldr	x0, [x21]
  405bbc:	97fff215 	bl	402410 <fileno@plt>
  405bc0:	7100001f 	cmp	w0, #0x0
  405bc4:	1100fc01 	add	w1, w0, #0x3f
  405bc8:	1a80b021 	csel	w1, w1, w0, lt  // lt = tstop
  405bcc:	f94002a0 	ldr	x0, [x21]
  405bd0:	13067c21 	asr	w1, w1, #6
  405bd4:	f861dad4 	ldr	x20, [x22, w1, sxtw #3]
  405bd8:	97fff20e 	bl	402410 <fileno@plt>
  405bdc:	9ac022e0 	lsl	x0, x23, x0
  405be0:	ea14001f 	tst	x0, x20
  405be4:	54fffaa1 	b.ne	405b38 <update_status+0x58>  // b.any
  405be8:	f00000dc 	adrp	x28, 420000 <fputs@GLIBC_2.17>
  405bec:	910f239c 	add	x28, x28, #0x3c8
  405bf0:	b9400780 	ldr	w0, [x28, #4]
  405bf4:	34001578 	cbz	w24, 405ea0 <update_status+0x3c0>
  405bf8:	52800036 	mov	w22, #0x1                   	// #1
  405bfc:	340012e0 	cbz	w0, 405e58 <update_status+0x378>
  405c00:	a9066bf9 	stp	x25, x26, [sp, #96]
  405c04:	6d0827e8 	stp	d8, d9, [sp, #128]
  405c08:	fd004bea 	str	d10, [sp, #144]
  405c0c:	fd425660 	ldr	d0, [x19, #1192]
  405c10:	f9426a60 	ldr	x0, [x19, #1232]
  405c14:	7e61d800 	ucvtf	d0, d0
  405c18:	fd425a61 	ldr	d1, [x19, #1200]
  405c1c:	1e61180a 	fdiv	d10, d0, d1
  405c20:	b40017e0 	cbz	x0, 405f1c <update_status+0x43c>
  405c24:	9e630002 	ucvtf	d2, x0
  405c28:	d2e80b20 	mov	x0, #0x4059000000000000    	// #4636737291354636288
  405c2c:	9e670003 	fmov	d3, x0
  405c30:	2f00e404 	movi	d4, #0x0
  405c34:	1e630800 	fmul	d0, d0, d3
  405c38:	1e611841 	fdiv	d1, d2, d1
  405c3c:	1e621800 	fdiv	d0, d0, d2
  405c40:	1e6a3828 	fsub	d8, d1, d10
  405c44:	1e642110 	fcmpe	d8, d4
  405c48:	1e64ad08 	fcsel	d8, d8, d4, ge  // ge = tcont
  405c4c:	1e642010 	fcmpe	d0, d4
  405c50:	1e64ac00 	fcsel	d0, d0, d4, ge  // ge = tcont
  405c54:	b9400b94 	ldr	w20, [x28, #8]
  405c58:	52801000 	mov	w0, #0x80                  	// #128
  405c5c:	9100427a 	add	x26, x19, #0x10
  405c60:	52911138 	mov	w24, #0x8889                	// #34953
  405c64:	11000a94 	add	w20, w20, #0x2
  405c68:	52800659 	mov	w25, #0x32                  	// #50
  405c6c:	7102069f 	cmp	w20, #0x81
  405c70:	72b11118 	movk	w24, #0x8888, lsl #16
  405c74:	1a803294 	csel	w20, w20, w0, cc  // cc = lo, ul, last
  405c78:	b000003b 	adrp	x27, 40a000 <soxi1+0x330>
  405c7c:	9102037b 	add	x27, x27, #0x80
  405c80:	97fff368 	bl	402a20 <lsx_sigfigs3p@plt>
  405c84:	aa0003f7 	mov	x23, x0
  405c88:	d2e809c1 	mov	x1, #0x404e000000000000    	// #4633641066610819072
  405c8c:	9e670029 	fmov	d9, x1
  405c90:	b9400a62 	ldr	w2, [x19, #8]
  405c94:	aa1b03e1 	mov	x1, x27
  405c98:	1e691940 	fdiv	d0, d10, d9
  405c9c:	93407e94 	sxtw	x20, w20
  405ca0:	11000442 	add	w2, w2, #0x1
  405ca4:	12000c42 	and	w2, w2, #0xf
  405ca8:	b9000a62 	str	w2, [x19, #8]
  405cac:	9b396840 	smaddl	x0, w2, w25, x26
  405cb0:	1e780004 	fcvtzs	w4, d0
  405cb4:	531c6c83 	lsl	w3, w4, #4
  405cb8:	9b387c82 	smull	x2, w4, w24
  405cbc:	4b040063 	sub	w3, w3, w4
  405cc0:	531e7463 	lsl	w3, w3, #2
  405cc4:	d360fc42 	lsr	x2, x2, #32
  405cc8:	0b020082 	add	w2, w4, w2
  405ccc:	1e620060 	scvtf	d0, w3
  405cd0:	13057c42 	asr	w2, w2, #5
  405cd4:	4b847c42 	sub	w2, w2, w4, asr #31
  405cd8:	1e603940 	fsub	d0, d10, d0
  405cdc:	4b021043 	sub	w3, w2, w2, lsl #4
  405ce0:	0b030883 	add	w3, w4, w3, lsl #2
  405ce4:	97fff23b 	bl	4025d0 <sprintf@plt>
  405ce8:	b9400a75 	ldr	w21, [x19, #8]
  405cec:	1e691909 	fdiv	d9, d8, d9
  405cf0:	aa1b03e1 	mov	x1, x27
  405cf4:	110006a0 	add	w0, w21, #0x1
  405cf8:	12000c00 	and	w0, w0, #0xf
  405cfc:	b9000a60 	str	w0, [x19, #8]
  405d00:	9b396ab5 	smaddl	x21, w21, w25, x26
  405d04:	9b396800 	smaddl	x0, w0, w25, x26
  405d08:	1e780124 	fcvtzs	w4, d9
  405d0c:	531c6c83 	lsl	w3, w4, #4
  405d10:	9b387c82 	smull	x2, w4, w24
  405d14:	4b040063 	sub	w3, w3, w4
  405d18:	531e7463 	lsl	w3, w3, #2
  405d1c:	d360fc42 	lsr	x2, x2, #32
  405d20:	0b020082 	add	w2, w4, w2
  405d24:	1e620060 	scvtf	d0, w3
  405d28:	13057c42 	asr	w2, w2, #5
  405d2c:	4b847c42 	sub	w2, w2, w4, asr #31
  405d30:	1e603900 	fsub	d0, d8, d0
  405d34:	4b021043 	sub	w3, w2, w2, lsl #4
  405d38:	0b030883 	add	w3, w4, w3, lsl #2
  405d3c:	97fff225 	bl	4025d0 <sprintf@plt>
  405d40:	b9400a78 	ldr	w24, [x19, #8]
  405d44:	fd41c260 	ldr	d0, [x19, #896]
  405d48:	9b396b18 	smaddl	x24, w24, w25, x26
  405d4c:	7e61d800 	ucvtf	d0, d0
  405d50:	97fff290 	bl	402790 <lsx_sigfigs3@plt>
  405d54:	aa0003f9 	mov	x25, x0
  405d58:	52800000 	mov	w0, #0x0                   	// #0
  405d5c:	97fffead 	bl	405810 <vu>
  405d60:	aa0003fa 	mov	x26, x0
  405d64:	52800020 	mov	w0, #0x1                   	// #1
  405d68:	97fffeaa 	bl	405810 <vu>
  405d6c:	aa0003fb 	mov	x27, x0
  405d70:	fd400b80 	ldr	d0, [x28, #16]
  405d74:	1e631001 	fmov	d1, #6.000000000000000000e+00
  405d78:	1e612010 	fcmpe	d0, d1
  405d7c:	54000f24 	b.mi	405f60 <update_status+0x480>  // b.first
  405d80:	b0000020 	adrp	x0, 40a000 <soxi1+0x330>
  405d84:	912c2000 	add	x0, x0, #0xb08
  405d88:	f9005fe0 	str	x0, [sp, #184]
  405d8c:	f941ae61 	ldr	x1, [x19, #856]
  405d90:	b4000281 	cbz	x1, 405de0 <update_status+0x300>
  405d94:	f941b665 	ldr	x5, [x19, #872]
  405d98:	25e11fe0 	whilelo	p0.d, xzr, x1
  405d9c:	d2800000 	mov	x0, #0x0                   	// #0
  405da0:	2538c002 	mov	z2.b, #0
  405da4:	d2802704 	mov	x4, #0x138                 	// #312
  405da8:	d2802603 	mov	x3, #0x130                 	// #304
  405dac:	d2802802 	mov	x2, #0x140                 	// #320
  405db0:	a5e040a0 	ld1d	{z0.d}, p0/z, [x5, x0, lsl #3]
  405db4:	04f0e3e0 	incd	x0
  405db8:	c5c0c081 	ld1d	{z1.d}, p0/z, [x4, z0.d]
  405dbc:	c5c0c040 	ld1d	{z0.d}, p0/z, [x2, z0.d]
  405dc0:	c5c1c061 	ld1d	{z1.d}, p0/z, [x3, z1.d]
  405dc4:	04e10000 	add	z0.d, z0.d, z1.d
  405dc8:	04c00002 	add	z2.d, p0/m, z2.d, z0.d
  405dcc:	25e11c00 	whilelo	p0.d, x0, x1
  405dd0:	54ffff01 	b.ne	405db0 <update_status+0x2d0>  // b.any
  405dd4:	2518e3e0 	ptrue	p0.b
  405dd8:	04c12040 	uaddv	d0, p0, z2.d
  405ddc:	9e660001 	fmov	x1, d0
  405de0:	f9426e62 	ldr	x2, [x19, #1240]
  405de4:	a90a87e2 	stp	x2, x1, [sp, #168]
  405de8:	f00000dc 	adrp	x28, 420000 <fputs@GLIBC_2.17>
  405dec:	f9427260 	ldr	x0, [x19, #1248]
  405df0:	97fff274 	bl	4027c0 <sox_effects_clips@plt>
  405df4:	a94a87e2 	ldp	x2, x1, [sp, #168]
  405df8:	8b010000 	add	x0, x0, x1
  405dfc:	8b020000 	add	x0, x0, x2
  405e00:	9e630000 	ucvtf	d0, x0
  405e04:	97fff263 	bl	402790 <lsx_sigfigs3@plt>
  405e08:	f9000be0 	str	x0, [sp, #16]
  405e0c:	f9405fe1 	ldr	x1, [sp, #184]
  405e10:	a90007fb 	stp	x27, x1, [sp]
  405e14:	aa1a03e7 	mov	x7, x26
  405e18:	aa1403e1 	mov	x1, x20
  405e1c:	aa1903e6 	mov	x6, x25
  405e20:	aa1803e5 	mov	x5, x24
  405e24:	aa1503e4 	mov	x4, x21
  405e28:	aa1703e3 	mov	x3, x23
  405e2c:	910563e0 	add	x0, sp, #0x158
  405e30:	b0000022 	adrp	x2, 40a000 <soxi1+0x330>
  405e34:	912c8042 	add	x2, x2, #0xb20
  405e38:	97fff24e 	bl	402770 <snprintf@plt>
  405e3c:	f9425381 	ldr	x1, [x28, #1184]
  405e40:	910563e0 	add	x0, sp, #0x158
  405e44:	97fff12b 	bl	4022f0 <fputs@plt>
  405e48:	35000716 	cbnz	w22, 405f28 <update_status+0x448>
  405e4c:	a9466bf9 	ldp	x25, x26, [sp, #96]
  405e50:	6d4827e8 	ldp	d8, d9, [sp, #128]
  405e54:	fd404bea 	ldr	d10, [sp, #144]
  405e58:	b9447e60 	ldr	w0, [x19, #1148]
  405e5c:	350002a0 	cbnz	w0, 405eb0 <update_status+0x3d0>
  405e60:	b944ea60 	ldr	w0, [x19, #1256]
  405e64:	7100001f 	cmp	w0, #0x0
  405e68:	5a9f03e0 	csetm	w0, ne  // ne = any
  405e6c:	d00000c1 	adrp	x1, 41f000 <__FRAME_END__+0x10b24>
  405e70:	f940efe3 	ldr	x3, [sp, #472]
  405e74:	f946e022 	ldr	x2, [x1, #3520]
  405e78:	eb020063 	subs	x3, x3, x2
  405e7c:	d2800002 	mov	x2, #0x0                   	// #0
  405e80:	54000901 	b.ne	405fa0 <update_status+0x4c0>  // b.any
  405e84:	a9427bfd 	ldp	x29, x30, [sp, #32]
  405e88:	a94353f3 	ldp	x19, x20, [sp, #48]
  405e8c:	a9445bf5 	ldp	x21, x22, [sp, #64]
  405e90:	a94563f7 	ldp	x23, x24, [sp, #80]
  405e94:	a94773fb 	ldp	x27, x28, [sp, #112]
  405e98:	910783ff 	add	sp, sp, #0x1e0
  405e9c:	d65f03c0 	ret
  405ea0:	b9447e76 	ldr	w22, [x19, #1148]
  405ea4:	340000b6 	cbz	w22, 405eb8 <update_status+0x3d8>
  405ea8:	52800036 	mov	w22, #0x1                   	// #1
  405eac:	35ffeaa0 	cbnz	w0, 405c00 <update_status+0x120>
  405eb0:	12800000 	mov	w0, #0xffffffff            	// #-1
  405eb4:	17ffffee 	b	405e6c <update_status+0x38c>
  405eb8:	34fffd40 	cbz	w0, 405e60 <update_status+0x380>
  405ebc:	910303e0 	add	x0, sp, #0xc0
  405ec0:	d2800001 	mov	x1, #0x0                   	// #0
  405ec4:	97fff1bf 	bl	4025c0 <gettimeofday@plt>
  405ec8:	f94063e0 	ldr	x0, [sp, #192]
  405ecc:	1e6e1001 	fmov	d1, #1.000000000000000000e+00
  405ed0:	f9424e62 	ldr	x2, [x19, #1176]
  405ed4:	cb020000 	sub	x0, x0, x2
  405ed8:	9e620000 	scvtf	d0, x0
  405edc:	1e612010 	fcmpe	d0, d1
  405ee0:	5400032c 	b.gt	405f44 <update_status+0x464>
  405ee4:	f94067e0 	ldr	x0, [sp, #200]
  405ee8:	d2d09002 	mov	x2, #0x848000000000        	// #145685290680320
  405eec:	f9425263 	ldr	x3, [x19, #1184]
  405ef0:	f2e825c2 	movk	x2, #0x412e, lsl #48
  405ef4:	9e670043 	fmov	d3, x2
  405ef8:	d2cd4001 	mov	x1, #0x6a0000000000        	// #116548232544256
  405efc:	cb030000 	sub	x0, x0, x3
  405f00:	f2e81f01 	movk	x1, #0x40f8, lsl #48
  405f04:	9e670022 	fmov	d2, x1
  405f08:	9e620001 	scvtf	d1, x0
  405f0c:	1f430400 	fmadd	d0, d0, d3, d1
  405f10:	1e622010 	fcmpe	d0, d2
  405f14:	5400018a 	b.ge	405f44 <update_status+0x464>  // b.tcont
  405f18:	17ffffd2 	b	405e60 <update_status+0x380>
  405f1c:	2f00e400 	movi	d0, #0x0
  405f20:	1e604008 	fmov	d8, d0
  405f24:	17ffff4c 	b	405c54 <update_status+0x174>
  405f28:	f9425381 	ldr	x1, [x28, #1184]
  405f2c:	52800140 	mov	w0, #0xa                   	// #10
  405f30:	97fff1f0 	bl	4026f0 <fputc@plt>
  405f34:	a9466bf9 	ldp	x25, x26, [sp, #96]
  405f38:	6d4827e8 	ldp	d8, d9, [sp, #128]
  405f3c:	fd404bea 	ldr	d10, [sp, #144]
  405f40:	17ffffc6 	b	405e58 <update_status+0x378>
  405f44:	91100260 	add	x0, x19, #0x400
  405f48:	a9066bf9 	stp	x25, x26, [sp, #96]
  405f4c:	6d0827e8 	stp	d8, d9, [sp, #128]
  405f50:	fd004bea 	str	d10, [sp, #144]
  405f54:	a94c0fe2 	ldp	x2, x3, [sp, #192]
  405f58:	a9098c02 	stp	x2, x3, [x0, #152]
  405f5c:	17ffff2c 	b	405c0c <update_status+0x12c>
  405f60:	1e649001 	fmov	d1, #1.000000000000000000e+01
  405f64:	529999a3 	mov	w3, #0xcccd                	// #52429
  405f68:	72b99983 	movk	w3, #0xcccc, lsl #16
  405f6c:	91120260 	add	x0, x19, #0x480
  405f70:	1e610800 	fmul	d0, d0, d1
  405f74:	b0000022 	adrp	x2, 40a000 <soxi1+0x330>
  405f78:	d2800201 	mov	x1, #0x10                  	// #16
  405f7c:	912c4042 	add	x2, x2, #0xb10
  405f80:	f9005fe0 	str	x0, [sp, #184]
  405f84:	1e790005 	fcvtzu	w5, d0
  405f88:	9ba37ca3 	umull	x3, w5, w3
  405f8c:	d363fc63 	lsr	x3, x3, #35
  405f90:	0b030864 	add	w4, w3, w3, lsl #2
  405f94:	4b0404a4 	sub	w4, w5, w4, lsl #1
  405f98:	97fff1f6 	bl	402770 <snprintf@plt>
  405f9c:	17ffff7c 	b	405d8c <update_status+0x2ac>
  405fa0:	a9066bf9 	stp	x25, x26, [sp, #96]
  405fa4:	6d0827e8 	stp	d8, d9, [sp, #128]
  405fa8:	fd004bea 	str	d10, [sp, #144]
  405fac:	97fff115 	bl	402400 <__stack_chk_fail@plt>

0000000000405fb0 <parse_gopts_and_fopts>:
  405fb0:	a9b77bfd 	stp	x29, x30, [sp, #-144]!
  405fb4:	d00000c1 	adrp	x1, 41f000 <__FRAME_END__+0x10b24>
  405fb8:	91370021 	add	x1, x1, #0xdc0
  405fbc:	910003fd 	mov	x29, sp
  405fc0:	a90153f3 	stp	x19, x20, [sp, #16]
  405fc4:	f00000d3 	adrp	x19, 420000 <fputs@GLIBC_2.17>
  405fc8:	9112c273 	add	x19, x19, #0x4b0
  405fcc:	a9025bf5 	stp	x21, x22, [sp, #32]
  405fd0:	aa0003f5 	mov	x21, x0
  405fd4:	f0000036 	adrp	x22, 40c000 <__dso_handle+0x1fa8>
  405fd8:	a90363f7 	stp	x23, x24, [sp, #48]
  405fdc:	9133c2d6 	add	x22, x22, #0xcf0
  405fe0:	b0000037 	adrp	x23, 40a000 <soxi1+0x330>
  405fe4:	a9046bf9 	stp	x25, x26, [sp, #64]
  405fe8:	912e82f7 	add	x23, x23, #0xba0
  405fec:	a90573fb 	stp	x27, x28, [sp, #80]
  405ff0:	fd0033e8 	str	d8, [sp, #96]
  405ff4:	f9400020 	ldr	x0, [x1]
  405ff8:	f90047e0 	str	x0, [sp, #136]
  405ffc:	d2800000 	mov	x0, #0x0                   	// #0
  406000:	97fff14c 	bl	402530 <sox_version_info@plt>
  406004:	aa0003fb 	mov	x27, x0
  406008:	d2c80000 	mov	x0, #0x400000000000        	// #70368744177664
  40600c:	f2e811e0 	movk	x0, #0x408f, lsl #48
  406010:	9e670008 	fmov	d8, x0
  406014:	d503201f 	nop
  406018:	91102260 	add	x0, x19, #0x408
  40601c:	97fff0dd 	bl	402390 <lsx_getopt@plt>
  406020:	11000401 	add	w1, w0, #0x1
  406024:	7101e43f 	cmp	w1, #0x79
  406028:	54ffff88 	b.hi	406018 <parse_gopts_and_fopts+0x68>  // b.pmore
  40602c:	78615ac1 	ldrh	w1, [x22, w1, uxtw #1]
  406030:	10000062 	adr	x2, 40603c <parse_gopts_and_fopts+0x8c>
  406034:	8b21a841 	add	x1, x2, w1, sxth #2
  406038:	d61f0020 	br	x1
  40603c:	12001c00 	and	w0, w0, #0xff
  406040:	b00000c1 	adrp	x1, 41f000 <__FRAME_END__+0x10b24>
  406044:	f94047e3 	ldr	x3, [sp, #136]
  406048:	f946e022 	ldr	x2, [x1, #3520]
  40604c:	eb020063 	subs	x3, x3, x2
  406050:	d2800002 	mov	x2, #0x0                   	// #0
  406054:	54005e41 	b.ne	406c1c <parse_gopts_and_fopts+0xc6c>  // b.any
  406058:	a94153f3 	ldp	x19, x20, [sp, #16]
  40605c:	a9425bf5 	ldp	x21, x22, [sp, #32]
  406060:	a94363f7 	ldp	x23, x24, [sp, #48]
  406064:	a9446bf9 	ldp	x25, x26, [sp, #64]
  406068:	a94573fb 	ldp	x27, x28, [sp, #80]
  40606c:	fd4033e8 	ldr	d8, [sp, #96]
  406070:	a8c97bfd 	ldp	x29, x30, [sp], #144
  406074:	d65f03c0 	ret
  406078:	b94042a1 	ldr	w1, [x21, #64]
  40607c:	7100083f 	cmp	w1, #0x2
  406080:	540057e1 	b.ne	406b7c <parse_gopts_and_fopts+0xbcc>  // b.any
  406084:	b9404ea1 	ldr	w1, [x21, #76]
  406088:	350057a1 	cbnz	w1, 406b7c <parse_gopts_and_fopts+0xbcc>
  40608c:	7101301f 	cmp	w0, #0x4c
  406090:	54002000 	b.eq	406490 <parse_gopts_and_fopts+0x4e0>  // b.none
  406094:	7101e01f 	cmp	w0, #0x78
  406098:	54001cc0 	b.eq	406430 <parse_gopts_and_fopts+0x480>  // b.none
  40609c:	7101081f 	cmp	w0, #0x42
  4060a0:	54fffbc1 	b.ne	406018 <parse_gopts_and_fopts+0x68>  // b.any
  4060a4:	52800020 	mov	w0, #0x1                   	// #1
  4060a8:	b90042a0 	str	w0, [x21, #64]
  4060ac:	17ffffdb 	b	406018 <parse_gopts_and_fopts+0x68>
  4060b0:	f9422260 	ldr	x0, [x19, #1088]
  4060b4:	90000021 	adrp	x1, 40a000 <soxi1+0x330>
  4060b8:	91020fe3 	add	x3, sp, #0x83
  4060bc:	91378021 	add	x1, x1, #0xde0
  4060c0:	910213e2 	add	x2, sp, #0x84
  4060c4:	97fff19f 	bl	402740 <__isoc99_sscanf@plt>
  4060c8:	7100041f 	cmp	w0, #0x1
  4060cc:	54004e81 	b.ne	406a9c <parse_gopts_and_fopts+0xaec>  // b.any
  4060d0:	b94087e0 	ldr	w0, [sp, #132]
  4060d4:	7100001f 	cmp	w0, #0x0
  4060d8:	54004e2d 	b.le	406a9c <parse_gopts_and_fopts+0xaec>
  4060dc:	b90036a0 	str	w0, [x21, #52]
  4060e0:	17ffffce 	b	406018 <parse_gopts_and_fopts+0x68>
  4060e4:	52800020 	mov	w0, #0x1                   	// #1
  4060e8:	b9004aa0 	str	w0, [x21, #72]
  4060ec:	17ffffcb 	b	406018 <parse_gopts_and_fopts+0x68>
  4060f0:	f9422260 	ldr	x0, [x19, #1088]
  4060f4:	b40017a0 	cbz	x0, 4063e8 <parse_gopts_and_fopts+0x438>
  4060f8:	90000021 	adrp	x1, 40a000 <soxi1+0x330>
  4060fc:	91020fe3 	add	x3, sp, #0x83
  406100:	91378021 	add	x1, x1, #0xde0
  406104:	910213e2 	add	x2, sp, #0x84
  406108:	97fff18e 	bl	402740 <__isoc99_sscanf@plt>
  40610c:	7100041f 	cmp	w0, #0x1
  406110:	54005581 	b.ne	406bc0 <parse_gopts_and_fopts+0xc10>  // b.any
  406114:	b94087f4 	ldr	w20, [sp, #132]
  406118:	37f85554 	tbnz	w20, #31, 406bc0 <parse_gopts_and_fopts+0xc10>
  40611c:	97fff17d 	bl	402710 <sox_get_globals@plt>
  406120:	b9000014 	str	w20, [x0]
  406124:	17ffffbd 	b	406018 <parse_gopts_and_fopts+0x68>
  406128:	d00000c0 	adrp	x0, 420000 <fputs@GLIBC_2.17>
  40612c:	528000a1 	mov	w1, #0x5                   	// #5
  406130:	b903c801 	str	w1, [x0, #968]
  406134:	17ffffb9 	b	406018 <parse_gopts_and_fopts+0x68>
  406138:	d00000c0 	adrp	x0, 420000 <fputs@GLIBC_2.17>
  40613c:	52800021 	mov	w1, #0x1                   	// #1
  406140:	b903cc01 	str	w1, [x0, #972]
  406144:	17ffffb5 	b	406018 <parse_gopts_and_fopts+0x68>
  406148:	97fff172 	bl	402710 <sox_get_globals@plt>
  40614c:	52800021 	mov	w1, #0x1                   	// #1
  406150:	b9001001 	str	w1, [x0, #16]
  406154:	17ffffb1 	b	406018 <parse_gopts_and_fopts+0x68>
  406158:	f9422260 	ldr	x0, [x19, #1088]
  40615c:	90000021 	adrp	x1, 40a000 <soxi1+0x330>
  406160:	91020fe3 	add	x3, sp, #0x83
  406164:	91378021 	add	x1, x1, #0xde0
  406168:	910213e2 	add	x2, sp, #0x84
  40616c:	97fff175 	bl	402740 <__isoc99_sscanf@plt>
  406170:	7100041f 	cmp	w0, #0x1
  406174:	54005401 	b.ne	406bf4 <parse_gopts_and_fopts+0xc44>  // b.any
  406178:	b94087e0 	ldr	w0, [sp, #132]
  40617c:	7100001f 	cmp	w0, #0x0
  406180:	540053ad 	b.le	406bf4 <parse_gopts_and_fopts+0xc44>
  406184:	b9001aa0 	str	w0, [x21, #24]
  406188:	17ffffa4 	b	406018 <parse_gopts_and_fopts+0x68>
  40618c:	f9422260 	ldr	x0, [x19, #1088]
  406190:	91102274 	add	x20, x19, #0x408
  406194:	90000021 	adrp	x1, 40a000 <soxi1+0x330>
  406198:	91020fe3 	add	x3, sp, #0x83
  40619c:	9135a021 	add	x1, x1, #0xd68
  4061a0:	9100e2a2 	add	x2, x21, #0x38
  4061a4:	97fff167 	bl	402740 <__isoc99_sscanf@plt>
  4061a8:	7100041f 	cmp	w0, #0x1
  4061ac:	54fff360 	b.eq	406018 <parse_gopts_and_fopts+0x68>  // b.none
  4061b0:	97fff158 	bl	402710 <sox_get_globals@plt>
  4061b4:	f9401e81 	ldr	x1, [x20, #56]
  4061b8:	90000022 	adrp	x2, 40a000 <soxi1+0x330>
  4061bc:	910b0042 	add	x2, x2, #0x2c0
  4061c0:	f9002002 	str	x2, [x0, #64]
  4061c4:	90000020 	adrp	x0, 40a000 <soxi1+0x330>
  4061c8:	91386000 	add	x0, x0, #0xe18
  4061cc:	97fff09d 	bl	402440 <lsx_fail_impl@plt>
  4061d0:	52800020 	mov	w0, #0x1                   	// #1
  4061d4:	97fff1d3 	bl	402920 <exit@plt>
  4061d8:	b9444a60 	ldr	w0, [x19, #1096]
  4061dc:	7100641f 	cmp	w0, #0x19
  4061e0:	54fff1c8 	b.hi	406018 <parse_gopts_and_fopts+0x68>  // b.pmore
  4061e4:	d0000021 	adrp	x1, 40c000 <__dso_handle+0x1fa8>
  4061e8:	91379021 	add	x1, x1, #0xde4
  4061ec:	78605821 	ldrh	w1, [x1, w0, uxtw #1]
  4061f0:	10000060 	adr	x0, 4061fc <parse_gopts_and_fopts+0x24c>
  4061f4:	8b21a801 	add	x1, x0, w1, sxth #2
  4061f8:	d61f0020 	br	x1
  4061fc:	52800020 	mov	w0, #0x1                   	// #1
  406200:	b90046a0 	str	w0, [x21, #68]
  406204:	17ffff85 	b	406018 <parse_gopts_and_fopts+0x68>
  406208:	d00000c0 	adrp	x0, 420000 <fputs@GLIBC_2.17>
  40620c:	52800081 	mov	w1, #0x4                   	// #4
  406210:	b903c801 	str	w1, [x0, #968]
  406214:	17ffff81 	b	406018 <parse_gopts_and_fopts+0x68>
  406218:	52800020 	mov	w0, #0x1                   	// #1
  40621c:	b904ee60 	str	w0, [x19, #1260]
  406220:	17ffff7e 	b	406018 <parse_gopts_and_fopts+0x68>
  406224:	52800020 	mov	w0, #0x1                   	// #1
  406228:	b904fa60 	str	w0, [x19, #1272]
  40622c:	17ffff7b 	b	406018 <parse_gopts_and_fopts+0x68>
  406230:	f9422260 	ldr	x0, [x19, #1088]
  406234:	91102274 	add	x20, x19, #0x408
  406238:	90000021 	adrp	x1, 40a000 <soxi1+0x330>
  40623c:	91020fe3 	add	x3, sp, #0x83
  406240:	9135a021 	add	x1, x1, #0xd68
  406244:	910142a2 	add	x2, x21, #0x50
  406248:	97fff13e 	bl	402740 <__isoc99_sscanf@plt>
  40624c:	7100041f 	cmp	w0, #0x1
  406250:	54004a41 	b.ne	406b98 <parse_gopts_and_fopts+0xbe8>  // b.any
  406254:	fd402aa0 	ldr	d0, [x21, #80]
  406258:	b904f660 	str	w0, [x19, #1268]
  40625c:	1e602018 	fcmpe	d0, #0.0
  406260:	54000d24 	b.mi	406404 <parse_gopts_and_fopts+0x454>  // b.first
  406264:	17ffff6d 	b	406018 <parse_gopts_and_fopts+0x68>
  406268:	f9422261 	ldr	x1, [x19, #1088]
  40626c:	f90006a1 	str	x1, [x21, #8]
  406270:	aa0103e0 	mov	x0, x1
  406274:	38401402 	ldrb	w2, [x0], #1
  406278:	7100b85f 	cmp	w2, #0x2e
  40627c:	9a810000 	csel	x0, x0, x1, eq  // eq = none
  406280:	f90006a0 	str	x0, [x21, #8]
  406284:	17ffff65 	b	406018 <parse_gopts_and_fopts+0x68>
  406288:	f9422260 	ldr	x0, [x19, #1088]
  40628c:	90000021 	adrp	x1, 40a000 <soxi1+0x330>
  406290:	9134a021 	add	x1, x1, #0xd28
  406294:	91020fe4 	add	x4, sp, #0x83
  406298:	910213e3 	add	x3, sp, #0x84
  40629c:	910042a2 	add	x2, x21, #0x10
  4062a0:	390213ff 	strb	wzr, [sp, #132]
  4062a4:	97fff127 	bl	402740 <__isoc99_sscanf@plt>
  4062a8:	93407c01 	sxtw	x1, w0
  4062ac:	34000f60 	cbz	w0, 406498 <parse_gopts_and_fopts+0x4e8>
  4062b0:	fd400aa0 	ldr	d0, [x21, #16]
  4062b4:	1e602018 	fcmpe	d0, #0.0
  4062b8:	54000f09 	b.ls	406498 <parse_gopts_and_fopts+0x4e8>  // b.plast
  4062bc:	394213e0 	ldrb	w0, [sp, #132]
  4062c0:	f100043f 	cmp	x1, #0x1
  4062c4:	540008a0 	b.eq	4063d8 <parse_gopts_and_fopts+0x428>  // b.none
  4062c8:	7101ac1f 	cmp	w0, #0x6b
  4062cc:	54000e61 	b.ne	406498 <parse_gopts_and_fopts+0x4e8>  // b.any
  4062d0:	f100083f 	cmp	x1, #0x2
  4062d4:	54000e21 	b.ne	406498 <parse_gopts_and_fopts+0x4e8>  // b.any
  4062d8:	1e680800 	fmul	d0, d0, d8
  4062dc:	fd000aa0 	str	d0, [x21, #16]
  4062e0:	17ffff4e 	b	406018 <parse_gopts_and_fopts+0x68>
  4062e4:	d00000c0 	adrp	x0, 420000 <fputs@GLIBC_2.17>
  4062e8:	b903cc1f 	str	wzr, [x0, #972]
  4062ec:	17ffff4b 	b	406018 <parse_gopts_and_fopts+0x68>
  4062f0:	d0000021 	adrp	x1, 40c000 <__dso_handle+0x1fa8>
  4062f4:	91386021 	add	x1, x1, #0xe18
  4062f8:	91080020 	add	x0, x1, #0x200
  4062fc:	52800014 	mov	w20, #0x0                   	// #0
  406300:	f9422279 	ldr	x25, [x19, #1088]
  406304:	14000004 	b	406314 <parse_gopts_and_fopts+0x364>
  406308:	f8420c02 	ldr	x2, [x0, #32]!
  40630c:	11000694 	add	w20, w20, #0x1
  406310:	b4000762 	cbz	x2, 4063fc <parse_gopts_and_fopts+0x44c>
  406314:	b9401802 	ldr	w2, [x0, #24]
  406318:	7101945f 	cmp	w2, #0x65
  40631c:	54ffff61 	b.ne	406308 <parse_gopts_and_fopts+0x358>  // b.any
  406320:	91268038 	add	x24, x1, #0x9a0
  406324:	aa1903e0 	mov	x0, x25
  406328:	aa1803e1 	mov	x1, x24
  40632c:	52800002 	mov	w2, #0x0                   	// #0
  406330:	97fff01c 	bl	4023a0 <lsx_find_enum_text@plt>
  406334:	b40042a0 	cbz	x0, 406b88 <parse_gopts_and_fopts+0xbd8>
  406338:	b9400800 	ldr	w0, [x0, #8]
  40633c:	7100101f 	cmp	w0, #0x4
  406340:	540030c0 	b.eq	406958 <parse_gopts_and_fopts+0x9a8>  // b.none
  406344:	54000248 	b.hi	40638c <parse_gopts_and_fopts+0x3dc>  // b.pmore
  406348:	7100081f 	cmp	w0, #0x2
  40634c:	54003180 	b.eq	40697c <parse_gopts_and_fopts+0x9cc>  // b.none
  406350:	71000c1f 	cmp	w0, #0x3
  406354:	54000101 	b.ne	406374 <parse_gopts_and_fopts+0x3c4>  // b.any
  406358:	528001e0 	mov	w0, #0xf                   	// #15
  40635c:	b90032a0 	str	w0, [x21, #48]
  406360:	17ffff2e 	b	406018 <parse_gopts_and_fopts+0x68>
  406364:	d00000c0 	adrp	x0, 420000 <fputs@GLIBC_2.17>
  406368:	52800041 	mov	w1, #0x2                   	// #2
  40636c:	b903c801 	str	w1, [x0, #968]
  406370:	17ffff2a 	b	406018 <parse_gopts_and_fopts+0x68>
  406374:	340030a0 	cbz	w0, 406988 <parse_gopts_and_fopts+0x9d8>
  406378:	7100041f 	cmp	w0, #0x1
  40637c:	54ffe4e1 	b.ne	406018 <parse_gopts_and_fopts+0x68>  // b.any
  406380:	52800040 	mov	w0, #0x2                   	// #2
  406384:	b90032a0 	str	w0, [x21, #48]
  406388:	17ffff24 	b	406018 <parse_gopts_and_fopts+0x68>
  40638c:	71001c1f 	cmp	w0, #0x7
  406390:	54002ea0 	b.eq	406964 <parse_gopts_and_fopts+0x9b4>  // b.none
  406394:	54000149 	b.ls	4063bc <parse_gopts_and_fopts+0x40c>  // b.plast
  406398:	7100201f 	cmp	w0, #0x8
  40639c:	54ffe3e1 	b.ne	406018 <parse_gopts_and_fopts+0x68>  // b.any
  4063a0:	b94036a0 	ldr	w0, [x21, #52]
  4063a4:	52800141 	mov	w1, #0xa                   	// #10
  4063a8:	b90032a1 	str	w1, [x21, #48]
  4063ac:	35ffe360 	cbnz	w0, 406018 <parse_gopts_and_fopts+0x68>
  4063b0:	52800100 	mov	w0, #0x8                   	// #8
  4063b4:	b90036a0 	str	w0, [x21, #52]
  4063b8:	17ffff18 	b	406018 <parse_gopts_and_fopts+0x68>
  4063bc:	7100141f 	cmp	w0, #0x5
  4063c0:	54002c60 	b.eq	40694c <parse_gopts_and_fopts+0x99c>  // b.none
  4063c4:	7100181f 	cmp	w0, #0x6
  4063c8:	54ffe281 	b.ne	406018 <parse_gopts_and_fopts+0x68>  // b.any
  4063cc:	528002a0 	mov	w0, #0x15                  	// #21
  4063d0:	b90032a0 	str	w0, [x21, #48]
  4063d4:	17ffff11 	b	406018 <parse_gopts_and_fopts+0x68>
  4063d8:	7101ac1f 	cmp	w0, #0x6b
  4063dc:	54fff7e0 	b.eq	4062d8 <parse_gopts_and_fopts+0x328>  // b.none
  4063e0:	fd000aa0 	str	d0, [x21, #16]
  4063e4:	17ffff0d 	b	406018 <parse_gopts_and_fopts+0x68>
  4063e8:	97fff0ca 	bl	402710 <sox_get_globals@plt>
  4063ec:	b9400001 	ldr	w1, [x0]
  4063f0:	11000421 	add	w1, w1, #0x1
  4063f4:	b9000001 	str	w1, [x0]
  4063f8:	17ffff08 	b	406018 <parse_gopts_and_fopts+0x68>
  4063fc:	12800014 	mov	w20, #0xffffffff            	// #-1
  406400:	17ffffc8 	b	406320 <parse_gopts_and_fopts+0x370>
  406404:	97fff0c3 	bl	402710 <sox_get_globals@plt>
  406408:	aa0003e2 	mov	x2, x0
  40640c:	90000021 	adrp	x1, 40a000 <soxi1+0x330>
  406410:	910b0021 	add	x1, x1, #0x2c0
  406414:	90000020 	adrp	x0, 40a000 <soxi1+0x330>
  406418:	91366000 	add	x0, x0, #0xd98
  40641c:	f9002041 	str	x1, [x2, #64]
  406420:	97fff0cc 	bl	402750 <lsx_report_impl@plt>
  406424:	17fffefd 	b	406018 <parse_gopts_and_fopts+0x68>
  406428:	52800000 	mov	w0, #0x0                   	// #0
  40642c:	17ffff05 	b	406040 <parse_gopts_and_fopts+0x90>
  406430:	52800020 	mov	w0, #0x1                   	// #1
  406434:	b9004ea0 	str	w0, [x21, #76]
  406438:	17fffef8 	b	406018 <parse_gopts_and_fopts+0x68>
  40643c:	b94042a0 	ldr	w0, [x21, #64]
  406440:	7100081f 	cmp	w0, #0x2
  406444:	540039c1 	b.ne	406b7c <parse_gopts_and_fopts+0xbcc>  // b.any
  406448:	b9404ea0 	ldr	w0, [x21, #76]
  40644c:	35003980 	cbnz	w0, 406b7c <parse_gopts_and_fopts+0xbcc>
  406450:	f9422278 	ldr	x24, [x19, #1088]
  406454:	d0000034 	adrp	x20, 40c000 <__dso_handle+0x1fa8>
  406458:	91386294 	add	x20, x20, #0xe18
  40645c:	52800002 	mov	w2, #0x0                   	// #0
  406460:	91234294 	add	x20, x20, #0x8d0
  406464:	aa1803e0 	mov	x0, x24
  406468:	aa1403e1 	mov	x1, x20
  40646c:	97ffefcd 	bl	4023a0 <lsx_find_enum_text@plt>
  406470:	b40037e0 	cbz	x0, 406b6c <parse_gopts_and_fopts+0xbbc>
  406474:	b9400800 	ldr	w0, [x0, #8]
  406478:	7100041f 	cmp	w0, #0x1
  40647c:	54ffe160 	b.eq	4060a8 <parse_gopts_and_fopts+0xf8>  // b.none
  406480:	7100081f 	cmp	w0, #0x2
  406484:	54fffd60 	b.eq	406430 <parse_gopts_and_fopts+0x480>  // b.none
  406488:	35ffdc80 	cbnz	w0, 406018 <parse_gopts_and_fopts+0x68>
  40648c:	d503201f 	nop
  406490:	b90042bf 	str	wzr, [x21, #64]
  406494:	17fffee1 	b	406018 <parse_gopts_and_fopts+0x68>
  406498:	97fff09e 	bl	402710 <sox_get_globals@plt>
  40649c:	f9422261 	ldr	x1, [x19, #1088]
  4064a0:	90000022 	adrp	x2, 40a000 <soxi1+0x330>
  4064a4:	910b0042 	add	x2, x2, #0x2c0
  4064a8:	f9002002 	str	x2, [x0, #64]
  4064ac:	90000020 	adrp	x0, 40a000 <soxi1+0x330>
  4064b0:	9134e000 	add	x0, x0, #0xd38
  4064b4:	97ffefe3 	bl	402440 <lsx_fail_impl@plt>
  4064b8:	52800020 	mov	w0, #0x1                   	// #1
  4064bc:	97fff119 	bl	402920 <exit@plt>
  4064c0:	d2800000 	mov	x0, #0x0                   	// #0
  4064c4:	97fff9e7 	bl	404c60 <usage>
  4064c8:	90000020 	adrp	x0, 40a000 <soxi1+0x330>
  4064cc:	91346000 	add	x0, x0, #0xd18
  4064d0:	97fff9e4 	bl	404c60 <usage>
  4064d4:	f9422260 	ldr	x0, [x19, #1088]
  4064d8:	97fff062 	bl	402660 <lsx_strdup@plt>
  4064dc:	f901f260 	str	x0, [x19, #992]
  4064e0:	17fffece 	b	406018 <parse_gopts_and_fopts+0x68>
  4064e4:	97fff08b 	bl	402710 <sox_get_globals@plt>
  4064e8:	b900541f 	str	wzr, [x0, #84]
  4064ec:	17fffecb 	b	406018 <parse_gopts_and_fopts+0x68>
  4064f0:	92800020 	mov	x0, #0xfffffffffffffffe    	// #-2
  4064f4:	f90012a0 	str	x0, [x21, #32]
  4064f8:	17fffec8 	b	406018 <parse_gopts_and_fopts+0x68>
  4064fc:	f9422260 	ldr	x0, [x19, #1088]
  406500:	52800021 	mov	w1, #0x1                   	// #1
  406504:	b904ee61 	str	w1, [x19, #1260]
  406508:	b904f261 	str	w1, [x19, #1264]
  40650c:	97fff055 	bl	402660 <lsx_strdup@plt>
  406510:	f901fa60 	str	x0, [x19, #1008]
  406514:	17fffec1 	b	406018 <parse_gopts_and_fopts+0x68>
  406518:	97fff07e 	bl	402710 <sox_get_globals@plt>
  40651c:	b9400b61 	ldr	w1, [x27, #8]
  406520:	360823a1 	tbz	w1, #1, 406994 <parse_gopts_and_fopts+0x9e4>
  406524:	52800021 	mov	w1, #0x1                   	// #1
  406528:	b9005001 	str	w1, [x0, #80]
  40652c:	17fffebb 	b	406018 <parse_gopts_and_fopts+0x68>
  406530:	f9422278 	ldr	x24, [x19, #1088]
  406534:	d0000034 	adrp	x20, 40c000 <__dso_handle+0x1fa8>
  406538:	91386294 	add	x20, x20, #0xe18
  40653c:	52800002 	mov	w2, #0x0                   	// #0
  406540:	91258294 	add	x20, x20, #0x960
  406544:	aa1803e0 	mov	x0, x24
  406548:	aa1403e1 	mov	x1, x20
  40654c:	97ffef95 	bl	4023a0 <lsx_find_enum_text@plt>
  406550:	b4002680 	cbz	x0, 406a20 <parse_gopts_and_fopts+0xa70>
  406554:	d00000c1 	adrp	x1, 420000 <fputs@GLIBC_2.17>
  406558:	b9400800 	ldr	w0, [x0, #8]
  40655c:	b903e020 	str	w0, [x1, #992]
  406560:	17fffeae 	b	406018 <parse_gopts_and_fopts+0x68>
  406564:	f9422261 	ldr	x1, [x19, #1088]
  406568:	b4ffd581 	cbz	x1, 406018 <parse_gopts_and_fopts+0x68>
  40656c:	910182a0 	add	x0, x21, #0x60
  406570:	97ffefdc 	bl	4024e0 <sox_append_comment@plt>
  406574:	17fffea9 	b	406018 <parse_gopts_and_fopts+0x68>
  406578:	f9422260 	ldr	x0, [x19, #1088]
  40657c:	90000021 	adrp	x1, 40a000 <soxi1+0x330>
  406580:	91020fe3 	add	x3, sp, #0x83
  406584:	912d6021 	add	x1, x1, #0xb58
  406588:	910213e2 	add	x2, sp, #0x84
  40658c:	97fff06d 	bl	402740 <__isoc99_sscanf@plt>
  406590:	7100041f 	cmp	w0, #0x1
  406594:	54002981 	b.ne	406ac4 <parse_gopts_and_fopts+0xb14>  // b.any
  406598:	97fff05e 	bl	402710 <sox_get_globals@plt>
  40659c:	b94087f4 	ldr	w20, [sp, #132]
  4065a0:	51002281 	sub	w1, w20, #0x8
  4065a4:	7100203f 	cmp	w1, #0x8
  4065a8:	540028e8 	b.hi	406ac4 <parse_gopts_and_fopts+0xb14>  // b.pmore
  4065ac:	93407e94 	sxtw	x20, w20
  4065b0:	f9002c14 	str	x20, [x0, #88]
  4065b4:	17fffe99 	b	406018 <parse_gopts_and_fopts+0x68>
  4065b8:	d00000c0 	adrp	x0, 420000 <fputs@GLIBC_2.17>
  4065bc:	f9424c00 	ldr	x0, [x0, #1176]
  4065c0:	97fff948 	bl	404ae0 <display_SoX_version>
  4065c4:	52800000 	mov	w0, #0x0                   	// #0
  4065c8:	97fff0d6 	bl	402920 <exit@plt>
  4065cc:	f9422278 	ldr	x24, [x19, #1088]
  4065d0:	d0000034 	adrp	x20, 40c000 <__dso_handle+0x1fa8>
  4065d4:	91386294 	add	x20, x20, #0xe18
  4065d8:	52800002 	mov	w2, #0x0                   	// #0
  4065dc:	91218294 	add	x20, x20, #0x860
  4065e0:	aa1803e0 	mov	x0, x24
  4065e4:	aa1403e1 	mov	x1, x20
  4065e8:	97ffef6e 	bl	4023a0 <lsx_find_enum_text@plt>
  4065ec:	b4002980 	cbz	x0, 406b1c <parse_gopts_and_fopts+0xb6c>
  4065f0:	d00000c1 	adrp	x1, 420000 <fputs@GLIBC_2.17>
  4065f4:	b9400800 	ldr	w0, [x0, #8]
  4065f8:	b903c820 	str	w0, [x1, #968]
  4065fc:	17fffe87 	b	406018 <parse_gopts_and_fopts+0x68>
  406600:	90000021 	adrp	x1, 40a000 <soxi1+0x330>
  406604:	9131e021 	add	x1, x1, #0xc78
  406608:	910182a0 	add	x0, x21, #0x60
  40660c:	f9003be0 	str	x0, [sp, #112]
  406610:	97ffefb4 	bl	4024e0 <sox_append_comment@plt>
  406614:	f9422274 	ldr	x20, [x19, #1088]
  406618:	d2800ca0 	mov	x0, #0x65                  	// #101
  40661c:	f9003ff4 	str	x20, [sp, #120]
  406620:	97fff074 	bl	4027f0 <lsx_malloc@plt>
  406624:	90000021 	adrp	x1, 40a000 <soxi1+0x330>
  406628:	aa0003f8 	mov	x24, x0
  40662c:	91364021 	add	x1, x1, #0xd90
  406630:	aa1403e0 	mov	x0, x20
  406634:	97fff07b 	bl	402820 <fopen@plt>
  406638:	aa0003fa 	mov	x26, x0
  40663c:	b40025c0 	cbz	x0, 406af4 <parse_gopts_and_fopts+0xb44>
  406640:	d2800c99 	mov	x25, #0x64                  	// #100
  406644:	d503201f 	nop
  406648:	d2800014 	mov	x20, #0x0                   	// #0
  40664c:	14000003 	b	406658 <parse_gopts_and_fopts+0x6a8>
  406650:	38346b1c 	strb	w28, [x24, x20]
  406654:	91000694 	add	x20, x20, #0x1
  406658:	aa1a03e0 	mov	x0, x26
  40665c:	97fff019 	bl	4026c0 <getc@plt>
  406660:	2a0003fc 	mov	w28, w0
  406664:	3100041f 	cmn	w0, #0x1
  406668:	54001520 	b.eq	40690c <parse_gopts_and_fopts+0x95c>  // b.none
  40666c:	2a0003e1 	mov	w1, w0
  406670:	aa1703e0 	mov	x0, x23
  406674:	97ffef9f 	bl	4024f0 <strchr@plt>
  406678:	b50014a0 	cbnz	x0, 40690c <parse_gopts_and_fopts+0x95c>
  40667c:	eb14033f 	cmp	x25, x20
  406680:	54fffe81 	b.ne	406650 <parse_gopts_and_fopts+0x6a0>  // b.any
  406684:	d37ffb39 	lsl	x25, x25, #1
  406688:	aa1803e0 	mov	x0, x24
  40668c:	91000721 	add	x1, x25, #0x1
  406690:	97ffef30 	bl	402350 <lsx_realloc@plt>
  406694:	aa0003f8 	mov	x24, x0
  406698:	17ffffee 	b	406650 <parse_gopts_and_fopts+0x6a0>
  40669c:	910182b4 	add	x20, x21, #0x60
  4066a0:	90000021 	adrp	x1, 40a000 <soxi1+0x330>
  4066a4:	aa1403e0 	mov	x0, x20
  4066a8:	9131e021 	add	x1, x1, #0xc78
  4066ac:	97ffef8d 	bl	4024e0 <sox_append_comment@plt>
  4066b0:	f9422261 	ldr	x1, [x19, #1088]
  4066b4:	39400020 	ldrb	w0, [x1]
  4066b8:	34ffcb00 	cbz	w0, 406018 <parse_gopts_and_fopts+0x68>
  4066bc:	aa1403e0 	mov	x0, x20
  4066c0:	97ffef88 	bl	4024e0 <sox_append_comment@plt>
  4066c4:	17fffe55 	b	406018 <parse_gopts_and_fopts+0x68>
  4066c8:	f9422260 	ldr	x0, [x19, #1088]
  4066cc:	90000021 	adrp	x1, 40a000 <soxi1+0x330>
  4066d0:	91020fe3 	add	x3, sp, #0x83
  4066d4:	912d6021 	add	x1, x1, #0xb58
  4066d8:	910213e2 	add	x2, sp, #0x84
  4066dc:	97fff019 	bl	402740 <__isoc99_sscanf@plt>
  4066e0:	7100041f 	cmp	w0, #0x1
  4066e4:	54001c61 	b.ne	406a70 <parse_gopts_and_fopts+0xac0>  // b.any
  4066e8:	b94087f4 	ldr	w20, [sp, #132]
  4066ec:	7100429f 	cmp	w20, #0x10
  4066f0:	54001c0d 	b.le	406a70 <parse_gopts_and_fopts+0xac0>
  4066f4:	93407e94 	sxtw	x20, w20
  4066f8:	97fff006 	bl	402710 <sox_get_globals@plt>
  4066fc:	f9001014 	str	x20, [x0, #32]
  406700:	17fffe46 	b	406018 <parse_gopts_and_fopts+0x68>
  406704:	52800020 	mov	w0, #0x1                   	// #1
  406708:	b90132a0 	str	w0, [x21, #304]
  40670c:	17fffe43 	b	406018 <parse_gopts_and_fopts+0x68>
  406710:	52800020 	mov	w0, #0x1                   	// #1
  406714:	b9049260 	str	w0, [x19, #1168]
  406718:	17fffe40 	b	406018 <parse_gopts_and_fopts+0x68>
  40671c:	f9422279 	ldr	x25, [x19, #1088]
  406720:	d0000034 	adrp	x20, 40c000 <__dso_handle+0x1fa8>
  406724:	91386294 	add	x20, x20, #0xe18
  406728:	52800002 	mov	w2, #0x0                   	// #0
  40672c:	91244294 	add	x20, x20, #0x910
  406730:	aa1903e0 	mov	x0, x25
  406734:	aa1403e1 	mov	x1, x20
  406738:	97ffef1a 	bl	4023a0 <lsx_find_enum_text@plt>
  40673c:	aa0003f8 	mov	x24, x0
  406740:	b4001780 	cbz	x0, 406a30 <parse_gopts_and_fopts+0xa80>
  406744:	97fff08f 	bl	402980 <sox_get_effects_globals@plt>
  406748:	b9400b01 	ldr	w1, [x24, #8]
  40674c:	b9000001 	str	w1, [x0]
  406750:	17fffe32 	b	406018 <parse_gopts_and_fopts+0x68>
  406754:	f9422260 	ldr	x0, [x19, #1088]
  406758:	90000021 	adrp	x1, 40a000 <soxi1+0x330>
  40675c:	91020fe3 	add	x3, sp, #0x83
  406760:	912d6021 	add	x1, x1, #0xb58
  406764:	910213e2 	add	x2, sp, #0x84
  406768:	97ffeff6 	bl	402740 <__isoc99_sscanf@plt>
  40676c:	7100041f 	cmp	w0, #0x1
  406770:	54001801 	b.ne	406a70 <parse_gopts_and_fopts+0xac0>  // b.any
  406774:	b94087f4 	ldr	w20, [sp, #132]
  406778:	7100429f 	cmp	w20, #0x10
  40677c:	540017ad 	b.le	406a70 <parse_gopts_and_fopts+0xac0>
  406780:	93407e94 	sxtw	x20, w20
  406784:	97ffefe3 	bl	402710 <sox_get_globals@plt>
  406788:	f9000c14 	str	x20, [x0, #24]
  40678c:	17fffe23 	b	406018 <parse_gopts_and_fopts+0x68>
  406790:	52800020 	mov	w0, #0x1                   	// #1
  406794:	b903fe60 	str	w0, [x19, #1020]
  406798:	17fffe20 	b	406018 <parse_gopts_and_fopts+0x68>
  40679c:	97ffefdd 	bl	402710 <sox_get_globals@plt>
  4067a0:	52800021 	mov	w1, #0x1                   	// #1
  4067a4:	b9005401 	str	w1, [x0, #84]
  4067a8:	17fffe1c 	b	406018 <parse_gopts_and_fopts+0x68>
  4067ac:	b903fe7f 	str	wzr, [x19, #1020]
  4067b0:	17fffe1a 	b	406018 <parse_gopts_and_fopts+0x68>
  4067b4:	f9422260 	ldr	x0, [x19, #1088]
  4067b8:	97ffefaa 	bl	402660 <lsx_strdup@plt>
  4067bc:	f901f660 	str	x0, [x19, #1000]
  4067c0:	17fffe16 	b	406018 <parse_gopts_and_fopts+0x68>
  4067c4:	97ffefd3 	bl	402710 <sox_get_globals@plt>
  4067c8:	aa0003f4 	mov	x20, x0
  4067cc:	f9422260 	ldr	x0, [x19, #1088]
  4067d0:	97ffefa4 	bl	402660 <lsx_strdup@plt>
  4067d4:	f9002680 	str	x0, [x20, #72]
  4067d8:	17fffe10 	b	406018 <parse_gopts_and_fopts+0x68>
  4067dc:	d00000d9 	adrp	x25, 420000 <fputs@GLIBC_2.17>
  4067e0:	90000035 	adrp	x21, 40a000 <soxi1+0x330>
  4067e4:	f9422274 	ldr	x20, [x19, #1088]
  4067e8:	912fe2b5 	add	x21, x21, #0xbf8
  4067ec:	f9424f20 	ldr	x0, [x25, #1176]
  4067f0:	97fff8bc 	bl	404ae0 <display_SoX_version>
  4067f4:	f9424f21 	ldr	x1, [x25, #1176]
  4067f8:	52800140 	mov	w0, #0xa                   	// #10
  4067fc:	97ffef09 	bl	402420 <putc@plt>
  406800:	aa1403e1 	mov	x1, x20
  406804:	aa1503e0 	mov	x0, x21
  406808:	97fff00e 	bl	402840 <strcmp@plt>
  40680c:	34000080 	cbz	w0, 40681c <parse_gopts_and_fopts+0x86c>
  406810:	aa1403e0 	mov	x0, x20
  406814:	97ffef4b 	bl	402540 <sox_find_effect@plt>
  406818:	b4000e60 	cbz	x0, 4069e4 <parse_gopts_and_fopts+0xa34>
  40681c:	90000037 	adrp	x23, 40a000 <soxi1+0x330>
  406820:	b0000036 	adrp	x22, 40b000 <__dso_handle+0xfa8>
  406824:	9130e2f7 	add	x23, x23, #0xc38
  406828:	910c62d6 	add	x22, x22, #0x318
  40682c:	d2800018 	mov	x24, #0x0                   	// #0
  406830:	5280c81a 	mov	w26, #0x640                 	// #1600
  406834:	90000020 	adrp	x0, 40a000 <soxi1+0x330>
  406838:	9130a000 	add	x0, x0, #0xc28
  40683c:	97ffeec9 	bl	402360 <puts@plt>
  406840:	97ffeffc 	bl	402830 <sox_get_effect_fns@plt>
  406844:	f8786800 	ldr	x0, [x0, x24]
  406848:	b4000ca0 	cbz	x0, 4069dc <parse_gopts_and_fopts+0xa2c>
  40684c:	d63f0000 	blr	x0
  406850:	aa0003f3 	mov	x19, x0
  406854:	b4000300 	cbz	x0, 4068b4 <parse_gopts_and_fopts+0x904>
  406858:	f940001b 	ldr	x27, [x0]
  40685c:	b40002db 	cbz	x27, 4068b4 <parse_gopts_and_fopts+0x904>
  406860:	aa1403e1 	mov	x1, x20
  406864:	aa1503e0 	mov	x0, x21
  406868:	97ffeff6 	bl	402840 <strcmp@plt>
  40686c:	340000a0 	cbz	w0, 406880 <parse_gopts_and_fopts+0x8d0>
  406870:	aa1403e1 	mov	x1, x20
  406874:	aa1b03e0 	mov	x0, x27
  406878:	97ffeff2 	bl	402840 <strcmp@plt>
  40687c:	350001c0 	cbnz	w0, 4068b4 <parse_gopts_and_fopts+0x904>
  406880:	f9400662 	ldr	x2, [x19, #8]
  406884:	b4000c82 	cbz	x2, 406a14 <parse_gopts_and_fopts+0xa64>
  406888:	aa1b03e1 	mov	x1, x27
  40688c:	aa1703e0 	mov	x0, x23
  406890:	97fff06c 	bl	402a40 <printf@plt>
  406894:	b9401260 	ldr	w0, [x19, #16]
  406898:	6a1a001f 	tst	w0, w26
  40689c:	54000b01 	b.ne	4069fc <parse_gopts_and_fopts+0xa4c>  // b.any
  4068a0:	37300d00 	tbnz	w0, #6, 406a40 <parse_gopts_and_fopts+0xa90>
  4068a4:	37480860 	tbnz	w0, #9, 4069b0 <parse_gopts_and_fopts+0xa00>
  4068a8:	37500da0 	tbnz	w0, #10, 406a5c <parse_gopts_and_fopts+0xaac>
  4068ac:	aa1603e0 	mov	x0, x22
  4068b0:	97ffeeac 	bl	402360 <puts@plt>
  4068b4:	91002318 	add	x24, x24, #0x8
  4068b8:	17ffffe2 	b	406840 <parse_gopts_and_fopts+0x890>
  4068bc:	d00000c0 	adrp	x0, 420000 <fputs@GLIBC_2.17>
  4068c0:	f9422273 	ldr	x19, [x19, #1088]
  4068c4:	f9424c00 	ldr	x0, [x0, #1176]
  4068c8:	97fff886 	bl	404ae0 <display_SoX_version>
  4068cc:	90000020 	adrp	x0, 40a000 <soxi1+0x330>
  4068d0:	aa1303e1 	mov	x1, x19
  4068d4:	912fe000 	add	x0, x0, #0xbf8
  4068d8:	97ffefda 	bl	402840 <strcmp@plt>
  4068dc:	35000760 	cbnz	w0, 4069c8 <parse_gopts_and_fopts+0xa18>
  4068e0:	52800013 	mov	w19, #0x0                   	// #0
  4068e4:	97ffeeb3 	bl	4023b0 <sox_get_format_fns@plt>
  4068e8:	d37c7e61 	ubfiz	x1, x19, #4, #32
  4068ec:	8b010000 	add	x0, x0, x1
  4068f0:	f9400400 	ldr	x0, [x0, #8]
  4068f4:	b4000740 	cbz	x0, 4069dc <parse_gopts_and_fopts+0xa2c>
  4068f8:	d63f0000 	blr	x0
  4068fc:	b9401801 	ldr	w1, [x0, #24]
  406900:	36100f41 	tbz	w1, #2, 406ae8 <parse_gopts_and_fopts+0xb38>
  406904:	11000673 	add	w19, w19, #0x1
  406908:	17fffff7 	b	4068e4 <parse_gopts_and_fopts+0x934>
  40690c:	aa1a03e0 	mov	x0, x26
  406910:	97fff020 	bl	402990 <ferror@plt>
  406914:	35001180 	cbnz	w0, 406b44 <parse_gopts_and_fopts+0xb94>
  406918:	b5000114 	cbnz	x20, 406938 <parse_gopts_and_fopts+0x988>
  40691c:	3100079f 	cmn	w28, #0x1
  406920:	54ffe941 	b.ne	406648 <parse_gopts_and_fopts+0x698>  // b.any
  406924:	aa1a03e0 	mov	x0, x26
  406928:	97ffeeca 	bl	402450 <fclose@plt>
  40692c:	aa1803e0 	mov	x0, x24
  406930:	97ffeee4 	bl	4024c0 <free@plt>
  406934:	17fffdb9 	b	406018 <parse_gopts_and_fopts+0x68>
  406938:	f9403be0 	ldr	x0, [sp, #112]
  40693c:	38346b1f 	strb	wzr, [x24, x20]
  406940:	aa1803e1 	mov	x1, x24
  406944:	97ffeee7 	bl	4024e0 <sox_append_comment@plt>
  406948:	17fffff5 	b	40691c <parse_gopts_and_fopts+0x96c>
  40694c:	52800220 	mov	w0, #0x11                  	// #17
  406950:	b90032a0 	str	w0, [x21, #48]
  406954:	17fffdb1 	b	406018 <parse_gopts_and_fopts+0x68>
  406958:	52800200 	mov	w0, #0x10                  	// #16
  40695c:	b90032a0 	str	w0, [x21, #48]
  406960:	17fffdae 	b	406018 <parse_gopts_and_fopts+0x68>
  406964:	b94036a0 	ldr	w0, [x21, #52]
  406968:	52800121 	mov	w1, #0x9                   	// #9
  40696c:	b90032a1 	str	w1, [x21, #48]
  406970:	35ffb540 	cbnz	w0, 406018 <parse_gopts_and_fopts+0x68>
  406974:	52800100 	mov	w0, #0x8                   	// #8
  406978:	17fffe8f 	b	4063b4 <parse_gopts_and_fopts+0x404>
  40697c:	52800060 	mov	w0, #0x3                   	// #3
  406980:	b90032a0 	str	w0, [x21, #48]
  406984:	17fffda5 	b	406018 <parse_gopts_and_fopts+0x68>
  406988:	52800020 	mov	w0, #0x1                   	// #1
  40698c:	b90032a0 	str	w0, [x21, #48]
  406990:	17fffda2 	b	406018 <parse_gopts_and_fopts+0x68>
  406994:	90000021 	adrp	x1, 40a000 <soxi1+0x330>
  406998:	910b0021 	add	x1, x1, #0x2c0
  40699c:	f9002001 	str	x1, [x0, #64]
  4069a0:	90000020 	adrp	x0, 40a000 <soxi1+0x330>
  4069a4:	91330000 	add	x0, x0, #0xcc0
  4069a8:	97ffeeba 	bl	402490 <lsx_warn_impl@plt>
  4069ac:	17fffd9b 	b	406018 <parse_gopts_and_fopts+0x68>
  4069b0:	f9400261 	ldr	x1, [x19]
  4069b4:	90000020 	adrp	x0, 40a000 <soxi1+0x330>
  4069b8:	91316000 	add	x0, x0, #0xc58
  4069bc:	97fff021 	bl	402a40 <printf@plt>
  4069c0:	b9401260 	ldr	w0, [x19, #16]
  4069c4:	17ffffb9 	b	4068a8 <parse_gopts_and_fopts+0x8f8>
  4069c8:	aa1303e0 	mov	x0, x19
  4069cc:	52800001 	mov	w1, #0x0                   	// #0
  4069d0:	97ffeeb8 	bl	4024b0 <sox_find_format@plt>
  4069d4:	b4000ac0 	cbz	x0, 406b2c <parse_gopts_and_fopts+0xb7c>
  4069d8:	97fff702 	bl	4045e0 <usage_format1>
  4069dc:	52800020 	mov	w0, #0x1                   	// #1
  4069e0:	97ffefd0 	bl	402920 <exit@plt>
  4069e4:	aa1403e1 	mov	x1, x20
  4069e8:	90000020 	adrp	x0, 40a000 <soxi1+0x330>
  4069ec:	91300000 	add	x0, x0, #0xc00
  4069f0:	97fff014 	bl	402a40 <printf@plt>
  4069f4:	97fff63b 	bl	4042e0 <display_supported_effects>
  4069f8:	17fffff9 	b	4069dc <parse_gopts_and_fopts+0xa2c>
  4069fc:	f9424f21 	ldr	x1, [x25, #1176]
  406a00:	52800140 	mov	w0, #0xa                   	// #10
  406a04:	97ffee87 	bl	402420 <putc@plt>
  406a08:	b9401260 	ldr	w0, [x19, #16]
  406a0c:	3637f4c0 	tbz	w0, #6, 4068a4 <parse_gopts_and_fopts+0x8f4>
  406a10:	1400000c 	b	406a40 <parse_gopts_and_fopts+0xa90>
  406a14:	90000022 	adrp	x2, 40a000 <soxi1+0x330>
  406a18:	9131e042 	add	x2, x2, #0xc78
  406a1c:	17ffff9b 	b	406888 <parse_gopts_and_fopts+0x8d8>
  406a20:	aa1403e2 	mov	x2, x20
  406a24:	aa1803e0 	mov	x0, x24
  406a28:	52800181 	mov	w1, #0xc                   	// #12
  406a2c:	97fffa3a 	bl	405314 <enum_option.part.0>
  406a30:	aa1403e2 	mov	x2, x20
  406a34:	aa1903e0 	mov	x0, x25
  406a38:	52800161 	mov	w1, #0xb                   	// #11
  406a3c:	97fffa36 	bl	405314 <enum_option.part.0>
  406a40:	f9400261 	ldr	x1, [x19]
  406a44:	90000020 	adrp	x0, 40a000 <soxi1+0x330>
  406a48:	91310000 	add	x0, x0, #0xc40
  406a4c:	97ffeffd 	bl	402a40 <printf@plt>
  406a50:	b9401260 	ldr	w0, [x19, #16]
  406a54:	364ff2a0 	tbz	w0, #9, 4068a8 <parse_gopts_and_fopts+0x8f8>
  406a58:	17ffffd6 	b	4069b0 <parse_gopts_and_fopts+0xa00>
  406a5c:	f9400261 	ldr	x1, [x19]
  406a60:	90000020 	adrp	x0, 40a000 <soxi1+0x330>
  406a64:	91320000 	add	x0, x0, #0xc80
  406a68:	97ffeff6 	bl	402a40 <printf@plt>
  406a6c:	17ffff90 	b	4068ac <parse_gopts_and_fopts+0x8fc>
  406a70:	97ffef28 	bl	402710 <sox_get_globals@plt>
  406a74:	f9422261 	ldr	x1, [x19, #1088]
  406a78:	90000022 	adrp	x2, 40a000 <soxi1+0x330>
  406a7c:	910b0042 	add	x2, x2, #0x2c0
  406a80:	f9002002 	str	x2, [x0, #64]
  406a84:	52800202 	mov	w2, #0x10                  	// #16
  406a88:	90000020 	adrp	x0, 40a000 <soxi1+0x330>
  406a8c:	912d8000 	add	x0, x0, #0xb60
  406a90:	97ffee6c 	bl	402440 <lsx_fail_impl@plt>
  406a94:	52800020 	mov	w0, #0x1                   	// #1
  406a98:	97ffefa2 	bl	402920 <exit@plt>
  406a9c:	97ffef1d 	bl	402710 <sox_get_globals@plt>
  406aa0:	f9422261 	ldr	x1, [x19, #1088]
  406aa4:	90000022 	adrp	x2, 40a000 <soxi1+0x330>
  406aa8:	910b0042 	add	x2, x2, #0x2c0
  406aac:	f9002002 	str	x2, [x0, #64]
  406ab0:	90000020 	adrp	x0, 40a000 <soxi1+0x330>
  406ab4:	91390000 	add	x0, x0, #0xe40
  406ab8:	97ffee62 	bl	402440 <lsx_fail_impl@plt>
  406abc:	52800020 	mov	w0, #0x1                   	// #1
  406ac0:	97ffef98 	bl	402920 <exit@plt>
  406ac4:	97ffef13 	bl	402710 <sox_get_globals@plt>
  406ac8:	aa0003e2 	mov	x2, x0
  406acc:	90000021 	adrp	x1, 40a000 <soxi1+0x330>
  406ad0:	910b0021 	add	x1, x1, #0x2c0
  406ad4:	90000020 	adrp	x0, 40a000 <soxi1+0x330>
  406ad8:	9133c000 	add	x0, x0, #0xcf0
  406adc:	f9002041 	str	x1, [x2, #64]
  406ae0:	97ffee58 	bl	402440 <lsx_fail_impl@plt>
  406ae4:	17ffffbe 	b	4069dc <parse_gopts_and_fopts+0xa2c>
  406ae8:	11000673 	add	w19, w19, #0x1
  406aec:	97fff6bd 	bl	4045e0 <usage_format1>
  406af0:	17ffff7d 	b	4068e4 <parse_gopts_and_fopts+0x934>
  406af4:	97ffef07 	bl	402710 <sox_get_globals@plt>
  406af8:	f9403fe1 	ldr	x1, [sp, #120]
  406afc:	90000022 	adrp	x2, 40a000 <soxi1+0x330>
  406b00:	910b0042 	add	x2, x2, #0x2c0
  406b04:	90000023 	adrp	x3, 40a000 <soxi1+0x330>
  406b08:	f9002002 	str	x2, [x0, #64]
  406b0c:	912e0060 	add	x0, x3, #0xb80
  406b10:	97ffee4c 	bl	402440 <lsx_fail_impl@plt>
  406b14:	52800020 	mov	w0, #0x1                   	// #1
  406b18:	97ffef82 	bl	402920 <exit@plt>
  406b1c:	aa1403e2 	mov	x2, x20
  406b20:	aa1803e0 	mov	x0, x24
  406b24:	52800041 	mov	w1, #0x2                   	// #2
  406b28:	97fff9fb 	bl	405314 <enum_option.part.0>
  406b2c:	aa1303e1 	mov	x1, x19
  406b30:	90000020 	adrp	x0, 40a000 <soxi1+0x330>
  406b34:	91326000 	add	x0, x0, #0xc98
  406b38:	97ffefc2 	bl	402a40 <printf@plt>
  406b3c:	97fff619 	bl	4043a0 <display_supported_formats>
  406b40:	17ffffa7 	b	4069dc <parse_gopts_and_fopts+0xa2c>
  406b44:	97ffeef3 	bl	402710 <sox_get_globals@plt>
  406b48:	f9403fe1 	ldr	x1, [sp, #120]
  406b4c:	90000022 	adrp	x2, 40a000 <soxi1+0x330>
  406b50:	910b0042 	add	x2, x2, #0x2c0
  406b54:	90000023 	adrp	x3, 40a000 <soxi1+0x330>
  406b58:	f9002002 	str	x2, [x0, #64]
  406b5c:	912ea060 	add	x0, x3, #0xba8
  406b60:	97ffee38 	bl	402440 <lsx_fail_impl@plt>
  406b64:	52800020 	mov	w0, #0x1                   	// #1
  406b68:	97ffef6e 	bl	402920 <exit@plt>
  406b6c:	aa1403e2 	mov	x2, x20
  406b70:	aa1803e0 	mov	x0, x24
  406b74:	528000a1 	mov	w1, #0x5                   	// #5
  406b78:	97fff9e7 	bl	405314 <enum_option.part.0>
  406b7c:	90000020 	adrp	x0, 40a000 <soxi1+0x330>
  406b80:	912f2000 	add	x0, x0, #0xbc8
  406b84:	97fff837 	bl	404c60 <usage>
  406b88:	aa1803e2 	mov	x2, x24
  406b8c:	2a1403e1 	mov	w1, w20
  406b90:	aa1903e0 	mov	x0, x25
  406b94:	97fff9e0 	bl	405314 <enum_option.part.0>
  406b98:	97ffeede 	bl	402710 <sox_get_globals@plt>
  406b9c:	f9401e81 	ldr	x1, [x20, #56]
  406ba0:	90000022 	adrp	x2, 40a000 <soxi1+0x330>
  406ba4:	910b0042 	add	x2, x2, #0x2c0
  406ba8:	f9002002 	str	x2, [x0, #64]
  406bac:	90000020 	adrp	x0, 40a000 <soxi1+0x330>
  406bb0:	9135c000 	add	x0, x0, #0xd70
  406bb4:	97ffee23 	bl	402440 <lsx_fail_impl@plt>
  406bb8:	52800020 	mov	w0, #0x1                   	// #1
  406bbc:	97ffef59 	bl	402920 <exit@plt>
  406bc0:	97ffeed4 	bl	402710 <sox_get_globals@plt>
  406bc4:	52800041 	mov	w1, #0x2                   	// #2
  406bc8:	b9000001 	str	w1, [x0]
  406bcc:	97ffeed1 	bl	402710 <sox_get_globals@plt>
  406bd0:	f9422261 	ldr	x1, [x19, #1088]
  406bd4:	90000022 	adrp	x2, 40a000 <soxi1+0x330>
  406bd8:	910b0042 	add	x2, x2, #0x2c0
  406bdc:	f9002002 	str	x2, [x0, #64]
  406be0:	90000020 	adrp	x0, 40a000 <soxi1+0x330>
  406be4:	9139c000 	add	x0, x0, #0xe70
  406be8:	97ffee16 	bl	402440 <lsx_fail_impl@plt>
  406bec:	52800020 	mov	w0, #0x1                   	// #1
  406bf0:	97ffef4c 	bl	402920 <exit@plt>
  406bf4:	97ffeec7 	bl	402710 <sox_get_globals@plt>
  406bf8:	f9422261 	ldr	x1, [x19, #1088]
  406bfc:	90000022 	adrp	x2, 40a000 <soxi1+0x330>
  406c00:	910b0042 	add	x2, x2, #0x2c0
  406c04:	f9002002 	str	x2, [x0, #64]
  406c08:	90000020 	adrp	x0, 40a000 <soxi1+0x330>
  406c0c:	9137a000 	add	x0, x0, #0xde8
  406c10:	97ffee0c 	bl	402440 <lsx_fail_impl@plt>
  406c14:	52800020 	mov	w0, #0x1                   	// #1
  406c18:	97ffef42 	bl	402920 <exit@plt>
  406c1c:	97ffedf9 	bl	402400 <__stack_chk_fail@plt>

0000000000406c20 <parse_options_and_filenames>:
  406c20:	d10d43ff 	sub	sp, sp, #0x350
  406c24:	b00000c2 	adrp	x2, 41f000 <__FRAME_END__+0x10b24>
  406c28:	91370042 	add	x2, x2, #0xdc0
  406c2c:	a9007bfd 	stp	x29, x30, [sp]
  406c30:	910003fd 	mov	x29, sp
  406c34:	a90153f3 	stp	x19, x20, [sp, #16]
  406c38:	d00000d3 	adrp	x19, 420000 <fputs@GLIBC_2.17>
  406c3c:	9112c273 	add	x19, x19, #0x4b0
  406c40:	a9025bf5 	stp	x21, x22, [sp, #32]
  406c44:	2a0003f6 	mov	w22, w0
  406c48:	aa0103f5 	mov	x21, x1
  406c4c:	a90363f7 	stp	x23, x24, [sp, #48]
  406c50:	a9046bf9 	stp	x25, x26, [sp, #64]
  406c54:	f9400040 	ldr	x0, [x2]
  406c58:	f901a7e0 	str	x0, [sp, #840]
  406c5c:	d2800000 	mov	x0, #0x0                   	// #0
  406c60:	90000020 	adrp	x0, 40a000 <soxi1+0x330>
  406c64:	9128e000 	add	x0, x0, #0xa38
  406c68:	97ffef22 	bl	4028f0 <getenv@plt>
  406c6c:	aa0003f7 	mov	x23, x0
  406c70:	910283e0 	add	x0, sp, #0xa0
  406c74:	97fff707 	bl	404890 <init_file>
  406c78:	9107e3e0 	add	x0, sp, #0x1f8
  406c7c:	97fff705 	bl	404890 <init_file>
  406c80:	b9436260 	ldr	w0, [x19, #864]
  406c84:	7100081f 	cmp	w0, #0x2
  406c88:	54001980 	b.eq	406fb8 <parse_options_and_filenames+0x398>  // b.none
  406c8c:	b4001a77 	cbz	x23, 406fd8 <parse_options_and_filenames+0x3b8>
  406c90:	394002e0 	ldrb	w0, [x23]
  406c94:	35001c20 	cbnz	w0, 407018 <parse_options_and_filenames+0x3f8>
  406c98:	d0000039 	adrp	x25, 40c000 <__dso_handle+0x1fa8>
  406c9c:	90000038 	adrp	x24, 40a000 <soxi1+0x330>
  406ca0:	91386339 	add	x25, x25, #0xe18
  406ca4:	913aa318 	add	x24, x24, #0xea8
  406ca8:	91102274 	add	x20, x19, #0x408
  406cac:	aa1803e2 	mov	x2, x24
  406cb0:	52800025 	mov	w5, #0x1                   	// #1
  406cb4:	91080323 	add	x3, x25, #0x200
  406cb8:	aa1403e6 	mov	x6, x20
  406cbc:	aa1503e1 	mov	x1, x21
  406cc0:	2a0503e4 	mov	w4, w5
  406cc4:	2a1603e0 	mov	w0, w22
  406cc8:	97ffed9e 	bl	402340 <lsx_getopt_init@plt>
  406ccc:	b9443a62 	ldr	w2, [x19, #1080]
  406cd0:	6b0202df 	cmp	w22, w2
  406cd4:	5400084d 	b.le	406ddc <parse_options_and_filenames+0x1bc>
  406cd8:	d0fffff9 	adrp	x25, 404000 <combiner_stop+0x30>
  406cdc:	90000038 	adrp	x24, 40a000 <soxi1+0x330>
  406ce0:	9137c339 	add	x25, x25, #0xdf0
  406ce4:	910d4318 	add	x24, x24, #0x350
  406ce8:	f862daa0 	ldr	x0, [x21, w2, sxtw #3]
  406cec:	97ffee15 	bl	402540 <sox_find_effect@plt>
  406cf0:	b5000740 	cbnz	x0, 406dd8 <parse_options_and_filenames+0x1b8>
  406cf4:	910283e0 	add	x0, sp, #0xa0
  406cf8:	97fffcae 	bl	405fb0 <parse_gopts_and_fopts>
  406cfc:	12001c00 	and	w0, w0, #0xff
  406d00:	7101b81f 	cmp	w0, #0x6e
  406d04:	540009a0 	b.eq	406e38 <parse_options_and_filenames+0x218>  // b.none
  406d08:	7101901f 	cmp	w0, #0x64
  406d0c:	54001080 	b.eq	406f1c <parse_options_and_filenames+0x2fc>  // b.none
  406d10:	7101c01f 	cmp	w0, #0x70
  406d14:	54000ce0 	b.eq	406eb0 <parse_options_and_filenames+0x290>  // b.none
  406d18:	b9443a60 	ldr	w0, [x19, #1080]
  406d1c:	91102274 	add	x20, x19, #0x408
  406d20:	6b16001f 	cmp	w0, w22
  406d24:	540005aa 	b.ge	406dd8 <parse_options_and_filenames+0x1b8>  // b.tcont
  406d28:	f860daba 	ldr	x26, [x21, w0, sxtw #3]
  406d2c:	aa1a03e0 	mov	x0, x26
  406d30:	97ffee04 	bl	402540 <sox_find_effect@plt>
  406d34:	b5000520 	cbnz	x0, 406dd8 <parse_options_and_filenames+0x1b8>
  406d38:	aa1a03e0 	mov	x0, x26
  406d3c:	97ffeea5 	bl	4027d0 <sox_is_playlist@plt>
  406d40:	35000da0 	cbnz	w0, 406ef4 <parse_options_and_filenames+0x2d4>
  406d44:	b9403280 	ldr	w0, [x20, #48]
  406d48:	b941d3e1 	ldr	w1, [sp, #464]
  406d4c:	11000402 	add	w2, w0, #0x1
  406d50:	f860daa0 	ldr	x0, [x21, w0, sxtw #3]
  406d54:	b9003282 	str	w2, [x20, #48]
  406d58:	35001001 	cbnz	w1, 406f58 <parse_options_and_filenames+0x338>
  406d5c:	910163e3 	add	x3, sp, #0x58
  406d60:	d2800002 	mov	x2, #0x0                   	// #0
  406d64:	52828201 	mov	w1, #0x1410                	// #5136
  406d68:	97ffee66 	bl	402700 <glob@plt>
  406d6c:	35001c20 	cbnz	w0, 4070f0 <parse_options_and_filenames+0x4d0>
  406d70:	f9402fe0 	ldr	x0, [sp, #88]
  406d74:	d2800014 	mov	x20, #0x0                   	// #0
  406d78:	b4000140 	cbz	x0, 406da0 <parse_options_and_filenames+0x180>
  406d7c:	d503201f 	nop
  406d80:	f94033e1 	ldr	x1, [sp, #96]
  406d84:	910283e0 	add	x0, sp, #0xa0
  406d88:	f8747821 	ldr	x1, [x1, x20, lsl #3]
  406d8c:	91000694 	add	x20, x20, #0x1
  406d90:	97fff818 	bl	404df0 <add_file>
  406d94:	f9402fe0 	ldr	x0, [sp, #88]
  406d98:	eb00029f 	cmp	x20, x0
  406d9c:	54ffff23 	b.cc	406d80 <parse_options_and_filenames+0x160>  // b.lo, b.ul, b.last
  406da0:	910163e0 	add	x0, sp, #0x58
  406da4:	97ffeef3 	bl	402970 <globfree@plt>
  406da8:	d2802a02 	mov	x2, #0x150                 	// #336
  406dac:	52800001 	mov	w1, #0x0                   	// #0
  406db0:	910283e0 	add	x0, sp, #0xa0
  406db4:	97ffedc7 	bl	4024d0 <memset@plt>
  406db8:	910343e0 	add	x0, sp, #0xd0
  406dbc:	97ffeec5 	bl	4028d0 <sox_init_encodinginfo@plt>
  406dc0:	f0000020 	adrp	x0, 40d000 <lines3.7+0x130>
  406dc4:	b9443a62 	ldr	w2, [x19, #1080]
  406dc8:	3dc22400 	ldr	q0, [x0, #2192]
  406dcc:	3d803fe0 	str	q0, [sp, #240]
  406dd0:	6b16005f 	cmp	w2, w22
  406dd4:	54fff8ab 	b.lt	406ce8 <parse_options_and_filenames+0xc8>  // b.tstop
  406dd8:	b4000077 	cbz	x23, 406de4 <parse_options_and_filenames+0x1c4>
  406ddc:	394002e0 	ldrb	w0, [x23]
  406de0:	35000d60 	cbnz	w0, 406f8c <parse_options_and_filenames+0x36c>
  406de4:	b9436260 	ldr	w0, [x19, #864]
  406de8:	7100041f 	cmp	w0, #0x1
  406dec:	54001760 	b.eq	4070d8 <parse_options_and_filenames+0x4b8>  // b.none
  406df0:	9107e3e1 	add	x1, sp, #0x1f8
  406df4:	910283e0 	add	x0, sp, #0xa0
  406df8:	d2802a02 	mov	x2, #0x150                 	// #336
  406dfc:	97ffed9d 	bl	402470 <memcmp@plt>
  406e00:	35001600 	cbnz	w0, 4070c0 <parse_options_and_filenames+0x4a0>
  406e04:	b00000c0 	adrp	x0, 41f000 <__FRAME_END__+0x10b24>
  406e08:	f941a7e2 	ldr	x2, [sp, #840]
  406e0c:	f946e001 	ldr	x1, [x0, #3520]
  406e10:	eb010042 	subs	x2, x2, x1
  406e14:	d2800001 	mov	x1, #0x0                   	// #0
  406e18:	54001861 	b.ne	407124 <parse_options_and_filenames+0x504>  // b.any
  406e1c:	a9407bfd 	ldp	x29, x30, [sp]
  406e20:	a94153f3 	ldp	x19, x20, [sp, #16]
  406e24:	a9425bf5 	ldp	x21, x22, [sp, #32]
  406e28:	a94363f7 	ldp	x23, x24, [sp, #48]
  406e2c:	a9446bf9 	ldp	x25, x26, [sp, #64]
  406e30:	910d43ff 	add	sp, sp, #0x350
  406e34:	d65f03c0 	ret
  406e38:	f94057fa 	ldr	x26, [sp, #168]
  406e3c:	90000034 	adrp	x20, 40a000 <soxi1+0x330>
  406e40:	913bc294 	add	x20, x20, #0xef0
  406e44:	b40000ba 	cbz	x26, 406e58 <parse_options_and_filenames+0x238>
  406e48:	aa1403e1 	mov	x1, x20
  406e4c:	aa1a03e0 	mov	x0, x26
  406e50:	97ffee7c 	bl	402840 <strcmp@plt>
  406e54:	35000700 	cbnz	w0, 406f34 <parse_options_and_filenames+0x314>
  406e58:	d2802a00 	mov	x0, #0x150                 	// #336
  406e5c:	f90057f4 	str	x20, [sp, #168]
  406e60:	97ffee64 	bl	4027f0 <lsx_malloc@plt>
  406e64:	aa0003f4 	mov	x20, x0
  406e68:	910283e1 	add	x1, sp, #0xa0
  406e6c:	d2802a02 	mov	x2, #0x150                 	// #336
  406e70:	97ffed24 	bl	402300 <memcpy@plt>
  406e74:	90000020 	adrp	x0, 40a000 <soxi1+0x330>
  406e78:	9131e000 	add	x0, x0, #0xc78
  406e7c:	97ffedf9 	bl	402660 <lsx_strdup@plt>
  406e80:	f941ae61 	ldr	x1, [x19, #856]
  406e84:	f9000280 	str	x0, [x20]
  406e88:	f941b660 	ldr	x0, [x19, #872]
  406e8c:	91000421 	add	x1, x1, #0x1
  406e90:	d37df021 	lsl	x1, x1, #3
  406e94:	97ffed2f 	bl	402350 <lsx_realloc@plt>
  406e98:	f901b660 	str	x0, [x19, #872]
  406e9c:	f941ae61 	ldr	x1, [x19, #856]
  406ea0:	91000422 	add	x2, x1, #0x1
  406ea4:	f901ae62 	str	x2, [x19, #856]
  406ea8:	f8217814 	str	x20, [x0, x1, lsl #3]
  406eac:	17ffffbf 	b	406da8 <parse_options_and_filenames+0x188>
  406eb0:	f94057fa 	ldr	x26, [sp, #168]
  406eb4:	90000034 	adrp	x20, 40a000 <soxi1+0x330>
  406eb8:	913c4294 	add	x20, x20, #0xf10
  406ebc:	b40000ba 	cbz	x26, 406ed0 <parse_options_and_filenames+0x2b0>
  406ec0:	aa1403e1 	mov	x1, x20
  406ec4:	aa1a03e0 	mov	x0, x26
  406ec8:	97ffee5e 	bl	402840 <strcmp@plt>
  406ecc:	350004e0 	cbnz	w0, 406f68 <parse_options_and_filenames+0x348>
  406ed0:	d2802a00 	mov	x0, #0x150                 	// #336
  406ed4:	f90057f4 	str	x20, [sp, #168]
  406ed8:	97ffee46 	bl	4027f0 <lsx_malloc@plt>
  406edc:	aa0003f4 	mov	x20, x0
  406ee0:	910283e1 	add	x1, sp, #0xa0
  406ee4:	d2802a02 	mov	x2, #0x150                 	// #336
  406ee8:	97ffed06 	bl	402300 <memcpy@plt>
  406eec:	aa1803e0 	mov	x0, x24
  406ef0:	17ffffe3 	b	406e7c <parse_options_and_filenames+0x25c>
  406ef4:	b9403282 	ldr	w2, [x20, #48]
  406ef8:	910283e1 	add	x1, sp, #0xa0
  406efc:	aa1903e0 	mov	x0, x25
  406f00:	11000443 	add	w3, w2, #0x1
  406f04:	f862daa2 	ldr	x2, [x21, w2, sxtw #3]
  406f08:	b9003283 	str	w3, [x20, #48]
  406f0c:	97ffee05 	bl	402720 <sox_parse_playlist@plt>
  406f10:	34fff4c0 	cbz	w0, 406da8 <parse_options_and_filenames+0x188>
  406f14:	52800020 	mov	w0, #0x1                   	// #1
  406f18:	97ffee82 	bl	402920 <exit@plt>
  406f1c:	910283e0 	add	x0, sp, #0xa0
  406f20:	97fff6a8 	bl	4049c0 <set_default_device>
  406f24:	aa0003e1 	mov	x1, x0
  406f28:	910283e0 	add	x0, sp, #0xa0
  406f2c:	97fff7b1 	bl	404df0 <add_file>
  406f30:	17ffff9e 	b	406da8 <parse_options_and_filenames+0x188>
  406f34:	97ffedf7 	bl	402710 <sox_get_globals@plt>
  406f38:	90000022 	adrp	x2, 40a000 <soxi1+0x330>
  406f3c:	910b0042 	add	x2, x2, #0x2c0
  406f40:	90000023 	adrp	x3, 40a000 <soxi1+0x330>
  406f44:	f9002002 	str	x2, [x0, #64]
  406f48:	aa1a03e1 	mov	x1, x26
  406f4c:	913be060 	add	x0, x3, #0xef8
  406f50:	97ffed50 	bl	402490 <lsx_warn_impl@plt>
  406f54:	17ffffc1 	b	406e58 <parse_options_and_filenames+0x238>
  406f58:	aa0003e1 	mov	x1, x0
  406f5c:	910283e0 	add	x0, sp, #0xa0
  406f60:	97fff7a4 	bl	404df0 <add_file>
  406f64:	17ffff91 	b	406da8 <parse_options_and_filenames+0x188>
  406f68:	97ffedea 	bl	402710 <sox_get_globals@plt>
  406f6c:	90000022 	adrp	x2, 40a000 <soxi1+0x330>
  406f70:	910b0042 	add	x2, x2, #0x2c0
  406f74:	90000023 	adrp	x3, 40a000 <soxi1+0x330>
  406f78:	f9002002 	str	x2, [x0, #64]
  406f7c:	aa1a03e1 	mov	x1, x26
  406f80:	913be060 	add	x0, x3, #0xef8
  406f84:	97ffed43 	bl	402490 <lsx_warn_impl@plt>
  406f88:	17ffffd2 	b	406ed0 <parse_options_and_filenames+0x2b0>
  406f8c:	97ffede1 	bl	402710 <sox_get_globals@plt>
  406f90:	90000022 	adrp	x2, 40a000 <soxi1+0x330>
  406f94:	910b0042 	add	x2, x2, #0x2c0
  406f98:	90000023 	adrp	x3, 40a000 <soxi1+0x330>
  406f9c:	f9002002 	str	x2, [x0, #64]
  406fa0:	aa1703e1 	mov	x1, x23
  406fa4:	913ca060 	add	x0, x3, #0xf28
  406fa8:	97ffedea 	bl	402750 <lsx_report_impl@plt>
  406fac:	52800020 	mov	w0, #0x1                   	// #1
  406fb0:	b9039260 	str	w0, [x19, #912]
  406fb4:	17ffff8c 	b	406de4 <parse_options_and_filenames+0x1c4>
  406fb8:	910283e0 	add	x0, sp, #0xa0
  406fbc:	97fff681 	bl	4049c0 <set_default_device>
  406fc0:	aa0003e1 	mov	x1, x0
  406fc4:	910283e0 	add	x0, sp, #0xa0
  406fc8:	97fff78a 	bl	404df0 <add_file>
  406fcc:	910283e0 	add	x0, sp, #0xa0
  406fd0:	97fff630 	bl	404890 <init_file>
  406fd4:	b5ffe5f7 	cbnz	x23, 406c90 <parse_options_and_filenames+0x70>
  406fd8:	91102274 	add	x20, x19, #0x408
  406fdc:	d0000023 	adrp	x3, 40c000 <__dso_handle+0x1fa8>
  406fe0:	91386063 	add	x3, x3, #0xe18
  406fe4:	52800025 	mov	w5, #0x1                   	// #1
  406fe8:	aa1403e6 	mov	x6, x20
  406fec:	91080063 	add	x3, x3, #0x200
  406ff0:	2a0503e4 	mov	w4, w5
  406ff4:	aa1503e1 	mov	x1, x21
  406ff8:	2a1603e0 	mov	w0, w22
  406ffc:	90000022 	adrp	x2, 40a000 <soxi1+0x330>
  407000:	913aa042 	add	x2, x2, #0xea8
  407004:	97ffeccf 	bl	402340 <lsx_getopt_init@plt>
  407008:	b9443a62 	ldr	w2, [x19, #1080]
  40700c:	6b0202df 	cmp	w22, w2
  407010:	54ffe64c 	b.gt	406cd8 <parse_options_and_filenames+0xb8>
  407014:	17ffff74 	b	406de4 <parse_options_and_filenames+0x1c4>
  407018:	f94002a0 	ldr	x0, [x21]
  40701c:	b0000039 	adrp	x25, 40c000 <__dso_handle+0x1fa8>
  407020:	f0000018 	adrp	x24, 40a000 <soxi1+0x330>
  407024:	91386339 	add	x25, x25, #0xe18
  407028:	913aa318 	add	x24, x24, #0xea8
  40702c:	97ffece5 	bl	4023c0 <strlen@plt>
  407030:	aa0003f4 	mov	x20, x0
  407034:	aa1703e0 	mov	x0, x23
  407038:	97ffece2 	bl	4023c0 <strlen@plt>
  40703c:	8b000280 	add	x0, x20, x0
  407040:	91000800 	add	x0, x0, #0x2
  407044:	97ffedeb 	bl	4027f0 <lsx_malloc@plt>
  407048:	f94002a1 	ldr	x1, [x21]
  40704c:	aa0003fa 	mov	x26, x0
  407050:	97ffee5c 	bl	4029c0 <stpcpy@plt>
  407054:	aa0003e2 	mov	x2, x0
  407058:	52800403 	mov	w3, #0x20                  	// #32
  40705c:	aa1703e1 	mov	x1, x23
  407060:	91000400 	add	x0, x0, #0x1
  407064:	39000043 	strb	w3, [x2]
  407068:	97ffed4a 	bl	402590 <strcpy@plt>
  40706c:	910163e1 	add	x1, sp, #0x58
  407070:	aa1a03e0 	mov	x0, x26
  407074:	97fff40b 	bl	4040a0 <strtoargv>
  407078:	aa0003e1 	mov	x1, x0
  40707c:	aa0003f4 	mov	x20, x0
  407080:	b9405be0 	ldr	w0, [sp, #88]
  407084:	52800025 	mov	w5, #0x1                   	// #1
  407088:	91080323 	add	x3, x25, #0x200
  40708c:	aa1803e2 	mov	x2, x24
  407090:	91102266 	add	x6, x19, #0x408
  407094:	2a0503e4 	mov	w4, w5
  407098:	97ffecaa 	bl	402340 <lsx_getopt_init@plt>
  40709c:	910283e0 	add	x0, sp, #0xa0
  4070a0:	97fffbc4 	bl	405fb0 <parse_gopts_and_fopts>
  4070a4:	72001c1f 	tst	w0, #0xff
  4070a8:	54000401 	b.ne	407128 <parse_options_and_filenames+0x508>  // b.any
  4070ac:	aa1a03e0 	mov	x0, x26
  4070b0:	97ffed04 	bl	4024c0 <free@plt>
  4070b4:	aa1403e0 	mov	x0, x20
  4070b8:	97ffed02 	bl	4024c0 <free@plt>
  4070bc:	17fffefb 	b	406ca8 <parse_options_and_filenames+0x88>
  4070c0:	f94057e0 	ldr	x0, [sp, #168]
  4070c4:	97fff347 	bl	403de0 <device_name>
  4070c8:	aa0003e1 	mov	x1, x0
  4070cc:	910283e0 	add	x0, sp, #0xa0
  4070d0:	97fff748 	bl	404df0 <add_file>
  4070d4:	17ffff4c 	b	406e04 <parse_options_and_filenames+0x1e4>
  4070d8:	910283e0 	add	x0, sp, #0xa0
  4070dc:	97fff639 	bl	4049c0 <set_default_device>
  4070e0:	aa0003e1 	mov	x1, x0
  4070e4:	910283e0 	add	x0, sp, #0xa0
  4070e8:	97fff742 	bl	404df0 <add_file>
  4070ec:	17ffff46 	b	406e04 <parse_options_and_filenames+0x1e4>
  4070f0:	97ffed88 	bl	402710 <sox_get_globals@plt>
  4070f4:	f0000001 	adrp	x1, 40a000 <soxi1+0x330>
  4070f8:	910b0021 	add	x1, x1, #0x2c0
  4070fc:	f9002001 	str	x1, [x0, #64]
  407100:	97ffedc0 	bl	402800 <__errno_location@plt>
  407104:	b9400000 	ldr	w0, [x0]
  407108:	97ffed1e 	bl	402580 <strerror@plt>
  40710c:	aa0003e1 	mov	x1, x0
  407110:	f0000000 	adrp	x0, 40a000 <soxi1+0x330>
  407114:	913c6000 	add	x0, x0, #0xf18
  407118:	97ffecca 	bl	402440 <lsx_fail_impl@plt>
  40711c:	52800020 	mov	w0, #0x1                   	// #1
  407120:	97ffee00 	bl	402920 <exit@plt>
  407124:	97ffecb7 	bl	402400 <__stack_chk_fail@plt>
  407128:	97ffed7a 	bl	402710 <sox_get_globals@plt>
  40712c:	aa0003e2 	mov	x2, x0
  407130:	f0000001 	adrp	x1, 40a000 <soxi1+0x330>
  407134:	910b0021 	add	x1, x1, #0x2c0
  407138:	f0000000 	adrp	x0, 40a000 <soxi1+0x330>
  40713c:	913b4000 	add	x0, x0, #0xed0
  407140:	f9002041 	str	x1, [x2, #64]
  407144:	97ffecbf 	bl	402440 <lsx_fail_impl@plt>
  407148:	52800020 	mov	w0, #0x1                   	// #1
  40714c:	97ffedf5 	bl	402920 <exit@plt>

0000000000407150 <auto_effect>:
  407150:	a9ba7bfd 	stp	x29, x30, [sp, #-96]!
  407154:	900000c6 	adrp	x6, 41f000 <__FRAME_END__+0x10b24>
  407158:	913700c6 	add	x6, x6, #0xdc0
  40715c:	910003fd 	mov	x29, sp
  407160:	a90153f3 	stp	x19, x20, [sp, #16]
  407164:	2a0203f4 	mov	w20, w2
  407168:	a9025bf5 	stp	x21, x22, [sp, #32]
  40716c:	aa0303f5 	mov	x21, x3
  407170:	aa0503f6 	mov	x22, x5
  407174:	a90363f7 	stp	x23, x24, [sp, #48]
  407178:	aa0003f7 	mov	x23, x0
  40717c:	aa0103e0 	mov	x0, x1
  407180:	f94000c1 	ldr	x1, [x6]
  407184:	f9002fe1 	str	x1, [sp, #88]
  407188:	d2800001 	mov	x1, #0x0                   	// #0
  40718c:	aa0403f8 	mov	x24, x4
  407190:	97ffecec 	bl	402540 <sox_find_effect@plt>
  407194:	97ffed3f 	bl	402690 <sox_create_effect@plt>
  407198:	aa0003f3 	mov	x19, x0
  40719c:	aa1503e2 	mov	x2, x21
  4071a0:	2a1403e1 	mov	w1, w20
  4071a4:	97ffed7f 	bl	4027a0 <sox_effect_options@plt>
  4071a8:	3100041f 	cmn	w0, #0x1
  4071ac:	54000a20 	b.eq	4072f0 <auto_effect+0x1a0>  // b.none
  4071b0:	b00000c1 	adrp	x1, 420000 <fputs@GLIBC_2.17>
  4071b4:	9112c021 	add	x1, x1, #0x4b0
  4071b8:	12800000 	mov	w0, #0xffffffff            	// #-1
  4071bc:	b9004fe0 	str	w0, [sp, #76]
  4071c0:	b94002c2 	ldr	w2, [x22]
  4071c4:	f941ac23 	ldr	x3, [x1, #856]
  4071c8:	f941b420 	ldr	x0, [x1, #872]
  4071cc:	8b030c01 	add	x1, x0, x3, lsl #3
  4071d0:	f85f8020 	ldur	x0, [x1, #-8]
  4071d4:	f9409c14 	ldr	x20, [x0, #312]
  4071d8:	91002294 	add	x20, x20, #0x8
  4071dc:	7100045f 	cmp	w2, #0x1
  4071e0:	540002c0 	b.eq	407238 <auto_effect+0xe8>  // b.none
  4071e4:	7100085f 	cmp	w2, #0x2
  4071e8:	540006a0 	b.eq	4072bc <auto_effect+0x16c>  // b.none
  4071ec:	34000462 	cbz	w2, 407278 <auto_effect+0x128>
  4071f0:	aa1403e3 	mov	x3, x20
  4071f4:	aa1803e2 	mov	x2, x24
  4071f8:	aa1703e0 	mov	x0, x23
  4071fc:	aa1303e1 	mov	x1, x19
  407200:	97ffec8c 	bl	402430 <sox_add_effect@plt>
  407204:	35000720 	cbnz	w0, 4072e8 <auto_effect+0x198>
  407208:	900000c0 	adrp	x0, 41f000 <__FRAME_END__+0x10b24>
  40720c:	f9402fe2 	ldr	x2, [sp, #88]
  407210:	f946e001 	ldr	x1, [x0, #3520]
  407214:	eb010042 	subs	x2, x2, x1
  407218:	d2800001 	mov	x1, #0x0                   	// #0
  40721c:	540006e1 	b.ne	4072f8 <auto_effect+0x1a8>  // b.any
  407220:	aa1303e0 	mov	x0, x19
  407224:	a94153f3 	ldp	x19, x20, [sp, #16]
  407228:	a9425bf5 	ldp	x21, x22, [sp, #32]
  40722c:	a94363f7 	ldp	x23, x24, [sp, #48]
  407230:	a8c67bfd 	ldp	x29, x30, [sp], #96
  407234:	17ffeca3 	b	4024c0 <free@plt>
  407238:	b9406a60 	ldr	w0, [x19, #104]
  40723c:	363ffda0 	tbz	w0, #7, 4071f0 <auto_effect+0xa0>
  407240:	f0000006 	adrp	x6, 40a000 <soxi1+0x330>
  407244:	913d40c6 	add	x6, x6, #0xf50
  407248:	aa1703e0 	mov	x0, x23
  40724c:	910133e5 	add	x5, sp, #0x4c
  407250:	aa1803e4 	mov	x4, x24
  407254:	910143e3 	add	x3, sp, #0x50
  407258:	f0000001 	adrp	x1, 40a000 <soxi1+0x330>
  40725c:	913d2021 	add	x1, x1, #0xf48
  407260:	f9002be6 	str	x6, [sp, #80]
  407264:	97ffffbb 	bl	407150 <auto_effect>
  407268:	b94002c0 	ldr	w0, [x22]
  40726c:	51000400 	sub	w0, w0, #0x1
  407270:	b90002c0 	str	w0, [x22]
  407274:	17ffffdf 	b	4071f0 <auto_effect+0xa0>
  407278:	b9406a60 	ldr	w0, [x19, #104]
  40727c:	373ffba0 	tbnz	w0, #7, 4071f0 <auto_effect+0xa0>
  407280:	f0000006 	adrp	x6, 40a000 <soxi1+0x330>
  407284:	913d00c6 	add	x6, x6, #0xf40
  407288:	aa1703e0 	mov	x0, x23
  40728c:	910133e5 	add	x5, sp, #0x4c
  407290:	aa1803e4 	mov	x4, x24
  407294:	910143e3 	add	x3, sp, #0x50
  407298:	f0000001 	adrp	x1, 40a000 <soxi1+0x330>
  40729c:	52800022 	mov	w2, #0x1                   	// #1
  4072a0:	913d2021 	add	x1, x1, #0xf48
  4072a4:	f9002be6 	str	x6, [sp, #80]
  4072a8:	97ffffaa 	bl	407150 <auto_effect>
  4072ac:	b94002c0 	ldr	w0, [x22]
  4072b0:	11000400 	add	w0, w0, #0x1
  4072b4:	b90002c0 	str	w0, [x22]
  4072b8:	17ffffce 	b	4071f0 <auto_effect+0xa0>
  4072bc:	b9406a60 	ldr	w0, [x19, #104]
  4072c0:	3747f980 	tbnz	w0, #8, 4071f0 <auto_effect+0xa0>
  4072c4:	97ffed13 	bl	402710 <sox_get_globals@plt>
  4072c8:	f9402e61 	ldr	x1, [x19, #88]
  4072cc:	f0000002 	adrp	x2, 40a000 <soxi1+0x330>
  4072d0:	910b0042 	add	x2, x2, #0x2c0
  4072d4:	f9002002 	str	x2, [x0, #64]
  4072d8:	f0000000 	adrp	x0, 40a000 <soxi1+0x330>
  4072dc:	913d6000 	add	x0, x0, #0xf58
  4072e0:	97ffec6c 	bl	402490 <lsx_warn_impl@plt>
  4072e4:	17ffffc3 	b	4071f0 <auto_effect+0xa0>
  4072e8:	52800040 	mov	w0, #0x2                   	// #2
  4072ec:	97ffed8d 	bl	402920 <exit@plt>
  4072f0:	52800020 	mov	w0, #0x1                   	// #1
  4072f4:	97ffed8b 	bl	402920 <exit@plt>
  4072f8:	97ffec42 	bl	402400 <__stack_chk_fail@plt>
  4072fc:	d503201f 	nop

0000000000407300 <add_effect>:
  407300:	a9ba7bfd 	stp	x29, x30, [sp, #-96]!
  407304:	900000c5 	adrp	x5, 41f000 <__FRAME_END__+0x10b24>
  407308:	910003fd 	mov	x29, sp
  40730c:	a90153f3 	stp	x19, x20, [sp, #16]
  407310:	aa0403f4 	mov	x20, x4
  407314:	913700a4 	add	x4, x5, #0xdc0
  407318:	a9025bf5 	stp	x21, x22, [sp, #32]
  40731c:	aa0103f3 	mov	x19, x1
  407320:	aa0203f5 	mov	x21, x2
  407324:	f9001bf7 	str	x23, [sp, #48]
  407328:	aa0003f6 	mov	x22, x0
  40732c:	aa0303f7 	mov	x23, x3
  407330:	f9400085 	ldr	x5, [x4]
  407334:	f9002fe5 	str	x5, [sp, #88]
  407338:	d2800005 	mov	x5, #0x0                   	// #0
  40733c:	b9400284 	ldr	w4, [x20]
  407340:	12800005 	mov	w5, #0xffffffff            	// #-1
  407344:	b9004fe5 	str	w5, [sp, #76]
  407348:	7100049f 	cmp	w4, #0x1
  40734c:	54000260 	b.eq	407398 <add_effect+0x98>  // b.none
  407350:	7100089f 	cmp	w4, #0x2
  407354:	54000620 	b.eq	407418 <add_effect+0x118>  // b.none
  407358:	34000404 	cbz	w4, 4073d8 <add_effect+0xd8>
  40735c:	900000c1 	adrp	x1, 41f000 <__FRAME_END__+0x10b24>
  407360:	f9402fe0 	ldr	x0, [sp, #88]
  407364:	f946e022 	ldr	x2, [x1, #3520]
  407368:	eb020000 	subs	x0, x0, x2
  40736c:	d2800002 	mov	x2, #0x0                   	// #0
  407370:	540006a1 	b.ne	407444 <add_effect+0x144>  // b.any
  407374:	aa1703e3 	mov	x3, x23
  407378:	aa1503e2 	mov	x2, x21
  40737c:	aa1303e1 	mov	x1, x19
  407380:	aa1603e0 	mov	x0, x22
  407384:	a94153f3 	ldp	x19, x20, [sp, #16]
  407388:	a9425bf5 	ldp	x21, x22, [sp, #32]
  40738c:	f9401bf7 	ldr	x23, [sp, #48]
  407390:	a8c67bfd 	ldp	x29, x30, [sp], #96
  407394:	17ffec27 	b	402430 <sox_add_effect@plt>
  407398:	b9406821 	ldr	w1, [x1, #104]
  40739c:	363ffe01 	tbz	w1, #7, 40735c <add_effect+0x5c>
  4073a0:	f0000006 	adrp	x6, 40a000 <soxi1+0x330>
  4073a4:	913d40c6 	add	x6, x6, #0xf50
  4073a8:	2a0403e2 	mov	w2, w4
  4073ac:	910133e5 	add	x5, sp, #0x4c
  4073b0:	aa1503e4 	mov	x4, x21
  4073b4:	910143e3 	add	x3, sp, #0x50
  4073b8:	f0000001 	adrp	x1, 40a000 <soxi1+0x330>
  4073bc:	913d2021 	add	x1, x1, #0xf48
  4073c0:	f9002be6 	str	x6, [sp, #80]
  4073c4:	97ffff63 	bl	407150 <auto_effect>
  4073c8:	b9400280 	ldr	w0, [x20]
  4073cc:	51000400 	sub	w0, w0, #0x1
  4073d0:	b9000280 	str	w0, [x20]
  4073d4:	17ffffe2 	b	40735c <add_effect+0x5c>
  4073d8:	b9406821 	ldr	w1, [x1, #104]
  4073dc:	373ffc01 	tbnz	w1, #7, 40735c <add_effect+0x5c>
  4073e0:	f0000006 	adrp	x6, 40a000 <soxi1+0x330>
  4073e4:	913d00c6 	add	x6, x6, #0xf40
  4073e8:	aa0203e4 	mov	x4, x2
  4073ec:	910133e5 	add	x5, sp, #0x4c
  4073f0:	910143e3 	add	x3, sp, #0x50
  4073f4:	f0000001 	adrp	x1, 40a000 <soxi1+0x330>
  4073f8:	52800022 	mov	w2, #0x1                   	// #1
  4073fc:	913d2021 	add	x1, x1, #0xf48
  407400:	f9002be6 	str	x6, [sp, #80]
  407404:	97ffff53 	bl	407150 <auto_effect>
  407408:	b9400280 	ldr	w0, [x20]
  40740c:	11000400 	add	w0, w0, #0x1
  407410:	b9000280 	str	w0, [x20]
  407414:	17ffffd2 	b	40735c <add_effect+0x5c>
  407418:	b9406820 	ldr	w0, [x1, #104]
  40741c:	3747fa00 	tbnz	w0, #8, 40735c <add_effect+0x5c>
  407420:	97ffecbc 	bl	402710 <sox_get_globals@plt>
  407424:	f9402e61 	ldr	x1, [x19, #88]
  407428:	f0000002 	adrp	x2, 40a000 <soxi1+0x330>
  40742c:	910b0042 	add	x2, x2, #0x2c0
  407430:	f9002002 	str	x2, [x0, #64]
  407434:	f0000000 	adrp	x0, 40a000 <soxi1+0x330>
  407438:	913d6000 	add	x0, x0, #0xf58
  40743c:	97ffec15 	bl	402490 <lsx_warn_impl@plt>
  407440:	17ffffc7 	b	40735c <add_effect+0x5c>
  407444:	97ffebef 	bl	402400 <__stack_chk_fail@plt>
  407448:	d503201f 	nop
  40744c:	d503201f 	nop

0000000000407450 <display_file_info>:
  407450:	a9b77bfd 	stp	x29, x30, [sp, #-144]!
  407454:	900000c3 	adrp	x3, 41f000 <__FRAME_END__+0x10b24>
  407458:	91370063 	add	x3, x3, #0xdc0
  40745c:	910003fd 	mov	x29, sp
  407460:	a90363f7 	stp	x23, x24, [sp, #48]
  407464:	b00000d8 	adrp	x24, 420000 <fputs@GLIBC_2.17>
  407468:	9112c318 	add	x24, x24, #0x4b0
  40746c:	a90153f3 	stp	x19, x20, [sp, #16]
  407470:	aa0103f7 	mov	x23, x1
  407474:	aa0003f4 	mov	x20, x0
  407478:	a9025bf5 	stp	x21, x22, [sp, #32]
  40747c:	b9436304 	ldr	w4, [x24, #864]
  407480:	a9046bf9 	stp	x25, x26, [sp, #64]
  407484:	2a0203f9 	mov	w25, w2
  407488:	f9400065 	ldr	x5, [x3]
  40748c:	f90047e5 	str	x5, [sp, #136]
  407490:	d2800005 	mov	x5, #0x0                   	// #0
  407494:	71000c9f 	cmp	w4, #0x3
  407498:	54001520 	b.eq	40773c <display_file_info+0x2ec>  // b.none
  40749c:	b00000c0 	adrp	x0, 420000 <fputs@GLIBC_2.17>
  4074a0:	f9425016 	ldr	x22, [x0, #1184]
  4074a4:	f9400293 	ldr	x19, [x20]
  4074a8:	aa1303e0 	mov	x0, x19
  4074ac:	97ffec8d 	bl	4026e0 <lsx_find_file_extension@plt>
  4074b0:	b944ff01 	ldr	w1, [x24, #1276]
  4074b4:	aa0003f5 	mov	x21, x0
  4074b8:	340000a1 	cbz	w1, 4074cc <display_file_info+0x7c>
  4074bc:	97ffec95 	bl	402710 <sox_get_globals@plt>
  4074c0:	b9400000 	ldr	w0, [x0]
  4074c4:	7100081f 	cmp	w0, #0x2
  4074c8:	540015a9 	b.ls	40777c <display_file_info+0x32c>  // b.plast
  4074cc:	39449281 	ldrb	w1, [x20, #292]
  4074d0:	f0000000 	adrp	x0, 40a000 <soxi1+0x330>
  4074d4:	f0000002 	adrp	x2, 40a000 <soxi1+0x330>
  4074d8:	913ea000 	add	x0, x0, #0xfa8
  4074dc:	7101c83f 	cmp	w1, #0x72
  4074e0:	913e6042 	add	x2, x2, #0xf98
  4074e4:	9a800042 	csel	x2, x2, x0, eq  // eq = none
  4074e8:	90000021 	adrp	x1, 40b000 <__dso_handle+0xfa8>
  4074ec:	aa1303e3 	mov	x3, x19
  4074f0:	aa1603e0 	mov	x0, x22
  4074f4:	91054021 	add	x1, x1, #0x150
  4074f8:	97ffebb6 	bl	4023d0 <fprintf@plt>
  4074fc:	b4003235 	cbz	x21, 407b40 <display_file_info+0x6f0>
  407500:	f9413a93 	ldr	x19, [x20, #624]
  407504:	f940027a 	ldr	x26, [x19]
  407508:	b400017a 	cbz	x26, 407534 <display_file_info+0xe4>
  40750c:	91002273 	add	x19, x19, #0x8
  407510:	aa1a03e1 	mov	x1, x26
  407514:	14000003 	b	407520 <display_file_info+0xd0>
  407518:	91002273 	add	x19, x19, #0x8
  40751c:	34000160 	cbz	w0, 407548 <display_file_info+0xf8>
  407520:	aa1503e0 	mov	x0, x21
  407524:	97ffecf7 	bl	402900 <strcasecmp@plt>
  407528:	f9400261 	ldr	x1, [x19]
  40752c:	b5ffff61 	cbnz	x1, 407518 <display_file_info+0xc8>
  407530:	340000c0 	cbz	w0, 407548 <display_file_info+0xf8>
  407534:	f0000001 	adrp	x1, 40a000 <soxi1+0x330>
  407538:	aa1a03e2 	mov	x2, x26
  40753c:	aa1603e0 	mov	x0, x22
  407540:	913f4021 	add	x1, x1, #0xfd0
  407544:	97ffeba3 	bl	4023d0 <fprintf@plt>
  407548:	aa1603e1 	mov	x1, x22
  40754c:	52800140 	mov	w0, #0xa                   	// #10
  407550:	97ffec68 	bl	4026f0 <fputc@plt>
  407554:	29420e82 	ldp	w2, w3, [x20, #16]
  407558:	aa1603e0 	mov	x0, x22
  40755c:	fd400680 	ldr	d0, [x20, #8]
  407560:	90000021 	adrp	x1, 40b000 <__dso_handle+0xfa8>
  407564:	91058021 	add	x1, x1, #0x160
  407568:	97ffeb9a 	bl	4023d0 <fprintf@plt>
  40756c:	f9400e80 	ldr	x0, [x20, #24]
  407570:	b40000c0 	cbz	x0, 407588 <display_file_info+0x138>
  407574:	b9401281 	ldr	w1, [x20, #16]
  407578:	34000081 	cbz	w1, 407588 <display_file_info+0x138>
  40757c:	fd400680 	ldr	d0, [x20, #8]
  407580:	1e602008 	fcmp	d0, #0.0
  407584:	54002661 	b.ne	407a50 <display_file_info+0x600>  // b.any
  407588:	b9402a80 	ldr	w0, [x20, #40]
  40758c:	34000220 	cbz	w0, 4075d0 <display_file_info+0x180>
  407590:	b9402e82 	ldr	w2, [x20, #44]
  407594:	9101a3f3 	add	x19, sp, #0x68
  407598:	a906ffff 	stp	xzr, xzr, [sp, #104]
  40759c:	b9007bff 	str	wzr, [sp, #120]
  4075a0:	35002e02 	cbnz	w2, 407b60 <display_file_info+0x710>
  4075a4:	97ffecbb 	bl	402890 <sox_get_encodings_info@plt>
  4075a8:	aa0003e4 	mov	x4, x0
  4075ac:	b9402a83 	ldr	w3, [x20, #40]
  4075b0:	90000021 	adrp	x1, 40b000 <__dso_handle+0xfa8>
  4075b4:	aa1303e2 	mov	x2, x19
  4075b8:	aa1603e0 	mov	x0, x22
  4075bc:	91086021 	add	x1, x1, #0x218
  4075c0:	8b030463 	add	x3, x3, x3, lsl #1
  4075c4:	8b030c83 	add	x3, x4, x3, lsl #3
  4075c8:	f9400863 	ldr	x3, [x3, #16]
  4075cc:	97ffeb81 	bl	4023d0 <fprintf@plt>
  4075d0:	34000279 	cbz	w25, 40761c <display_file_info+0x1cc>
  4075d4:	b9402e80 	ldr	w0, [x20, #44]
  4075d8:	7100201f 	cmp	w0, #0x8
  4075dc:	54000068 	b.hi	4075e8 <display_file_info+0x198>  // b.pmore
  4075e0:	b9427a81 	ldr	w1, [x20, #632]
  4075e4:	363001a1 	tbz	w1, #6, 407618 <display_file_info+0x1c8>
  4075e8:	b9403a81 	ldr	w1, [x20, #56]
  4075ec:	f0000000 	adrp	x0, 40a000 <soxi1+0x330>
  4075f0:	f0000002 	adrp	x2, 40a000 <soxi1+0x330>
  4075f4:	913f0000 	add	x0, x0, #0xfc0
  4075f8:	7100003f 	cmp	w1, #0x0
  4075fc:	913ee042 	add	x2, x2, #0xfb8
  407600:	9a801042 	csel	x2, x2, x0, ne  // ne = any
  407604:	90000021 	adrp	x1, 40b000 <__dso_handle+0xfa8>
  407608:	aa1603e0 	mov	x0, x22
  40760c:	9108c021 	add	x1, x1, #0x230
  407610:	97ffeb70 	bl	4023d0 <fprintf@plt>
  407614:	b9402e80 	ldr	w0, [x20, #44]
  407618:	35000980 	cbnz	w0, 407748 <display_file_info+0x2f8>
  40761c:	b40001b7 	cbz	x23, 407650 <display_file_info+0x200>
  407620:	fd002fe8 	str	d8, [sp, #88]
  407624:	92f00200 	mov	x0, #0x7fefffffffffffff    	// #9218868437227405311
  407628:	fd402ee8 	ldr	d8, [x23, #88]
  40762c:	9e670001 	fmov	d1, x0
  407630:	1e612100 	fcmp	d8, d1
  407634:	5400060d 	b.le	4076f4 <display_file_info+0x2a4>
  407638:	fd402ae0 	ldr	d0, [x23, #80]
  40763c:	92f00200 	mov	x0, #0x7fefffffffffffff    	// #9218868437227405311
  407640:	9e670001 	fmov	d1, x0
  407644:	1e612000 	fcmp	d0, d1
  407648:	540004cd 	b.le	4076e0 <display_file_info+0x290>
  40764c:	fd402fe8 	ldr	d8, [sp, #88]
  407650:	b9427a80 	ldr	w0, [x20, #632]
  407654:	370802a0 	tbnz	w0, #1, 4076a8 <display_file_info+0x258>
  407658:	f9402a80 	ldr	x0, [x20, #80]
  40765c:	b4000260 	cbz	x0, 4076a8 <display_file_info+0x258>
  407660:	97ffec60 	bl	4027e0 <sox_num_comments@plt>
  407664:	f100041f 	cmp	x0, #0x1
  407668:	54001e69 	b.ls	407a34 <display_file_info+0x5e4>  // b.plast
  40766c:	f9402a93 	ldr	x19, [x20, #80]
  407670:	f0000014 	adrp	x20, 40a000 <soxi1+0x330>
  407674:	911ba294 	add	x20, x20, #0x6e8
  407678:	aa1603e3 	mov	x3, x22
  40767c:	90000020 	adrp	x0, 40b000 <__dso_handle+0xfa8>
  407680:	d2800242 	mov	x2, #0x12                  	// #18
  407684:	910b0000 	add	x0, x0, #0x2c0
  407688:	d2800021 	mov	x1, #0x1                   	// #1
  40768c:	97ffecb1 	bl	402950 <fwrite@plt>
  407690:	f9400262 	ldr	x2, [x19]
  407694:	aa1403e1 	mov	x1, x20
  407698:	aa1603e0 	mov	x0, x22
  40769c:	97ffeb4d 	bl	4023d0 <fprintf@plt>
  4076a0:	f8408e60 	ldr	x0, [x19, #8]!
  4076a4:	b5ffff60 	cbnz	x0, 407690 <display_file_info+0x240>
  4076a8:	900000c0 	adrp	x0, 41f000 <__FRAME_END__+0x10b24>
  4076ac:	f94047e2 	ldr	x2, [sp, #136]
  4076b0:	f946e001 	ldr	x1, [x0, #3520]
  4076b4:	eb010042 	subs	x2, x2, x1
  4076b8:	d2800001 	mov	x1, #0x0                   	// #0
  4076bc:	54003ac1 	b.ne	407e14 <display_file_info+0x9c4>  // b.any
  4076c0:	aa1603e1 	mov	x1, x22
  4076c4:	52800140 	mov	w0, #0xa                   	// #10
  4076c8:	a94153f3 	ldp	x19, x20, [sp, #16]
  4076cc:	a9425bf5 	ldp	x21, x22, [sp, #32]
  4076d0:	a94363f7 	ldp	x23, x24, [sp, #48]
  4076d4:	a9446bf9 	ldp	x25, x26, [sp, #64]
  4076d8:	a8c97bfd 	ldp	x29, x30, [sp], #144
  4076dc:	17ffec05 	b	4026f0 <fputc@plt>
  4076e0:	aa1603e0 	mov	x0, x22
  4076e4:	90000021 	adrp	x1, 40b000 <__dso_handle+0xfa8>
  4076e8:	910a6021 	add	x1, x1, #0x298
  4076ec:	97ffeb39 	bl	4023d0 <fprintf@plt>
  4076f0:	17ffffd7 	b	40764c <display_file_info+0x1fc>
  4076f4:	b9414ae0 	ldr	w0, [x23, #328]
  4076f8:	b0000021 	adrp	x1, 40c000 <__dso_handle+0x1fa8>
  4076fc:	91386021 	add	x1, x1, #0xe18
  407700:	91258021 	add	x1, x1, #0x960
  407704:	97ffec2b 	bl	4027b0 <lsx_find_enum_value@plt>
  407708:	aa0003e2 	mov	x2, x0
  40770c:	1e604100 	fmov	d0, d8
  407710:	aa1603e0 	mov	x0, x22
  407714:	90000021 	adrp	x1, 40b000 <__dso_handle+0xfa8>
  407718:	9109e021 	add	x1, x1, #0x278
  40771c:	f9400042 	ldr	x2, [x2]
  407720:	97ffeb2c 	bl	4023d0 <fprintf@plt>
  407724:	fd402ae0 	ldr	d0, [x23, #80]
  407728:	92f00200 	mov	x0, #0x7fefffffffffffff    	// #9218868437227405311
  40772c:	9e670001 	fmov	d1, x0
  407730:	1e612000 	fcmp	d0, d1
  407734:	54fffd6d 	b.le	4076e0 <display_file_info+0x290>
  407738:	17ffffc5 	b	40764c <display_file_info+0x1fc>
  40773c:	b00000c0 	adrp	x0, 420000 <fputs@GLIBC_2.17>
  407740:	f9424c16 	ldr	x22, [x0, #1176]
  407744:	17ffff58 	b	4074a4 <display_file_info+0x54>
  407748:	29478e82 	ldp	w2, w3, [x20, #60]
  40774c:	b0000020 	adrp	x0, 40c000 <__dso_handle+0x1fa8>
  407750:	91386000 	add	x0, x0, #0xe18
  407754:	90000021 	adrp	x1, 40b000 <__dso_handle+0xfa8>
  407758:	91280000 	add	x0, x0, #0xa00
  40775c:	91092021 	add	x1, x1, #0x248
  407760:	8b030c03 	add	x3, x0, x3, lsl #3
  407764:	8b020c02 	add	x2, x0, x2, lsl #3
  407768:	aa1603e0 	mov	x0, x22
  40776c:	f9402842 	ldr	x2, [x2, #80]
  407770:	f9402863 	ldr	x3, [x3, #80]
  407774:	97ffeb17 	bl	4023d0 <fprintf@plt>
  407778:	17ffffa9 	b	40761c <display_file_info+0x1cc>
  40777c:	b9401299 	ldr	w25, [x20, #16]
  407780:	aa1603e1 	mov	x1, x22
  407784:	52800140 	mov	w0, #0xa                   	// #10
  407788:	f0000015 	adrp	x21, 40a000 <soxi1+0x330>
  40778c:	f9400e9a 	ldr	x26, [x20, #24]
  407790:	f9002bfb 	str	x27, [sp, #80]
  407794:	fd002fe8 	str	d8, [sp, #88]
  407798:	97ffebd6 	bl	4026f0 <fputc@plt>
  40779c:	f9400282 	ldr	x2, [x20]
  4077a0:	913f62b5 	add	x21, x21, #0xfd8
  4077a4:	39400040 	ldrb	w0, [x2]
  4077a8:	35002480 	cbnz	w0, 407c38 <display_file_info+0x7e8>
  4077ac:	aa1403e0 	mov	x0, x20
  4077b0:	97ffeb54 	bl	402500 <lsx_filelength@plt>
  4077b4:	f9400e81 	ldr	x1, [x20, #24]
  4077b8:	9e670000 	fmov	d0, x0
  4077bc:	b5002061 	cbnz	x1, 407bc8 <display_file_info+0x778>
  4077c0:	5e61d800 	scvtf	d0, d0
  4077c4:	97ffebf3 	bl	402790 <lsx_sigfigs3@plt>
  4077c8:	aa0003e2 	mov	x2, x0
  4077cc:	f0000001 	adrp	x1, 40a000 <soxi1+0x330>
  4077d0:	aa1603e0 	mov	x0, x22
  4077d4:	913f8021 	add	x1, x1, #0xfe0
  4077d8:	97ffeafe 	bl	4023d0 <fprintf@plt>
  4077dc:	aa1603e1 	mov	x1, x22
  4077e0:	52800140 	mov	w0, #0xa                   	// #10
  4077e4:	97ffebc3 	bl	4026f0 <fputc@plt>
  4077e8:	97ffec2a 	bl	402890 <sox_get_encodings_info@plt>
  4077ec:	aa0003e3 	mov	x3, x0
  4077f0:	b9402a82 	ldr	w2, [x20, #40]
  4077f4:	aa1603e0 	mov	x0, x22
  4077f8:	90000021 	adrp	x1, 40b000 <__dso_handle+0xfa8>
  4077fc:	91002021 	add	x1, x1, #0x8
  407800:	8b020442 	add	x2, x2, x2, lsl #1
  407804:	8b020c62 	add	x2, x3, x2, lsl #3
  407808:	f9400442 	ldr	x2, [x2, #8]
  40780c:	97ffeaf1 	bl	4023d0 <fprintf@plt>
  407810:	f9409ee0 	ldr	x0, [x23, #312]
  407814:	90000021 	adrp	x1, 40b000 <__dso_handle+0xfa8>
  407818:	91008021 	add	x1, x1, #0x20
  40781c:	f9402800 	ldr	x0, [x0, #80]
  407820:	97ffec24 	bl	4028b0 <sox_find_comment@plt>
  407824:	b4002880 	cbz	x0, 407d34 <display_file_info+0x8e4>
  407828:	aa0003e2 	mov	x2, x0
  40782c:	90000021 	adrp	x1, 40b000 <__dso_handle+0xfa8>
  407830:	aa1603e0 	mov	x0, x22
  407834:	91010021 	add	x1, x1, #0x40
  407838:	97ffeae6 	bl	4023d0 <fprintf@plt>
  40783c:	aa1603e1 	mov	x1, x22
  407840:	52800140 	mov	w0, #0xa                   	// #10
  407844:	97ffebab 	bl	4026f0 <fputc@plt>
  407848:	9101a3f3 	add	x19, sp, #0x68
  40784c:	29420e82 	ldp	w2, w3, [x20, #16]
  407850:	aa1303e0 	mov	x0, x19
  407854:	90000021 	adrp	x1, 40b000 <__dso_handle+0xfa8>
  407858:	9000003b 	adrp	x27, 40b000 <__dso_handle+0xfa8>
  40785c:	91014021 	add	x1, x1, #0x50
  407860:	9101a37b 	add	x27, x27, #0x68
  407864:	97ffeb5b 	bl	4025d0 <sprintf@plt>
  407868:	aa1303e2 	mov	x2, x19
  40786c:	aa1b03e1 	mov	x1, x27
  407870:	aa1603e0 	mov	x0, x22
  407874:	97ffead7 	bl	4023d0 <fprintf@plt>
  407878:	f9409ee0 	ldr	x0, [x23, #312]
  40787c:	90000021 	adrp	x1, 40b000 <__dso_handle+0xfa8>
  407880:	9101c021 	add	x1, x1, #0x70
  407884:	f9402800 	ldr	x0, [x0, #80]
  407888:	97ffec0a 	bl	4028b0 <sox_find_comment@plt>
  40788c:	aa0003e2 	mov	x2, x0
  407890:	b4000200 	cbz	x0, 4078d0 <display_file_info+0x480>
  407894:	aa1603e0 	mov	x0, x22
  407898:	90000021 	adrp	x1, 40b000 <__dso_handle+0xfa8>
  40789c:	91020021 	add	x1, x1, #0x80
  4078a0:	97ffeacc 	bl	4023d0 <fprintf@plt>
  4078a4:	f9409ee0 	ldr	x0, [x23, #312]
  4078a8:	90000021 	adrp	x1, 40b000 <__dso_handle+0xfa8>
  4078ac:	91024021 	add	x1, x1, #0x90
  4078b0:	f9402800 	ldr	x0, [x0, #80]
  4078b4:	97ffebff 	bl	4028b0 <sox_find_comment@plt>
  4078b8:	aa0003e2 	mov	x2, x0
  4078bc:	b40000a0 	cbz	x0, 4078d0 <display_file_info+0x480>
  4078c0:	90000021 	adrp	x1, 40b000 <__dso_handle+0xfa8>
  4078c4:	aa1603e0 	mov	x0, x22
  4078c8:	91028021 	add	x1, x1, #0xa0
  4078cc:	97ffeac1 	bl	4023d0 <fprintf@plt>
  4078d0:	aa1603e1 	mov	x1, x22
  4078d4:	52800140 	mov	w0, #0xa                   	// #10
  4078d8:	97ffeb86 	bl	4026f0 <fputc@plt>
  4078dc:	fd400680 	ldr	d0, [x20, #8]
  4078e0:	aa1303e0 	mov	x0, x19
  4078e4:	90000021 	adrp	x1, 40b000 <__dso_handle+0xfa8>
  4078e8:	9102a021 	add	x1, x1, #0xa8
  4078ec:	97ffeb39 	bl	4025d0 <sprintf@plt>
  4078f0:	aa1303e2 	mov	x2, x19
  4078f4:	aa1b03e1 	mov	x1, x27
  4078f8:	aa1603e0 	mov	x0, x22
  4078fc:	97ffeab5 	bl	4023d0 <fprintf@plt>
  407900:	f9409ee0 	ldr	x0, [x23, #312]
  407904:	90000021 	adrp	x1, 40b000 <__dso_handle+0xfa8>
  407908:	91030021 	add	x1, x1, #0xc0
  40790c:	f9402800 	ldr	x0, [x0, #80]
  407910:	97ffebe8 	bl	4028b0 <sox_find_comment@plt>
  407914:	aa0003e2 	mov	x2, x0
  407918:	b40000a0 	cbz	x0, 40792c <display_file_info+0x4dc>
  40791c:	90000021 	adrp	x1, 40b000 <__dso_handle+0xfa8>
  407920:	aa1603e0 	mov	x0, x22
  407924:	91032021 	add	x1, x1, #0xc8
  407928:	97ffeaaa 	bl	4023d0 <fprintf@plt>
  40792c:	aa1603e1 	mov	x1, x22
  407930:	52800140 	mov	w0, #0xa                   	// #10
  407934:	97ffeb6f 	bl	4026f0 <fputc@plt>
  407938:	fd402ee8 	ldr	d8, [x23, #88]
  40793c:	92f00200 	mov	x0, #0x7fefffffffffffff    	// #9218868437227405311
  407940:	9e670001 	fmov	d1, x0
  407944:	1e612100 	fcmp	d8, d1
  407948:	5400116d 	b.le	407b74 <display_file_info+0x724>
  40794c:	90000022 	adrp	x2, 40b000 <__dso_handle+0xfa8>
  407950:	90000021 	adrp	x1, 40b000 <__dso_handle+0xfa8>
  407954:	9103e042 	add	x2, x2, #0xf8
  407958:	9103c021 	add	x1, x1, #0xf0
  40795c:	aa1603e0 	mov	x0, x22
  407960:	97ffea9c 	bl	4023d0 <fprintf@plt>
  407964:	f9409ee0 	ldr	x0, [x23, #312]
  407968:	90000021 	adrp	x1, 40b000 <__dso_handle+0xfa8>
  40796c:	91042021 	add	x1, x1, #0x108
  407970:	f9402800 	ldr	x0, [x0, #80]
  407974:	97ffebcf 	bl	4028b0 <sox_find_comment@plt>
  407978:	aa0003e2 	mov	x2, x0
  40797c:	b40000a0 	cbz	x0, 407990 <display_file_info+0x540>
  407980:	90000021 	adrp	x1, 40b000 <__dso_handle+0xfa8>
  407984:	aa1603e0 	mov	x0, x22
  407988:	91044021 	add	x1, x1, #0x110
  40798c:	97ffea91 	bl	4023d0 <fprintf@plt>
  407990:	aa1603e1 	mov	x1, x22
  407994:	52800140 	mov	w0, #0xa                   	// #10
  407998:	97ffeb56 	bl	4026f0 <fputc@plt>
  40799c:	f9400e80 	ldr	x0, [x20, #24]
  4079a0:	f0000002 	adrp	x2, 40a000 <soxi1+0x330>
  4079a4:	913e4042 	add	x2, x2, #0xf90
