
./.libs/libsox.so.3.0.0:     file format elf64-littleaarch64


Disassembly of section .init:

000000000000e118 <_init>:
    e118:	d503233f 	paciasp
    e11c:	a9bf7bfd 	stp	x29, x30, [sp, #-16]!
    e120:	910003fd 	mov	x29, sp
    e124:	9400046f 	bl	f2e0 <call_weak_fn>
    e128:	a8c17bfd 	ldp	x29, x30, [sp], #16
    e12c:	d50323bf 	autiasp
    e130:	d65f03c0 	ret

Disassembly of section .plt:

000000000000e140 <.plt>:
    e140:	a9bf7bf0 	stp	x16, x30, [sp, #-16]!
    e144:	b0000490 	adrp	x16, 9f000 <handler.1+0x60>
    e148:	f947fe11 	ldr	x17, [x16, #4088]
    e14c:	913fe210 	add	x16, x16, #0xff8
    e150:	d61f0220 	br	x17
    e154:	d503201f 	nop
    e158:	d503201f 	nop
    e15c:	d503201f 	nop

000000000000e160 <sox_get_encodings_info@plt>:
    e160:	d0000490 	adrp	x16, a0000 <sox_get_encodings_info@@Base+0x89a70>
    e164:	f9400211 	ldr	x17, [x16]
    e168:	91000210 	add	x16, x16, #0x0
    e16c:	d61f0220 	br	x17

000000000000e170 <pa_simple_read@plt>:
    e170:	d0000490 	adrp	x16, a0000 <sox_get_encodings_info@@Base+0x89a70>
    e174:	f9400611 	ldr	x17, [x16, #8]
    e178:	91002210 	add	x16, x16, #0x8
    e17c:	d61f0220 	br	x17

000000000000e180 <lsx_write_b_buf@plt>:
    e180:	d0000490 	adrp	x16, a0000 <sox_get_encodings_info@@Base+0x89a70>
    e184:	f9400a11 	ldr	x17, [x16, #16]
    e188:	91004210 	add	x16, x16, #0x10
    e18c:	d61f0220 	br	x17

000000000000e190 <FLAC__stream_encoder_set_bits_per_sample@plt>:
    e190:	d0000490 	adrp	x16, a0000 <sox_get_encodings_info@@Base+0x89a70>
    e194:	f9400e11 	ldr	x17, [x16, #24]
    e198:	91006210 	add	x16, x16, #0x18
    e19c:	d61f0220 	br	x17

000000000000e1a0 <snd_pcm_hw_params_any@plt>:
    e1a0:	d0000490 	adrp	x16, a0000 <sox_get_encodings_info@@Base+0x89a70>
    e1a4:	f9401211 	ldr	x17, [x16, #32]
    e1a8:	91008210 	add	x16, x16, #0x20
    e1ac:	d61f0220 	br	x17

000000000000e1b0 <sox_basename@plt>:
    e1b0:	d0000490 	adrp	x16, a0000 <sox_get_encodings_info@@Base+0x89a70>
    e1b4:	f9401611 	ldr	x17, [x16, #40]
    e1b8:	9100a210 	add	x16, x16, #0x28
    e1bc:	d61f0220 	br	x17

000000000000e1c0 <unlink@plt>:
    e1c0:	d0000490 	adrp	x16, a0000 <sox_get_encodings_info@@Base+0x89a70>
    e1c4:	f9401a11 	ldr	x17, [x16, #48]
    e1c8:	9100c210 	add	x16, x16, #0x30
    e1cc:	d61f0220 	br	x17

000000000000e1d0 <snd_pcm_close@plt>:
    e1d0:	d0000490 	adrp	x16, a0000 <sox_get_encodings_info@@Base+0x89a70>
    e1d4:	f9401e11 	ldr	x17, [x16, #56]
    e1d8:	9100e210 	add	x16, x16, #0x38
    e1dc:	d61f0220 	br	x17

000000000000e1e0 <sox_format_quit@plt>:
    e1e0:	d0000490 	adrp	x16, a0000 <sox_get_encodings_info@@Base+0x89a70>
    e1e4:	f9402211 	ldr	x17, [x16, #64]
    e1e8:	91010210 	add	x16, x16, #0x40
    e1ec:	d61f0220 	br	x17

000000000000e1f0 <omp_get_num_threads@plt>:
    e1f0:	d0000490 	adrp	x16, a0000 <sox_get_encodings_info@@Base+0x89a70>
    e1f4:	f9402611 	ldr	x17, [x16, #72]
    e1f8:	91012210 	add	x16, x16, #0x48
    e1fc:	d61f0220 	br	x17

000000000000e200 <ov_clear@plt>:
    e200:	d0000490 	adrp	x16, a0000 <sox_get_encodings_info@@Base+0x89a70>
    e204:	f9402a11 	ldr	x17, [x16, #80]
    e208:	91014210 	add	x16, x16, #0x50
    e20c:	d61f0220 	br	x17

000000000000e210 <lsx_debug_most_impl@plt>:
    e210:	d0000490 	adrp	x16, a0000 <sox_get_encodings_info@@Base+0x89a70>
    e214:	f9402e11 	ldr	x17, [x16, #88]
    e218:	91016210 	add	x16, x16, #0x58
    e21c:	d61f0220 	br	x17

000000000000e220 <FLAC__stream_decoder_get_state@plt>:
    e220:	d0000490 	adrp	x16, a0000 <sox_get_encodings_info@@Base+0x89a70>
    e224:	f9403211 	ldr	x17, [x16, #96]
    e228:	91018210 	add	x16, x16, #0x60
    e22c:	d61f0220 	br	x17

000000000000e230 <vorbis_analysis@plt>:
    e230:	d0000490 	adrp	x16, a0000 <sox_get_encodings_info@@Base+0x89a70>
    e234:	f9403611 	ldr	x17, [x16, #104]
    e238:	9101a210 	add	x16, x16, #0x68
    e23c:	d61f0220 	br	x17

000000000000e240 <stpcpy@plt>:
    e240:	d0000490 	adrp	x16, a0000 <sox_get_encodings_info@@Base+0x89a70>
    e244:	f9403a11 	ldr	x17, [x16, #112]
    e248:	9101c210 	add	x16, x16, #0x70
    e24c:	d61f0220 	br	x17

000000000000e250 <fmemopen@plt>:
    e250:	d0000490 	adrp	x16, a0000 <sox_get_encodings_info@@Base+0x89a70>
    e254:	f9403e11 	ldr	x17, [x16, #120]
    e258:	9101e210 	add	x16, x16, #0x78
    e25c:	d61f0220 	br	x17

000000000000e260 <fdopen@plt>:
    e260:	d0000490 	adrp	x16, a0000 <sox_get_encodings_info@@Base+0x89a70>
    e264:	f9404211 	ldr	x17, [x16, #128]
    e268:	91020210 	add	x16, x16, #0x80
    e26c:	d61f0220 	br	x17

000000000000e270 <rewind@plt>:
    e270:	d0000490 	adrp	x16, a0000 <sox_get_encodings_info@@Base+0x89a70>
    e274:	f9404611 	ldr	x17, [x16, #136]
    e278:	91022210 	add	x16, x16, #0x88
    e27c:	d61f0220 	br	x17

000000000000e280 <exp@plt>:
    e280:	d0000490 	adrp	x16, a0000 <sox_get_encodings_info@@Base+0x89a70>
    e284:	f9404a11 	ldr	x17, [x16, #144]
    e288:	91024210 	add	x16, x16, #0x90
    e28c:	d61f0220 	br	x17

000000000000e290 <sf_read_int@plt>:
    e290:	d0000490 	adrp	x16, a0000 <sox_get_encodings_info@@Base+0x89a70>
    e294:	f9404e11 	ldr	x17, [x16, #152]
    e298:	91026210 	add	x16, x16, #0x98
    e29c:	d61f0220 	br	x17

000000000000e2a0 <ov_info@plt>:
    e2a0:	d0000490 	adrp	x16, a0000 <sox_get_encodings_info@@Base+0x89a70>
    e2a4:	f9405211 	ldr	x17, [x16, #160]
    e2a8:	91028210 	add	x16, x16, #0xa0
    e2ac:	d61f0220 	br	x17

000000000000e2b0 <localtime@plt>:
    e2b0:	d0000490 	adrp	x16, a0000 <sox_get_encodings_info@@Base+0x89a70>
    e2b4:	f9405611 	ldr	x17, [x16, #168]
    e2b8:	9102a210 	add	x16, x16, #0xa8
    e2bc:	d61f0220 	br	x17

000000000000e2c0 <lsx_fail_impl@plt>:
    e2c0:	d0000490 	adrp	x16, a0000 <sox_get_encodings_info@@Base+0x89a70>
    e2c4:	f9405a11 	ldr	x17, [x16, #176]
    e2c8:	9102c210 	add	x16, x16, #0xb0
    e2cc:	d61f0220 	br	x17

000000000000e2d0 <time@plt>:
    e2d0:	d0000490 	adrp	x16, a0000 <sox_get_encodings_info@@Base+0x89a70>
    e2d4:	f9405e11 	ldr	x17, [x16, #184]
    e2d8:	9102e210 	add	x16, x16, #0xb8
    e2dc:	d61f0220 	br	x17

000000000000e2e0 <snd_pcm_hw_params_get_buffer_size_max@plt>:
    e2e0:	d0000490 	adrp	x16, a0000 <sox_get_encodings_info@@Base+0x89a70>
    e2e4:	f9406211 	ldr	x17, [x16, #192]
    e2e8:	91030210 	add	x16, x16, #0xc0
    e2ec:	d61f0220 	br	x17

000000000000e2f0 <strtok@plt>:
    e2f0:	d0000490 	adrp	x16, a0000 <sox_get_encodings_info@@Base+0x89a70>
    e2f4:	f9406611 	ldr	x17, [x16, #200]
    e2f8:	91032210 	add	x16, x16, #0xc8
    e2fc:	d61f0220 	br	x17

000000000000e300 <lsx_getopt@plt>:
    e300:	d0000490 	adrp	x16, a0000 <sox_get_encodings_info@@Base+0x89a70>
    e304:	f9406a11 	ldr	x17, [x16, #208]
    e308:	91034210 	add	x16, x16, #0xd0
    e30c:	d61f0220 	br	x17

000000000000e310 <snd_pcm_format_description@plt>:
    e310:	d0000490 	adrp	x16, a0000 <sox_get_encodings_info@@Base+0x89a70>
    e314:	f9406e11 	ldr	x17, [x16, #216]
    e318:	91036210 	add	x16, x16, #0xd8
    e31c:	d61f0220 	br	x17

000000000000e320 <ov_pcm_total@plt>:
    e320:	d0000490 	adrp	x16, a0000 <sox_get_encodings_info@@Base+0x89a70>
    e324:	f9407211 	ldr	x17, [x16, #224]
    e328:	91038210 	add	x16, x16, #0xe0
    e32c:	d61f0220 	br	x17

000000000000e330 <sox_num_comments@plt>:
    e330:	d0000490 	adrp	x16, a0000 <sox_get_encodings_info@@Base+0x89a70>
    e334:	f9407611 	ldr	x17, [x16, #232]
    e338:	9103a210 	add	x16, x16, #0xe8
    e33c:	d61f0220 	br	x17

000000000000e340 <fileno@plt>:
    e340:	d0000490 	adrp	x16, a0000 <sox_get_encodings_info@@Base+0x89a70>
    e344:	f9407a11 	ldr	x17, [x16, #240]
    e348:	9103c210 	add	x16, x16, #0xf0
    e34c:	d61f0220 	br	x17

000000000000e350 <__gmon_start__@plt>:
    e350:	d0000490 	adrp	x16, a0000 <sox_get_encodings_info@@Base+0x89a70>
    e354:	f9407e11 	ldr	x17, [x16, #248]
    e358:	9103e210 	add	x16, x16, #0xf8
    e35c:	d61f0220 	br	x17

000000000000e360 <snd_pcm_hw_params_set_channels_near@plt>:
    e360:	d0000490 	adrp	x16, a0000 <sox_get_encodings_info@@Base+0x89a70>
    e364:	f9408211 	ldr	x17, [x16, #256]
    e368:	91040210 	add	x16, x16, #0x100
    e36c:	d61f0220 	br	x17

000000000000e370 <strtod@plt>:
    e370:	d0000490 	adrp	x16, a0000 <sox_get_encodings_info@@Base+0x89a70>
    e374:	f9408611 	ldr	x17, [x16, #264]
    e378:	91042210 	add	x16, x16, #0x108
    e37c:	d61f0220 	br	x17

000000000000e380 <lsx_malloc@plt>:
    e380:	d0000490 	adrp	x16, a0000 <sox_get_encodings_info@@Base+0x89a70>
    e384:	f9408a11 	ldr	x17, [x16, #272]
    e388:	91044210 	add	x16, x16, #0x110
    e38c:	d61f0220 	br	x17

000000000000e390 <ldexp@plt>:
    e390:	d0000490 	adrp	x16, a0000 <sox_get_encodings_info@@Base+0x89a70>
    e394:	f9408e11 	ldr	x17, [x16, #280]
    e398:	91046210 	add	x16, x16, #0x118
    e39c:	d61f0220 	br	x17

000000000000e3a0 <fstat@plt>:
    e3a0:	d0000490 	adrp	x16, a0000 <sox_get_encodings_info@@Base+0x89a70>
    e3a4:	f9409211 	ldr	x17, [x16, #288]
    e3a8:	91048210 	add	x16, x16, #0x120
    e3ac:	d61f0220 	br	x17

000000000000e3b0 <pa_simple_free@plt>:
    e3b0:	d0000490 	adrp	x16, a0000 <sox_get_encodings_info@@Base+0x89a70>
    e3b4:	f9409611 	ldr	x17, [x16, #296]
    e3b8:	9104a210 	add	x16, x16, #0x128
    e3bc:	d61f0220 	br	x17

000000000000e3c0 <FLAC__stream_decoder_finish@plt>:
    e3c0:	d0000490 	adrp	x16, a0000 <sox_get_encodings_info@@Base+0x89a70>
    e3c4:	f9409a11 	ldr	x17, [x16, #304]
    e3c8:	9104c210 	add	x16, x16, #0x130
    e3cc:	d61f0220 	br	x17

000000000000e3d0 <omp_unset_lock@plt>:
    e3d0:	d0000490 	adrp	x16, a0000 <sox_get_encodings_info@@Base+0x89a70>
    e3d4:	f9409e11 	ldr	x17, [x16, #312]
    e3d8:	9104e210 	add	x16, x16, #0x138
    e3dc:	d61f0220 	br	x17

000000000000e3e0 <snd_pcm_prepare@plt>:
    e3e0:	d0000490 	adrp	x16, a0000 <sox_get_encodings_info@@Base+0x89a70>
    e3e4:	f940a211 	ldr	x17, [x16, #320]
    e3e8:	91050210 	add	x16, x16, #0x140
    e3ec:	d61f0220 	br	x17

000000000000e3f0 <snd_pcm_hw_params_set_period_size_near@plt>:
    e3f0:	d0000490 	adrp	x16, a0000 <sox_get_encodings_info@@Base+0x89a70>
    e3f4:	f940a611 	ldr	x17, [x16, #328]
    e3f8:	91052210 	add	x16, x16, #0x148
    e3fc:	d61f0220 	br	x17

000000000000e400 <FLAC__stream_encoder_set_metadata@plt>:
    e400:	d0000490 	adrp	x16, a0000 <sox_get_encodings_info@@Base+0x89a70>
    e404:	f940aa11 	ldr	x17, [x16, #336]
    e408:	91054210 	add	x16, x16, #0x150
    e40c:	d61f0220 	br	x17

000000000000e410 <vorbis_block_init@plt>:
    e410:	d0000490 	adrp	x16, a0000 <sox_get_encodings_info@@Base+0x89a70>
    e414:	f940ae11 	ldr	x17, [x16, #344]
    e418:	91056210 	add	x16, x16, #0x158
    e41c:	d61f0220 	br	x17

000000000000e420 <strcat@plt>:
    e420:	d0000490 	adrp	x16, a0000 <sox_get_encodings_info@@Base+0x89a70>
    e424:	f940b211 	ldr	x17, [x16, #352]
    e428:	91058210 	add	x16, x16, #0x160
    e42c:	d61f0220 	br	x17

000000000000e430 <snprintf@plt>:
    e430:	d0000490 	adrp	x16, a0000 <sox_get_encodings_info@@Base+0x89a70>
    e434:	f940b611 	ldr	x17, [x16, #360]
    e438:	9105a210 	add	x16, x16, #0x168
    e43c:	d61f0220 	br	x17

000000000000e440 <strncasecmp@plt>:
    e440:	d0000490 	adrp	x16, a0000 <sox_get_encodings_info@@Base+0x89a70>
    e444:	f940ba11 	ldr	x17, [x16, #368]
    e448:	9105c210 	add	x16, x16, #0x170
    e44c:	d61f0220 	br	x17

000000000000e450 <pa_simple_new@plt>:
    e450:	d0000490 	adrp	x16, a0000 <sox_get_encodings_info@@Base+0x89a70>
    e454:	f940be11 	ldr	x17, [x16, #376]
    e458:	9105e210 	add	x16, x16, #0x178
    e45c:	d61f0220 	br	x17

000000000000e460 <fseeko@plt>:
    e460:	d0000490 	adrp	x16, a0000 <sox_get_encodings_info@@Base+0x89a70>
    e464:	f940c211 	ldr	x17, [x16, #384]
    e468:	91060210 	add	x16, x16, #0x180
    e46c:	d61f0220 	br	x17

000000000000e470 <lsx_realloc@plt>:
    e470:	d0000490 	adrp	x16, a0000 <sox_get_encodings_info@@Base+0x89a70>
    e474:	f940c611 	ldr	x17, [x16, #392]
    e478:	91062210 	add	x16, x16, #0x188
    e47c:	d61f0220 	br	x17

000000000000e480 <snd_pcm_format_mask_malloc@plt>:
    e480:	d0000490 	adrp	x16, a0000 <sox_get_encodings_info@@Base+0x89a70>
    e484:	f940ca11 	ldr	x17, [x16, #400]
    e488:	91064210 	add	x16, x16, #0x190
    e48c:	d61f0220 	br	x17

000000000000e490 <lsx_strdup@plt>:
    e490:	d0000490 	adrp	x16, a0000 <sox_get_encodings_info@@Base+0x89a70>
    e494:	f940ce11 	ldr	x17, [x16, #408]
    e498:	91066210 	add	x16, x16, #0x198
    e49c:	d61f0220 	br	x17

000000000000e4a0 <vorbis_analysis_wrote@plt>:
    e4a0:	d0000490 	adrp	x16, a0000 <sox_get_encodings_info@@Base+0x89a70>
    e4a4:	f940d211 	ldr	x17, [x16, #416]
    e4a8:	91068210 	add	x16, x16, #0x1a0
    e4ac:	d61f0220 	br	x17

000000000000e4b0 <fprintf@plt>:
    e4b0:	d0000490 	adrp	x16, a0000 <sox_get_encodings_info@@Base+0x89a70>
    e4b4:	f940d611 	ldr	x17, [x16, #424]
    e4b8:	9106a210 	add	x16, x16, #0x1a8
    e4bc:	d61f0220 	br	x17

000000000000e4c0 <lsx_rewind@plt>:
    e4c0:	d0000490 	adrp	x16, a0000 <sox_get_encodings_info@@Base+0x89a70>
    e4c4:	f940da11 	ldr	x17, [x16, #432]
    e4c8:	9106c210 	add	x16, x16, #0x1b0
    e4cc:	d61f0220 	br	x17

000000000000e4d0 <ogg_page_eos@plt>:
    e4d0:	d0000490 	adrp	x16, a0000 <sox_get_encodings_info@@Base+0x89a70>
    e4d4:	f940de11 	ldr	x17, [x16, #440]
    e4d8:	9106e210 	add	x16, x16, #0x1b8
    e4dc:	d61f0220 	br	x17

000000000000e4e0 <memcpy@plt>:
    e4e0:	d0000490 	adrp	x16, a0000 <sox_get_encodings_info@@Base+0x89a70>
    e4e4:	f940e211 	ldr	x17, [x16, #448]
    e4e8:	91070210 	add	x16, x16, #0x1c0
    e4ec:	d61f0220 	br	x17

000000000000e4f0 <lsx_sigfigs3@plt>:
    e4f0:	d0000490 	adrp	x16, a0000 <sox_get_encodings_info@@Base+0x89a70>
    e4f4:	f940e611 	ldr	x17, [x16, #456]
    e4f8:	91072210 	add	x16, x16, #0x1c8
    e4fc:	d61f0220 	br	x17

000000000000e500 <__ctype_b_loc@plt>:
    e500:	d0000490 	adrp	x16, a0000 <sox_get_encodings_info@@Base+0x89a70>
    e504:	f940ea11 	ldr	x17, [x16, #464]
    e508:	91074210 	add	x16, x16, #0x1d0
    e50c:	d61f0220 	br	x17

000000000000e510 <fread@plt>:
    e510:	d0000490 	adrp	x16, a0000 <sox_get_encodings_info@@Base+0x89a70>
    e514:	f940ee11 	ldr	x17, [x16, #472]
    e518:	91076210 	add	x16, x16, #0x1d8
    e51c:	d61f0220 	br	x17

000000000000e520 <snd_pcm_drain@plt>:
    e520:	d0000490 	adrp	x16, a0000 <sox_get_encodings_info@@Base+0x89a70>
    e524:	f940f211 	ldr	x17, [x16, #480]
    e528:	91078210 	add	x16, x16, #0x1e0
    e52c:	d61f0220 	br	x17

000000000000e530 <FLAC__stream_encoder_new@plt>:
    e530:	d0000490 	adrp	x16, a0000 <sox_get_encodings_info@@Base+0x89a70>
    e534:	f940f611 	ldr	x17, [x16, #488]
    e538:	9107a210 	add	x16, x16, #0x1e8
    e53c:	d61f0220 	br	x17

000000000000e540 <div@plt>:
    e540:	d0000490 	adrp	x16, a0000 <sox_get_encodings_info@@Base+0x89a70>
    e544:	f940fa11 	ldr	x17, [x16, #496]
    e548:	9107c210 	add	x16, x16, #0x1f0
    e54c:	d61f0220 	br	x17

000000000000e550 <sf_format_check@plt>:
    e550:	d0000490 	adrp	x16, a0000 <sox_get_encodings_info@@Base+0x89a70>
    e554:	f940fe11 	ldr	x17, [x16, #504]
    e558:	9107e210 	add	x16, x16, #0x1f8
    e55c:	d61f0220 	br	x17

000000000000e560 <lsx_filelength@plt>:
    e560:	d0000490 	adrp	x16, a0000 <sox_get_encodings_info@@Base+0x89a70>
    e564:	f9410211 	ldr	x17, [x16, #512]
    e568:	91080210 	add	x16, x16, #0x200
    e56c:	d61f0220 	br	x17

000000000000e570 <vorbis_info_clear@plt>:
    e570:	d0000490 	adrp	x16, a0000 <sox_get_encodings_info@@Base+0x89a70>
    e574:	f9410611 	ldr	x17, [x16, #520]
    e578:	91082210 	add	x16, x16, #0x208
    e57c:	d61f0220 	br	x17

000000000000e580 <FLAC__stream_encoder_set_compression_level@plt>:
    e580:	d0000490 	adrp	x16, a0000 <sox_get_encodings_info@@Base+0x89a70>
    e584:	f9410a11 	ldr	x17, [x16, #528]
    e588:	91084210 	add	x16, x16, #0x210
    e58c:	d61f0220 	br	x17

000000000000e590 <strncpy@plt>:
    e590:	d0000490 	adrp	x16, a0000 <sox_get_encodings_info@@Base+0x89a70>
    e594:	f9410e11 	ldr	x17, [x16, #536]
    e598:	91086210 	add	x16, x16, #0x218
    e59c:	d61f0220 	br	x17

000000000000e5a0 <acosh@plt>:
    e5a0:	d0000490 	adrp	x16, a0000 <sox_get_encodings_info@@Base+0x89a70>
    e5a4:	f9411211 	ldr	x17, [x16, #544]
    e5a8:	91088210 	add	x16, x16, #0x220
    e5ac:	d61f0220 	br	x17

000000000000e5b0 <snd_pcm_hw_params@plt>:
    e5b0:	d0000490 	adrp	x16, a0000 <sox_get_encodings_info@@Base+0x89a70>
    e5b4:	f9411611 	ldr	x17, [x16, #552]
    e5b8:	9108a210 	add	x16, x16, #0x228
    e5bc:	d61f0220 	br	x17

000000000000e5c0 <realloc@plt>:
    e5c0:	d0000490 	adrp	x16, a0000 <sox_get_encodings_info@@Base+0x89a70>
    e5c4:	f9411a11 	ldr	x17, [x16, #560]
    e5c8:	9108c210 	add	x16, x16, #0x230
    e5cc:	d61f0220 	br	x17

000000000000e5d0 <exit@plt>:
    e5d0:	d0000490 	adrp	x16, a0000 <sox_get_encodings_info@@Base+0x89a70>
    e5d4:	f9411e11 	ldr	x17, [x16, #568]
    e5d8:	9108e210 	add	x16, x16, #0x238
    e5dc:	d61f0220 	br	x17

000000000000e5e0 <cos@plt>:
    e5e0:	d0000490 	adrp	x16, a0000 <sox_get_encodings_info@@Base+0x89a70>
    e5e4:	f9412211 	ldr	x17, [x16, #576]
    e5e8:	91090210 	add	x16, x16, #0x240
    e5ec:	d61f0220 	br	x17

000000000000e5f0 <lsx_tell@plt>:
    e5f0:	d0000490 	adrp	x16, a0000 <sox_get_encodings_info@@Base+0x89a70>
    e5f4:	f9412611 	ldr	x17, [x16, #584]
    e5f8:	91092210 	add	x16, x16, #0x248
    e5fc:	d61f0220 	br	x17

000000000000e600 <lsx_getopt_init@plt>:
    e600:	d0000490 	adrp	x16, a0000 <sox_get_encodings_info@@Base+0x89a70>
    e604:	f9412a11 	ldr	x17, [x16, #592]
    e608:	91094210 	add	x16, x16, #0x250
    e60c:	d61f0220 	br	x17

000000000000e610 <ftello@plt>:
    e610:	d0000490 	adrp	x16, a0000 <sox_get_encodings_info@@Base+0x89a70>
    e614:	f9412e11 	ldr	x17, [x16, #600]
    e618:	91096210 	add	x16, x16, #0x258
    e61c:	d61f0220 	br	x17

000000000000e620 <FLAC__stream_decoder_set_md5_checking@plt>:
    e620:	d0000490 	adrp	x16, a0000 <sox_get_encodings_info@@Base+0x89a70>
    e624:	f9413211 	ldr	x17, [x16, #608]
    e628:	91098210 	add	x16, x16, #0x260
    e62c:	d61f0220 	br	x17

000000000000e630 <lsx_debug_more_impl@plt>:
    e630:	d0000490 	adrp	x16, a0000 <sox_get_encodings_info@@Base+0x89a70>
    e634:	f9413611 	ldr	x17, [x16, #616]
    e638:	9109a210 	add	x16, x16, #0x268
    e63c:	d61f0220 	br	x17

000000000000e640 <strrchr@plt>:
    e640:	d0000490 	adrp	x16, a0000 <sox_get_encodings_info@@Base+0x89a70>
    e644:	f9413a11 	ldr	x17, [x16, #624]
    e648:	9109c210 	add	x16, x16, #0x270
    e64c:	d61f0220 	br	x17

000000000000e650 <FLAC__stream_encoder_set_streamable_subset@plt>:
    e650:	d0000490 	adrp	x16, a0000 <sox_get_encodings_info@@Base+0x89a70>
    e654:	f9413e11 	ldr	x17, [x16, #632]
    e658:	9109e210 	add	x16, x16, #0x278
    e65c:	d61f0220 	br	x17

000000000000e660 <FLAC__stream_decoder_new@plt>:
    e660:	d0000490 	adrp	x16, a0000 <sox_get_encodings_info@@Base+0x89a70>
    e664:	f9414211 	ldr	x17, [x16, #640]
    e668:	910a0210 	add	x16, x16, #0x280
    e66c:	d61f0220 	br	x17

000000000000e670 <FLAC__stream_decoder_set_metadata_respond_all@plt>:
    e670:	d0000490 	adrp	x16, a0000 <sox_get_encodings_info@@Base+0x89a70>
    e674:	f9414611 	ldr	x17, [x16, #648]
    e678:	910a2210 	add	x16, x16, #0x288
    e67c:	d61f0220 	br	x17

000000000000e680 <sox_write@plt>:
    e680:	d0000490 	adrp	x16, a0000 <sox_get_encodings_info@@Base+0x89a70>
    e684:	f9414a11 	ldr	x17, [x16, #656]
    e688:	910a4210 	add	x16, x16, #0x290
    e68c:	d61f0220 	br	x17

000000000000e690 <__cxa_finalize@plt>:
    e690:	d0000490 	adrp	x16, a0000 <sox_get_encodings_info@@Base+0x89a70>
    e694:	f9414e11 	ldr	x17, [x16, #664]
    e698:	910a6210 	add	x16, x16, #0x298
    e69c:	d61f0220 	br	x17

000000000000e6a0 <sinh@plt>:
    e6a0:	d0000490 	adrp	x16, a0000 <sox_get_encodings_info@@Base+0x89a70>
    e6a4:	f9415211 	ldr	x17, [x16, #672]
    e6a8:	910a8210 	add	x16, x16, #0x2a0
    e6ac:	d61f0220 	br	x17

000000000000e6b0 <sleep@plt>:
    e6b0:	d0000490 	adrp	x16, a0000 <sox_get_encodings_info@@Base+0x89a70>
    e6b4:	f9415611 	ldr	x17, [x16, #680]
    e6b8:	910aa210 	add	x16, x16, #0x2a8
    e6bc:	d61f0220 	br	x17

000000000000e6c0 <gmtime@plt>:
    e6c0:	d0000490 	adrp	x16, a0000 <sox_get_encodings_info@@Base+0x89a70>
    e6c4:	f9415a11 	ldr	x17, [x16, #688]
    e6c8:	910ac210 	add	x16, x16, #0x2b0
    e6cc:	d61f0220 	br	x17

000000000000e6d0 <sincos@plt>:
    e6d0:	d0000490 	adrp	x16, a0000 <sox_get_encodings_info@@Base+0x89a70>
    e6d4:	f9415e11 	ldr	x17, [x16, #696]
    e6d8:	910ae210 	add	x16, x16, #0x2b8
    e6dc:	d61f0220 	br	x17

000000000000e6e0 <vorbis_analysis_headerout@plt>:
    e6e0:	d0000490 	adrp	x16, a0000 <sox_get_encodings_info@@Base+0x89a70>
    e6e4:	f9416211 	ldr	x17, [x16, #704]
    e6e8:	910b0210 	add	x16, x16, #0x2c0
    e6ec:	d61f0220 	br	x17

000000000000e6f0 <snd_pcm_open@plt>:
    e6f0:	d0000490 	adrp	x16, a0000 <sox_get_encodings_info@@Base+0x89a70>
    e6f4:	f9416611 	ldr	x17, [x16, #712]
    e6f8:	910b2210 	add	x16, x16, #0x2c8
    e6fc:	d61f0220 	br	x17

000000000000e700 <pclose@plt>:
    e700:	d0000490 	adrp	x16, a0000 <sox_get_encodings_info@@Base+0x89a70>
    e704:	f9416a11 	ldr	x17, [x16, #720]
    e708:	910b4210 	add	x16, x16, #0x2d0
    e70c:	d61f0220 	br	x17

000000000000e710 <log@plt>:
    e710:	d0000490 	adrp	x16, a0000 <sox_get_encodings_info@@Base+0x89a70>
    e714:	f9416e11 	ldr	x17, [x16, #728]
    e718:	910b6210 	add	x16, x16, #0x2d8
    e71c:	d61f0220 	br	x17

000000000000e720 <FLAC__metadata_object_seektable_template_append_spaced_points_by_samples@plt>:
    e720:	d0000490 	adrp	x16, a0000 <sox_get_encodings_info@@Base+0x89a70>
    e724:	f9417211 	ldr	x17, [x16, #736]
    e728:	910b8210 	add	x16, x16, #0x2e0
    e72c:	d61f0220 	br	x17

000000000000e730 <omp_get_thread_num@plt>:
    e730:	d0000490 	adrp	x16, a0000 <sox_get_encodings_info@@Base+0x89a70>
    e734:	f9417611 	ldr	x17, [x16, #744]
    e738:	910ba210 	add	x16, x16, #0x2e8
    e73c:	d61f0220 	br	x17

000000000000e740 <sf_open_virtual@plt>:
    e740:	d0000490 	adrp	x16, a0000 <sox_get_encodings_info@@Base+0x89a70>
    e744:	f9417a11 	ldr	x17, [x16, #752]
    e748:	910bc210 	add	x16, x16, #0x2f0
    e74c:	d61f0220 	br	x17

000000000000e750 <ctime@plt>:
    e750:	d0000490 	adrp	x16, a0000 <sox_get_encodings_info@@Base+0x89a70>
    e754:	f9417e11 	ldr	x17, [x16, #760]
    e758:	910be210 	add	x16, x16, #0x2f8
    e75c:	d61f0220 	br	x17

000000000000e760 <fputc@plt>:
    e760:	d0000490 	adrp	x16, a0000 <sox_get_encodings_info@@Base+0x89a70>
    e764:	f9418211 	ldr	x17, [x16, #768]
    e768:	910c0210 	add	x16, x16, #0x300
    e76c:	d61f0220 	br	x17

000000000000e770 <__isoc99_sscanf@plt>:
    e770:	d0000490 	adrp	x16, a0000 <sox_get_encodings_info@@Base+0x89a70>
    e774:	f9418611 	ldr	x17, [x16, #776]
    e778:	910c2210 	add	x16, x16, #0x308
    e77c:	d61f0220 	br	x17

000000000000e780 <sf_command@plt>:
    e780:	d0000490 	adrp	x16, a0000 <sox_get_encodings_info@@Base+0x89a70>
    e784:	f9418a11 	ldr	x17, [x16, #784]
    e788:	910c4210 	add	x16, x16, #0x310
    e78c:	d61f0220 	br	x17

000000000000e790 <strncmp@plt>:
    e790:	d0000490 	adrp	x16, a0000 <sox_get_encodings_info@@Base+0x89a70>
    e794:	f9418e11 	ldr	x17, [x16, #792]
    e798:	910c6210 	add	x16, x16, #0x318
    e79c:	d61f0220 	br	x17

000000000000e7a0 <sox_write_handler@plt>:
    e7a0:	d0000490 	adrp	x16, a0000 <sox_get_encodings_info@@Base+0x89a70>
    e7a4:	f9419211 	ldr	x17, [x16, #800]
    e7a8:	910c8210 	add	x16, x16, #0x320
    e7ac:	d61f0220 	br	x17

000000000000e7b0 <lsx_flush@plt>:
    e7b0:	d0000490 	adrp	x16, a0000 <sox_get_encodings_info@@Base+0x89a70>
    e7b4:	f9419611 	ldr	x17, [x16, #808]
    e7b8:	910ca210 	add	x16, x16, #0x328
    e7bc:	d61f0220 	br	x17

000000000000e7c0 <ov_open_callbacks@plt>:
    e7c0:	d0000490 	adrp	x16, a0000 <sox_get_encodings_info@@Base+0x89a70>
    e7c4:	f9419a11 	ldr	x17, [x16, #816]
    e7c8:	910cc210 	add	x16, x16, #0x330
    e7cc:	d61f0220 	br	x17

000000000000e7d0 <fmod@plt>:
    e7d0:	d0000490 	adrp	x16, a0000 <sox_get_encodings_info@@Base+0x89a70>
    e7d4:	f9419e11 	ldr	x17, [x16, #824]
    e7d8:	910ce210 	add	x16, x16, #0x338
    e7dc:	d61f0220 	br	x17

000000000000e7e0 <__isoc99_fscanf@plt>:
    e7e0:	d0000490 	adrp	x16, a0000 <sox_get_encodings_info@@Base+0x89a70>
    e7e4:	f941a211 	ldr	x17, [x16, #832]
    e7e8:	910d0210 	add	x16, x16, #0x340
    e7ec:	d61f0220 	br	x17

000000000000e7f0 <lsx_realloc_array@plt>:
    e7f0:	d0000490 	adrp	x16, a0000 <sox_get_encodings_info@@Base+0x89a70>
    e7f4:	f941a611 	ldr	x17, [x16, #840]
    e7f8:	910d2210 	add	x16, x16, #0x348
    e7fc:	d61f0220 	br	x17

000000000000e800 <lsx_find_file_extension@plt>:
    e800:	d0000490 	adrp	x16, a0000 <sox_get_encodings_info@@Base+0x89a70>
    e804:	f941aa11 	ldr	x17, [x16, #848]
    e808:	910d4210 	add	x16, x16, #0x350
    e80c:	d61f0220 	br	x17

000000000000e810 <sox_read@plt>:
    e810:	d0000490 	adrp	x16, a0000 <sox_get_encodings_info@@Base+0x89a70>
    e814:	f941ae11 	ldr	x17, [x16, #856]
    e818:	910d6210 	add	x16, x16, #0x358
    e81c:	d61f0220 	br	x17

000000000000e820 <GOMP_atomic_end@plt>:
    e820:	d0000490 	adrp	x16, a0000 <sox_get_encodings_info@@Base+0x89a70>
    e824:	f941b211 	ldr	x17, [x16, #864]
    e828:	910d8210 	add	x16, x16, #0x360
    e82c:	d61f0220 	br	x17

000000000000e830 <ov_pcm_seek@plt>:
    e830:	d0000490 	adrp	x16, a0000 <sox_get_encodings_info@@Base+0x89a70>
    e834:	f941b611 	ldr	x17, [x16, #872]
    e838:	910da210 	add	x16, x16, #0x368
    e83c:	d61f0220 	br	x17

000000000000e840 <frexp@plt>:
    e840:	d0000490 	adrp	x16, a0000 <sox_get_encodings_info@@Base+0x89a70>
    e844:	f941ba11 	ldr	x17, [x16, #880]
    e848:	910dc210 	add	x16, x16, #0x370
    e84c:	d61f0220 	br	x17

000000000000e850 <png_set_PLTE@plt>:
    e850:	d0000490 	adrp	x16, a0000 <sox_get_encodings_info@@Base+0x89a70>
    e854:	f941be11 	ldr	x17, [x16, #888]
    e858:	910de210 	add	x16, x16, #0x378
    e85c:	d61f0220 	br	x17

000000000000e860 <lsx_rawwrite@plt>:
    e860:	d0000490 	adrp	x16, a0000 <sox_get_encodings_info@@Base+0x89a70>
    e864:	f941c211 	ldr	x17, [x16, #896]
    e868:	910e0210 	add	x16, x16, #0x380
    e86c:	d61f0220 	br	x17

000000000000e870 <sox_append_comment@plt>:
    e870:	d0000490 	adrp	x16, a0000 <sox_get_encodings_info@@Base+0x89a70>
    e874:	f941c611 	ldr	x17, [x16, #904]
    e878:	910e2210 	add	x16, x16, #0x388
    e87c:	d61f0220 	br	x17

000000000000e880 <FLAC__stream_encoder_set_sample_rate@plt>:
    e880:	d0000490 	adrp	x16, a0000 <sox_get_encodings_info@@Base+0x89a70>
    e884:	f941ca11 	ldr	x17, [x16, #912]
    e888:	910e4210 	add	x16, x16, #0x390
    e88c:	d61f0220 	br	x17

000000000000e890 <ogg_stream_clear@plt>:
    e890:	d0000490 	adrp	x16, a0000 <sox_get_encodings_info@@Base+0x89a70>
    e894:	f941ce11 	ldr	x17, [x16, #920]
    e898:	910e6210 	add	x16, x16, #0x398
    e89c:	d61f0220 	br	x17

000000000000e8a0 <ogg_stream_init@plt>:
    e8a0:	d0000490 	adrp	x16, a0000 <sox_get_encodings_info@@Base+0x89a70>
    e8a4:	f941d211 	ldr	x17, [x16, #928]
    e8a8:	910e8210 	add	x16, x16, #0x3a0
    e8ac:	d61f0220 	br	x17

000000000000e8b0 <ferror@plt>:
    e8b0:	d0000490 	adrp	x16, a0000 <sox_get_encodings_info@@Base+0x89a70>
    e8b4:	f941d611 	ldr	x17, [x16, #936]
    e8b8:	910ea210 	add	x16, x16, #0x3a8
    e8bc:	d61f0220 	br	x17

000000000000e8c0 <vorbis_dsp_clear@plt>:
    e8c0:	d0000490 	adrp	x16, a0000 <sox_get_encodings_info@@Base+0x89a70>
    e8c4:	f941da11 	ldr	x17, [x16, #944]
    e8c8:	910ec210 	add	x16, x16, #0x3b0
    e8cc:	d61f0220 	br	x17

000000000000e8d0 <snd_pcm_writei@plt>:
    e8d0:	d0000490 	adrp	x16, a0000 <sox_get_encodings_info@@Base+0x89a70>
    e8d4:	f941de11 	ldr	x17, [x16, #952]
    e8d8:	910ee210 	add	x16, x16, #0x3b8
    e8dc:	d61f0220 	br	x17

000000000000e8e0 <fflush@plt>:
    e8e0:	d0000490 	adrp	x16, a0000 <sox_get_encodings_info@@Base+0x89a70>
    e8e4:	f941e211 	ldr	x17, [x16, #960]
    e8e8:	910f0210 	add	x16, x16, #0x3c0
    e8ec:	d61f0220 	br	x17

000000000000e8f0 <sox_delete_effects@plt>:
    e8f0:	d0000490 	adrp	x16, a0000 <sox_get_encodings_info@@Base+0x89a70>
    e8f4:	f941e611 	ldr	x17, [x16, #968]
    e8f8:	910f2210 	add	x16, x16, #0x3c8
    e8fc:	d61f0220 	br	x17

000000000000e900 <__assert_fail@plt>:
    e900:	d0000490 	adrp	x16, a0000 <sox_get_encodings_info@@Base+0x89a70>
    e904:	f941ea11 	ldr	x17, [x16, #976]
    e908:	910f4210 	add	x16, x16, #0x3d0
    e90c:	d61f0220 	br	x17

000000000000e910 <sox_stop_effect@plt>:
    e910:	d0000490 	adrp	x16, a0000 <sox_get_encodings_info@@Base+0x89a70>
    e914:	f941ee11 	ldr	x17, [x16, #984]
    e918:	910f6210 	add	x16, x16, #0x3d8
    e91c:	d61f0220 	br	x17

000000000000e920 <open_memstream@plt>:
    e920:	d0000490 	adrp	x16, a0000 <sox_get_encodings_info@@Base+0x89a70>
    e924:	f941f211 	ldr	x17, [x16, #992]
    e928:	910f8210 	add	x16, x16, #0x3e0
    e92c:	d61f0220 	br	x17

000000000000e930 <lsx_writeb@plt>:
    e930:	d0000490 	adrp	x16, a0000 <sox_get_encodings_info@@Base+0x89a70>
    e934:	f941f611 	ldr	x17, [x16, #1000]
    e938:	910fa210 	add	x16, x16, #0x3e8
    e93c:	d61f0220 	br	x17

000000000000e940 <tan@plt>:
    e940:	d0000490 	adrp	x16, a0000 <sox_get_encodings_info@@Base+0x89a70>
    e944:	f941fa11 	ldr	x17, [x16, #1008]
    e948:	910fc210 	add	x16, x16, #0x3f0
    e94c:	d61f0220 	br	x17

000000000000e950 <__errno_location@plt>:
    e950:	d0000490 	adrp	x16, a0000 <sox_get_encodings_info@@Base+0x89a70>
    e954:	f941fe11 	ldr	x17, [x16, #1016]
    e958:	910fe210 	add	x16, x16, #0x3f8
    e95c:	d61f0220 	br	x17

000000000000e960 <snd_pcm_readi@plt>:
    e960:	d0000490 	adrp	x16, a0000 <sox_get_encodings_info@@Base+0x89a70>
    e964:	f9420211 	ldr	x17, [x16, #1024]
    e968:	91100210 	add	x16, x16, #0x400
    e96c:	d61f0220 	br	x17

000000000000e970 <FLAC__stream_encoder_set_total_samples_estimate@plt>:
    e970:	d0000490 	adrp	x16, a0000 <sox_get_encodings_info@@Base+0x89a70>
    e974:	f9420611 	ldr	x17, [x16, #1032]
    e978:	91102210 	add	x16, x16, #0x408
    e97c:	d61f0220 	br	x17

000000000000e980 <omp_init_lock@plt>:
    e980:	d0000490 	adrp	x16, a0000 <sox_get_encodings_info@@Base+0x89a70>
    e984:	f9420a11 	ldr	x17, [x16, #1040]
    e988:	91104210 	add	x16, x16, #0x410
    e98c:	d61f0220 	br	x17

000000000000e990 <snd_pcm_resume@plt>:
    e990:	d0000490 	adrp	x16, a0000 <sox_get_encodings_info@@Base+0x89a70>
    e994:	f9420e11 	ldr	x17, [x16, #1048]
    e998:	91106210 	add	x16, x16, #0x418
    e99c:	d61f0220 	br	x17

000000000000e9a0 <snd_strerror@plt>:
    e9a0:	d0000490 	adrp	x16, a0000 <sox_get_encodings_info@@Base+0x89a70>
    e9a4:	f9421211 	ldr	x17, [x16, #1056]
    e9a8:	91108210 	add	x16, x16, #0x420
    e9ac:	d61f0220 	br	x17

000000000000e9b0 <read@plt>:
    e9b0:	d0000490 	adrp	x16, a0000 <sox_get_encodings_info@@Base+0x89a70>
    e9b4:	f9421611 	ldr	x17, [x16, #1064]
    e9b8:	9110a210 	add	x16, x16, #0x428
    e9bc:	d61f0220 	br	x17

000000000000e9c0 <snd_pcm_hw_params_get_sbits@plt>:
    e9c0:	d0000490 	adrp	x16, a0000 <sox_get_encodings_info@@Base+0x89a70>
    e9c4:	f9421a11 	ldr	x17, [x16, #1072]
    e9c8:	9110c210 	add	x16, x16, #0x430
    e9cc:	d61f0220 	br	x17

000000000000e9d0 <GOMP_atomic_start@plt>:
    e9d0:	d0000490 	adrp	x16, a0000 <sox_get_encodings_info@@Base+0x89a70>
    e9d4:	f9421e11 	ldr	x17, [x16, #1080]
    e9d8:	9110e210 	add	x16, x16, #0x438
    e9dc:	d61f0220 	br	x17

000000000000e9e0 <FLAC__stream_encoder_init_stream@plt>:
    e9e0:	d0000490 	adrp	x16, a0000 <sox_get_encodings_info@@Base+0x89a70>
    e9e4:	f9422211 	ldr	x17, [x16, #1088]
    e9e8:	91110210 	add	x16, x16, #0x440
    e9ec:	d61f0220 	br	x17

000000000000e9f0 <putc@plt>:
    e9f0:	d0000490 	adrp	x16, a0000 <sox_get_encodings_info@@Base+0x89a70>
    e9f4:	f9422611 	ldr	x17, [x16, #1096]
    e9f8:	91112210 	add	x16, x16, #0x448
    e9fc:	d61f0220 	br	x17

000000000000ea00 <lsx_readbuf@plt>:
    ea00:	d0000490 	adrp	x16, a0000 <sox_get_encodings_info@@Base+0x89a70>
    ea04:	f9422a11 	ldr	x17, [x16, #1104]
    ea08:	91114210 	add	x16, x16, #0x450
    ea0c:	d61f0220 	br	x17

000000000000ea10 <lsx_find_enum_text@plt>:
    ea10:	d0000490 	adrp	x16, a0000 <sox_get_encodings_info@@Base+0x89a70>
    ea14:	f9422e11 	ldr	x17, [x16, #1112]
    ea18:	91116210 	add	x16, x16, #0x458
    ea1c:	d61f0220 	br	x17

000000000000ea20 <png_create_info_struct@plt>:
    ea20:	d0000490 	adrp	x16, a0000 <sox_get_encodings_info@@Base+0x89a70>
    ea24:	f9423211 	ldr	x17, [x16, #1120]
    ea28:	91118210 	add	x16, x16, #0x460
    ea2c:	d61f0220 	br	x17

000000000000ea30 <lsx_rawread@plt>:
    ea30:	d0000490 	adrp	x16, a0000 <sox_get_encodings_info@@Base+0x89a70>
    ea34:	f9423611 	ldr	x17, [x16, #1128]
    ea38:	9111a210 	add	x16, x16, #0x468
    ea3c:	d61f0220 	br	x17

000000000000ea40 <vorbis_bitrate_flushpacket@plt>:
    ea40:	d0000490 	adrp	x16, a0000 <sox_get_encodings_info@@Base+0x89a70>
    ea44:	f9423a11 	ldr	x17, [x16, #1136]
    ea48:	9111c210 	add	x16, x16, #0x470
    ea4c:	d61f0220 	br	x17

000000000000ea50 <tmpfile@plt>:
    ea50:	d0000490 	adrp	x16, a0000 <sox_get_encodings_info@@Base+0x89a70>
    ea54:	f9423e11 	ldr	x17, [x16, #1144]
    ea58:	9111e210 	add	x16, x16, #0x478
    ea5c:	d61f0220 	br	x17

000000000000ea60 <fopen@plt>:
    ea60:	d0000490 	adrp	x16, a0000 <sox_get_encodings_info@@Base+0x89a70>
    ea64:	f9424211 	ldr	x17, [x16, #1152]
    ea68:	91120210 	add	x16, x16, #0x480
    ea6c:	d61f0220 	br	x17

000000000000ea70 <omp_set_lock@plt>:
    ea70:	d0000490 	adrp	x16, a0000 <sox_get_encodings_info@@Base+0x89a70>
    ea74:	f9424611 	ldr	x17, [x16, #1160]
    ea78:	91122210 	add	x16, x16, #0x488
    ea7c:	d61f0220 	br	x17

000000000000ea80 <lsx_writebuf@plt>:
    ea80:	d0000490 	adrp	x16, a0000 <sox_get_encodings_info@@Base+0x89a70>
    ea84:	f9424a11 	ldr	x17, [x16, #1168]
    ea88:	91124210 	add	x16, x16, #0x490
    ea8c:	d61f0220 	br	x17

000000000000ea90 <__stack_chk_fail@plt>:
    ea90:	d0000490 	adrp	x16, a0000 <sox_get_encodings_info@@Base+0x89a70>
    ea94:	f9424e11 	ldr	x17, [x16, #1176]
    ea98:	91126210 	add	x16, x16, #0x498
    ea9c:	d61f0220 	br	x17

000000000000eaa0 <sox_is_playlist@plt>:
    eaa0:	d0000490 	adrp	x16, a0000 <sox_get_encodings_info@@Base+0x89a70>
    eaa4:	f9425211 	ldr	x17, [x16, #1184]
    eaa8:	91128210 	add	x16, x16, #0x4a0
    eaac:	d61f0220 	br	x17

000000000000eab0 <ov_comment@plt>:
    eab0:	d0000490 	adrp	x16, a0000 <sox_get_encodings_info@@Base+0x89a70>
    eab4:	f9425611 	ldr	x17, [x16, #1192]
    eab8:	9112a210 	add	x16, x16, #0x4a8
    eabc:	d61f0220 	br	x17

000000000000eac0 <sqrtf@plt>:
    eac0:	d0000490 	adrp	x16, a0000 <sox_get_encodings_info@@Base+0x89a70>
    eac4:	f9425a11 	ldr	x17, [x16, #1200]
    eac8:	9112c210 	add	x16, x16, #0x4b0
    eacc:	d61f0220 	br	x17

000000000000ead0 <write@plt>:
    ead0:	d0000490 	adrp	x16, a0000 <sox_get_encodings_info@@Base+0x89a70>
    ead4:	f9425e11 	ldr	x17, [x16, #1208]
    ead8:	9112e210 	add	x16, x16, #0x4b8
    eadc:	d61f0220 	br	x17

000000000000eae0 <sox_precision@plt>:
    eae0:	d0000490 	adrp	x16, a0000 <sox_get_encodings_info@@Base+0x89a70>
    eae4:	f9426211 	ldr	x17, [x16, #1216]
    eae8:	91130210 	add	x16, x16, #0x4c0
    eaec:	d61f0220 	br	x17

000000000000eaf0 <lsx_find_enum_value@plt>:
    eaf0:	d0000490 	adrp	x16, a0000 <sox_get_encodings_info@@Base+0x89a70>
    eaf4:	f9426611 	ldr	x17, [x16, #1224]
    eaf8:	91132210 	add	x16, x16, #0x4c8
    eafc:	d61f0220 	br	x17

000000000000eb00 <FLAC__stream_decoder_seek_absolute@plt>:
    eb00:	d0000490 	adrp	x16, a0000 <sox_get_encodings_info@@Base+0x89a70>
    eb04:	f9426a11 	ldr	x17, [x16, #1232]
    eb08:	91134210 	add	x16, x16, #0x4d0
    eb0c:	d61f0220 	br	x17

000000000000eb10 <vorbis_encode_init_vbr@plt>:
    eb10:	d0000490 	adrp	x16, a0000 <sox_get_encodings_info@@Base+0x89a70>
    eb14:	f9426e11 	ldr	x17, [x16, #1240]
    eb18:	91136210 	add	x16, x16, #0x4d8
    eb1c:	d61f0220 	br	x17

000000000000eb20 <vorbis_block_clear@plt>:
    eb20:	d0000490 	adrp	x16, a0000 <sox_get_encodings_info@@Base+0x89a70>
    eb24:	f9427211 	ldr	x17, [x16, #1248]
    eb28:	91138210 	add	x16, x16, #0x4e0
    eb2c:	d61f0220 	br	x17

000000000000eb30 <FLAC__stream_decoder_delete@plt>:
    eb30:	d0000490 	adrp	x16, a0000 <sox_get_encodings_info@@Base+0x89a70>
    eb34:	f9427611 	ldr	x17, [x16, #1256]
    eb38:	9113a210 	add	x16, x16, #0x4e8
    eb3c:	d61f0220 	br	x17

000000000000eb40 <FLAC__metadata_object_vorbiscomment_append_comment@plt>:
    eb40:	d0000490 	adrp	x16, a0000 <sox_get_encodings_info@@Base+0x89a70>
    eb44:	f9427a11 	ldr	x17, [x16, #1264]
    eb48:	9113c210 	add	x16, x16, #0x4f0
    eb4c:	d61f0220 	br	x17

000000000000eb50 <strpbrk@plt>:
    eb50:	d0000490 	adrp	x16, a0000 <sox_get_encodings_info@@Base+0x89a70>
    eb54:	f9427e11 	ldr	x17, [x16, #1272]
    eb58:	9113e210 	add	x16, x16, #0x4f8
    eb5c:	d61f0220 	br	x17

000000000000eb60 <pa_simple_write@plt>:
    eb60:	d0000490 	adrp	x16, a0000 <sox_get_encodings_info@@Base+0x89a70>
    eb64:	f9428211 	ldr	x17, [x16, #1280]
    eb68:	91140210 	add	x16, x16, #0x500
    eb6c:	d61f0220 	br	x17

000000000000eb70 <GOMP_parallel@plt>:
    eb70:	d0000490 	adrp	x16, a0000 <sox_get_encodings_info@@Base+0x89a70>
    eb74:	f9428611 	ldr	x17, [x16, #1288]
    eb78:	91142210 	add	x16, x16, #0x508
    eb7c:	d61f0220 	br	x17

000000000000eb80 <lsx_eof@plt>:
    eb80:	d0000490 	adrp	x16, a0000 <sox_get_encodings_info@@Base+0x89a70>
    eb84:	f9428a11 	ldr	x17, [x16, #1296]
    eb88:	91144210 	add	x16, x16, #0x510
    eb8c:	d61f0220 	br	x17

000000000000eb90 <feof@plt>:
    eb90:	d0000490 	adrp	x16, a0000 <sox_get_encodings_info@@Base+0x89a70>
    eb94:	f9428e11 	ldr	x17, [x16, #1304]
    eb98:	91146210 	add	x16, x16, #0x518
    eb9c:	d61f0220 	br	x17

000000000000eba0 <sf_seek@plt>:
    eba0:	d0000490 	adrp	x16, a0000 <sox_get_encodings_info@@Base+0x89a70>
    eba4:	f9429211 	ldr	x17, [x16, #1312]
    eba8:	91148210 	add	x16, x16, #0x520
    ebac:	d61f0220 	br	x17

000000000000ebb0 <fseek@plt>:
    ebb0:	d0000490 	adrp	x16, a0000 <sox_get_encodings_info@@Base+0x89a70>
    ebb4:	f9429611 	ldr	x17, [x16, #1320]
    ebb8:	9114a210 	add	x16, x16, #0x528
    ebbc:	d61f0220 	br	x17

000000000000ebc0 <malloc@plt>:
    ebc0:	d0000490 	adrp	x16, a0000 <sox_get_encodings_info@@Base+0x89a70>
    ebc4:	f9429a11 	ldr	x17, [x16, #1328]
    ebc8:	9114c210 	add	x16, x16, #0x530
    ebcc:	d61f0220 	br	x17

000000000000ebd0 <sox_find_format@plt>:
    ebd0:	d0000490 	adrp	x16, a0000 <sox_get_encodings_info@@Base+0x89a70>
    ebd4:	f9429e11 	ldr	x17, [x16, #1336]
    ebd8:	9114e210 	add	x16, x16, #0x538
    ebdc:	d61f0220 	br	x17

000000000000ebe0 <snd_pcm_hw_params_set_rate_resample@plt>:
    ebe0:	d0000490 	adrp	x16, a0000 <sox_get_encodings_info@@Base+0x89a70>
    ebe4:	f942a211 	ldr	x17, [x16, #1344]
    ebe8:	91150210 	add	x16, x16, #0x540
    ebec:	d61f0220 	br	x17

000000000000ebf0 <lsx_fail_errno@plt>:
    ebf0:	d0000490 	adrp	x16, a0000 <sox_get_encodings_info@@Base+0x89a70>
    ebf4:	f942a611 	ldr	x17, [x16, #1352]
    ebf8:	91152210 	add	x16, x16, #0x548
    ebfc:	d61f0220 	br	x17

000000000000ec00 <sox_delete_comments@plt>:
    ec00:	d0000490 	adrp	x16, a0000 <sox_get_encodings_info@@Base+0x89a70>
    ec04:	f942aa11 	ldr	x17, [x16, #1360]
    ec08:	91154210 	add	x16, x16, #0x550
    ec0c:	d61f0220 	br	x17

000000000000ec10 <lsx_report_impl@plt>:
    ec10:	d0000490 	adrp	x16, a0000 <sox_get_encodings_info@@Base+0x89a70>
    ec14:	f942ae11 	ldr	x17, [x16, #1368]
    ec18:	91156210 	add	x16, x16, #0x558
    ec1c:	d61f0220 	br	x17

000000000000ec20 <lsx_check_read_params@plt>:
    ec20:	d0000490 	adrp	x16, a0000 <sox_get_encodings_info@@Base+0x89a70>
    ec24:	f942b211 	ldr	x17, [x16, #1376]
    ec28:	91158210 	add	x16, x16, #0x560
    ec2c:	d61f0220 	br	x17

000000000000ec30 <vorbis_analysis_init@plt>:
    ec30:	d0000490 	adrp	x16, a0000 <sox_get_encodings_info@@Base+0x89a70>
    ec34:	f942b611 	ldr	x17, [x16, #1384]
    ec38:	9115a210 	add	x16, x16, #0x568
    ec3c:	d61f0220 	br	x17

000000000000ec40 <lsx_warn_impl@plt>:
    ec40:	d0000490 	adrp	x16, a0000 <sox_get_encodings_info@@Base+0x89a70>
    ec44:	f942ba11 	ldr	x17, [x16, #1392]
    ec48:	9115c210 	add	x16, x16, #0x570
    ec4c:	d61f0220 	br	x17

000000000000ec50 <ogg_stream_flush@plt>:
    ec50:	d0000490 	adrp	x16, a0000 <sox_get_encodings_info@@Base+0x89a70>
    ec54:	f942be11 	ldr	x17, [x16, #1400]
    ec58:	9115e210 	add	x16, x16, #0x578
    ec5c:	d61f0220 	br	x17

000000000000ec60 <lsx_seeki@plt>:
    ec60:	d0000490 	adrp	x16, a0000 <sox_get_encodings_info@@Base+0x89a70>
    ec64:	f942c211 	ldr	x17, [x16, #1408]
    ec68:	91160210 	add	x16, x16, #0x580
    ec6c:	d61f0220 	br	x17

000000000000ec70 <sox_append_comments@plt>:
    ec70:	d0000490 	adrp	x16, a0000 <sox_get_encodings_info@@Base+0x89a70>
    ec74:	f942c611 	ldr	x17, [x16, #1416]
    ec78:	91162210 	add	x16, x16, #0x588
    ec7c:	d61f0220 	br	x17

000000000000ec80 <vorbis_bitrate_addblock@plt>:
    ec80:	d0000490 	adrp	x16, a0000 <sox_get_encodings_info@@Base+0x89a70>
    ec84:	f942ca11 	ldr	x17, [x16, #1424]
    ec88:	91164210 	add	x16, x16, #0x590
    ec8c:	d61f0220 	br	x17

000000000000ec90 <sox_get_globals@plt>:
    ec90:	d0000490 	adrp	x16, a0000 <sox_get_encodings_info@@Base+0x89a70>
    ec94:	f942ce11 	ldr	x17, [x16, #1432]
    ec98:	91166210 	add	x16, x16, #0x598
    ec9c:	d61f0220 	br	x17

000000000000eca0 <fclose@plt>:
    eca0:	d0000490 	adrp	x16, a0000 <sox_get_encodings_info@@Base+0x89a70>
    eca4:	f942d211 	ldr	x17, [x16, #1440]
    eca8:	91168210 	add	x16, x16, #0x5a0
    ecac:	d61f0220 	br	x17

000000000000ecb0 <ioctl@plt>:
    ecb0:	d0000490 	adrp	x16, a0000 <sox_get_encodings_info@@Base+0x89a70>
    ecb4:	f942d611 	ldr	x17, [x16, #1448]
    ecb8:	9116a210 	add	x16, x16, #0x5a8
    ecbc:	d61f0220 	br	x17

000000000000ecc0 <FLAC__stream_encoder_finish@plt>:
    ecc0:	d0000490 	adrp	x16, a0000 <sox_get_encodings_info@@Base+0x89a70>
    ecc4:	f942da11 	ldr	x17, [x16, #1456]
    ecc8:	9116c210 	add	x16, x16, #0x5b0
    eccc:	d61f0220 	br	x17

000000000000ecd0 <strtoul@plt>:
    ecd0:	d0000490 	adrp	x16, a0000 <sox_get_encodings_info@@Base+0x89a70>
    ecd4:	f942de11 	ldr	x17, [x16, #1464]
    ecd8:	9116e210 	add	x16, x16, #0x5b8
    ecdc:	d61f0220 	br	x17

000000000000ece0 <setvbuf@plt>:
    ece0:	d0000490 	adrp	x16, a0000 <sox_get_encodings_info@@Base+0x89a70>
    ece4:	f942e211 	ldr	x17, [x16, #1472]
    ece8:	91170210 	add	x16, x16, #0x5c0
    ecec:	d61f0220 	br	x17

000000000000ecf0 <FLAC__stream_decoder_process_until_end_of_metadata@plt>:
    ecf0:	d0000490 	adrp	x16, a0000 <sox_get_encodings_info@@Base+0x89a70>
    ecf4:	f942e611 	ldr	x17, [x16, #1480]
    ecf8:	91172210 	add	x16, x16, #0x5c8
    ecfc:	d61f0220 	br	x17

000000000000ed00 <snd_pcm_hw_params_set_rate_near@plt>:
    ed00:	d0000490 	adrp	x16, a0000 <sox_get_encodings_info@@Base+0x89a70>
    ed04:	f942ea11 	ldr	x17, [x16, #1488]
    ed08:	91174210 	add	x16, x16, #0x5d0
    ed0c:	d61f0220 	br	x17

000000000000ed10 <sox_copy_comments@plt>:
    ed10:	d0000490 	adrp	x16, a0000 <sox_get_encodings_info@@Base+0x89a70>
    ed14:	f942ee11 	ldr	x17, [x16, #1496]
    ed18:	91176210 	add	x16, x16, #0x5d8
    ed1c:	d61f0220 	br	x17

000000000000ed20 <sox_get_effects_globals@plt>:
    ed20:	d0000490 	adrp	x16, a0000 <sox_get_encodings_info@@Base+0x89a70>
    ed24:	f942f211 	ldr	x17, [x16, #1504]
    ed28:	91178210 	add	x16, x16, #0x5e0
    ed2c:	d61f0220 	br	x17

000000000000ed30 <ogg_stream_packetin@plt>:
    ed30:	d0000490 	adrp	x16, a0000 <sox_get_encodings_info@@Base+0x89a70>
    ed34:	f942f611 	ldr	x17, [x16, #1512]
    ed38:	9117a210 	add	x16, x16, #0x5e8
    ed3c:	d61f0220 	br	x17

000000000000ed40 <sox_init_encodinginfo@plt>:
    ed40:	d0000490 	adrp	x16, a0000 <sox_get_encodings_info@@Base+0x89a70>
    ed44:	f942fa11 	ldr	x17, [x16, #1520]
    ed48:	9117c210 	add	x16, x16, #0x5f0
    ed4c:	d61f0220 	br	x17

000000000000ed50 <pa_simple_drain@plt>:
    ed50:	d0000490 	adrp	x16, a0000 <sox_get_encodings_info@@Base+0x89a70>
    ed54:	f942fe11 	ldr	x17, [x16, #1528]
    ed58:	9117e210 	add	x16, x16, #0x5f8
    ed5c:	d61f0220 	br	x17

000000000000ed60 <snd_pcm_hw_params_set_access@plt>:
    ed60:	d0000490 	adrp	x16, a0000 <sox_get_encodings_info@@Base+0x89a70>
    ed64:	f9430211 	ldr	x17, [x16, #1536]
    ed68:	91180210 	add	x16, x16, #0x600
    ed6c:	d61f0220 	br	x17

000000000000ed70 <strcmp@plt>:
    ed70:	d0000490 	adrp	x16, a0000 <sox_get_encodings_info@@Base+0x89a70>
    ed74:	f9430611 	ldr	x17, [x16, #1544]
    ed78:	91182210 	add	x16, x16, #0x608
    ed7c:	d61f0220 	br	x17

000000000000ed80 <strtol@plt>:
    ed80:	d0000490 	adrp	x16, a0000 <sox_get_encodings_info@@Base+0x89a70>
    ed84:	f9430a11 	ldr	x17, [x16, #1552]
    ed88:	91184210 	add	x16, x16, #0x610
    ed8c:	d61f0220 	br	x17

000000000000ed90 <lsx_lpc10_create_decoder_state@plt>:
    ed90:	d0000490 	adrp	x16, a0000 <sox_get_encodings_info@@Base+0x89a70>
    ed94:	f9430e11 	ldr	x17, [x16, #1560]
    ed98:	91186210 	add	x16, x16, #0x618
    ed9c:	d61f0220 	br	x17

000000000000eda0 <sqrt@plt>:
    eda0:	d0000490 	adrp	x16, a0000 <sox_get_encodings_info@@Base+0x89a70>
    eda4:	f9431211 	ldr	x17, [x16, #1568]
    eda8:	91188210 	add	x16, x16, #0x620
    edac:	d61f0220 	br	x17

000000000000edb0 <lsx_lpc10_create_encoder_state@plt>:
    edb0:	d0000490 	adrp	x16, a0000 <sox_get_encodings_info@@Base+0x89a70>
    edb4:	f9431611 	ldr	x17, [x16, #1576]
    edb8:	9118a210 	add	x16, x16, #0x628
    edbc:	d61f0220 	br	x17

000000000000edc0 <snd_pcm_format_name@plt>:
    edc0:	d0000490 	adrp	x16, a0000 <sox_get_encodings_info@@Base+0x89a70>
    edc4:	f9431a11 	ldr	x17, [x16, #1584]
    edc8:	9118c210 	add	x16, x16, #0x630
    edcc:	d61f0220 	br	x17

000000000000edd0 <lsx_read_b_buf@plt>:
    edd0:	d0000490 	adrp	x16, a0000 <sox_get_encodings_info@@Base+0x89a70>
    edd4:	f9431e11 	ldr	x17, [x16, #1592]
    edd8:	9118e210 	add	x16, x16, #0x638
    eddc:	d61f0220 	br	x17

000000000000ede0 <sin@plt>:
    ede0:	d0000490 	adrp	x16, a0000 <sox_get_encodings_info@@Base+0x89a70>
    ede4:	f9432211 	ldr	x17, [x16, #1600]
    ede8:	91190210 	add	x16, x16, #0x640
    edec:	d61f0220 	br	x17

000000000000edf0 <vorbis_analysis_blockout@plt>:
    edf0:	d0000490 	adrp	x16, a0000 <sox_get_encodings_info@@Base+0x89a70>
    edf4:	f9432611 	ldr	x17, [x16, #1608]
    edf8:	91192210 	add	x16, x16, #0x648
    edfc:	d61f0220 	br	x17

000000000000ee00 <FLAC__metadata_object_delete@plt>:
    ee00:	d0000490 	adrp	x16, a0000 <sox_get_encodings_info@@Base+0x89a70>
    ee04:	f9432a11 	ldr	x17, [x16, #1616]
    ee08:	91194210 	add	x16, x16, #0x650
    ee0c:	d61f0220 	br	x17

000000000000ee10 <png_set_rows@plt>:
    ee10:	d0000490 	adrp	x16, a0000 <sox_get_encodings_info@@Base+0x89a70>
    ee14:	f9432e11 	ldr	x17, [x16, #1624]
    ee18:	91196210 	add	x16, x16, #0x658
    ee1c:	d61f0220 	br	x17

000000000000ee20 <sf_write_int@plt>:
    ee20:	d0000490 	adrp	x16, a0000 <sox_get_encodings_info@@Base+0x89a70>
    ee24:	f9433211 	ldr	x17, [x16, #1632]
    ee28:	91198210 	add	x16, x16, #0x660
    ee2c:	d61f0220 	br	x17

000000000000ee30 <sf_strerror@plt>:
    ee30:	d0000490 	adrp	x16, a0000 <sox_get_encodings_info@@Base+0x89a70>
    ee34:	f9433611 	ldr	x17, [x16, #1640]
    ee38:	9119a210 	add	x16, x16, #0x668
    ee3c:	d61f0220 	br	x17

000000000000ee40 <snd_pcm_hw_params_malloc@plt>:
    ee40:	d0000490 	adrp	x16, a0000 <sox_get_encodings_info@@Base+0x89a70>
    ee44:	f9433a11 	ldr	x17, [x16, #1648]
    ee48:	9119c210 	add	x16, x16, #0x670
    ee4c:	d61f0220 	br	x17

000000000000ee50 <sox_format_init@plt>:
    ee50:	d0000490 	adrp	x16, a0000 <sox_get_encodings_info@@Base+0x89a70>
    ee54:	f9433e11 	ldr	x17, [x16, #1656]
    ee58:	9119e210 	add	x16, x16, #0x678
    ee5c:	d61f0220 	br	x17

000000000000ee60 <FLAC__stream_decoder_process_single@plt>:
    ee60:	d0000490 	adrp	x16, a0000 <sox_get_encodings_info@@Base+0x89a70>
    ee64:	f9434211 	ldr	x17, [x16, #1664]
    ee68:	911a0210 	add	x16, x16, #0x680
    ee6c:	d61f0220 	br	x17

000000000000ee70 <sf_close@plt>:
    ee70:	d0000490 	adrp	x16, a0000 <sox_get_encodings_info@@Base+0x89a70>
    ee74:	f9434611 	ldr	x17, [x16, #1672]
    ee78:	911a2210 	add	x16, x16, #0x688
    ee7c:	d61f0220 	br	x17

000000000000ee80 <snd_pcm_hw_params_get_format_mask@plt>:
    ee80:	d0000490 	adrp	x16, a0000 <sox_get_encodings_info@@Base+0x89a70>
    ee84:	f9434a11 	ldr	x17, [x16, #1680]
    ee88:	911a4210 	add	x16, x16, #0x690
    ee8c:	d61f0220 	br	x17

000000000000ee90 <strdup@plt>:
    ee90:	d0000490 	adrp	x16, a0000 <sox_get_encodings_info@@Base+0x89a70>
    ee94:	f9434e11 	ldr	x17, [x16, #1688]
    ee98:	911a6210 	add	x16, x16, #0x698
    ee9c:	d61f0220 	br	x17

000000000000eea0 <calloc@plt>:
    eea0:	d0000490 	adrp	x16, a0000 <sox_get_encodings_info@@Base+0x89a70>
    eea4:	f9435211 	ldr	x17, [x16, #1696]
    eea8:	911a8210 	add	x16, x16, #0x6a0
    eeac:	d61f0220 	br	x17

000000000000eeb0 <png_init_io@plt>:
    eeb0:	d0000490 	adrp	x16, a0000 <sox_get_encodings_info@@Base+0x89a70>
    eeb4:	f9435611 	ldr	x17, [x16, #1704]
    eeb8:	911aa210 	add	x16, x16, #0x6a8
    eebc:	d61f0220 	br	x17

000000000000eec0 <getenv@plt>:
    eec0:	d0000490 	adrp	x16, a0000 <sox_get_encodings_info@@Base+0x89a70>
    eec4:	f9435a11 	ldr	x17, [x16, #1712]
    eec8:	911ac210 	add	x16, x16, #0x6b0
    eecc:	d61f0220 	br	x17

000000000000eed0 <cosh@plt>:
    eed0:	d0000490 	adrp	x16, a0000 <sox_get_encodings_info@@Base+0x89a70>
    eed4:	f9435e11 	ldr	x17, [x16, #1720]
    eed8:	911ae210 	add	x16, x16, #0x6b8
    eedc:	d61f0220 	br	x17

000000000000eee0 <sox_delete_effect@plt>:
    eee0:	d0000490 	adrp	x16, a0000 <sox_get_encodings_info@@Base+0x89a70>
    eee4:	f9436211 	ldr	x17, [x16, #1728]
    eee8:	911b0210 	add	x16, x16, #0x6c0
    eeec:	d61f0220 	br	x17

000000000000eef0 <vsnprintf@plt>:
    eef0:	d0000490 	adrp	x16, a0000 <sox_get_encodings_info@@Base+0x89a70>
    eef4:	f9436611 	ldr	x17, [x16, #1736]
    eef8:	911b2210 	add	x16, x16, #0x6c8
    eefc:	d61f0220 	br	x17

000000000000ef00 <popen@plt>:
    ef00:	d0000490 	adrp	x16, a0000 <sox_get_encodings_info@@Base+0x89a70>
    ef04:	f9436a11 	ldr	x17, [x16, #1744]
    ef08:	911b4210 	add	x16, x16, #0x6d0
    ef0c:	d61f0220 	br	x17

000000000000ef10 <snd_pcm_format_mask_free@plt>:
    ef10:	d0000490 	adrp	x16, a0000 <sox_get_encodings_info@@Base+0x89a70>
    ef14:	f9436e11 	ldr	x17, [x16, #1752]
    ef18:	911b6210 	add	x16, x16, #0x6d8
    ef1c:	d61f0220 	br	x17

000000000000ef20 <png_write_png@plt>:
    ef20:	d0000490 	adrp	x16, a0000 <sox_get_encodings_info@@Base+0x89a70>
    ef24:	f9437211 	ldr	x17, [x16, #1760]
    ef28:	911b8210 	add	x16, x16, #0x6e0
    ef2c:	d61f0220 	br	x17

000000000000ef30 <lsx_debug_impl@plt>:
    ef30:	d0000490 	adrp	x16, a0000 <sox_get_encodings_info@@Base+0x89a70>
    ef34:	f9437611 	ldr	x17, [x16, #1768]
    ef38:	911ba210 	add	x16, x16, #0x6e8
    ef3c:	d61f0220 	br	x17

000000000000ef40 <strchr@plt>:
    ef40:	d0000490 	adrp	x16, a0000 <sox_get_encodings_info@@Base+0x89a70>
    ef44:	f9437a11 	ldr	x17, [x16, #1776]
    ef48:	911bc210 	add	x16, x16, #0x6f0
    ef4c:	d61f0220 	br	x17

000000000000ef50 <FLAC__stream_encoder_set_channels@plt>:
    ef50:	d0000490 	adrp	x16, a0000 <sox_get_encodings_info@@Base+0x89a70>
    ef54:	f9437e11 	ldr	x17, [x16, #1784]
    ef58:	911be210 	add	x16, x16, #0x6f8
    ef5c:	d61f0220 	br	x17

000000000000ef60 <getc@plt>:
    ef60:	d0000490 	adrp	x16, a0000 <sox_get_encodings_info@@Base+0x89a70>
    ef64:	f9438211 	ldr	x17, [x16, #1792]
    ef68:	911c0210 	add	x16, x16, #0x700
    ef6c:	d61f0220 	br	x17

000000000000ef70 <lsx_lpc10_encode@plt>:
    ef70:	d0000490 	adrp	x16, a0000 <sox_get_encodings_info@@Base+0x89a70>
    ef74:	f9438611 	ldr	x17, [x16, #1800]
    ef78:	911c2210 	add	x16, x16, #0x708
    ef7c:	d61f0220 	br	x17

000000000000ef80 <log10@plt>:
    ef80:	d0000490 	adrp	x16, a0000 <sox_get_encodings_info@@Base+0x89a70>
    ef84:	f9438a11 	ldr	x17, [x16, #1808]
    ef88:	911c4210 	add	x16, x16, #0x710
    ef8c:	d61f0220 	br	x17

000000000000ef90 <FLAC__stream_encoder_delete@plt>:
    ef90:	d0000490 	adrp	x16, a0000 <sox_get_encodings_info@@Base+0x89a70>
    ef94:	f9438e11 	ldr	x17, [x16, #1816]
    ef98:	911c6210 	add	x16, x16, #0x718
    ef9c:	d61f0220 	br	x17

000000000000efa0 <snd_pcm_format_mask_test@plt>:
    efa0:	d0000490 	adrp	x16, a0000 <sox_get_encodings_info@@Base+0x89a70>
    efa4:	f9439211 	ldr	x17, [x16, #1824]
    efa8:	911c8210 	add	x16, x16, #0x720
    efac:	d61f0220 	br	x17

000000000000efb0 <modf@plt>:
    efb0:	d0000490 	adrp	x16, a0000 <sox_get_encodings_info@@Base+0x89a70>
    efb4:	f9439611 	ldr	x17, [x16, #1832]
    efb8:	911ca210 	add	x16, x16, #0x728
    efbc:	d61f0220 	br	x17

000000000000efc0 <clearerr@plt>:
    efc0:	d0000490 	adrp	x16, a0000 <sox_get_encodings_info@@Base+0x89a70>
    efc4:	f9439a11 	ldr	x17, [x16, #1840]
    efc8:	911cc210 	add	x16, x16, #0x730
    efcc:	d61f0220 	br	x17

000000000000efd0 <sox_version@plt>:
    efd0:	d0000490 	adrp	x16, a0000 <sox_get_encodings_info@@Base+0x89a70>
    efd4:	f9439e11 	ldr	x17, [x16, #1848]
    efd8:	911ce210 	add	x16, x16, #0x738
    efdc:	d61f0220 	br	x17

000000000000efe0 <lsx_writes@plt>:
    efe0:	d0000490 	adrp	x16, a0000 <sox_get_encodings_info@@Base+0x89a70>
    efe4:	f943a211 	ldr	x17, [x16, #1856]
    efe8:	911d0210 	add	x16, x16, #0x740
    efec:	d61f0220 	br	x17

000000000000eff0 <vorbis_analysis_buffer@plt>:
    eff0:	d0000490 	adrp	x16, a0000 <sox_get_encodings_info@@Base+0x89a70>
    eff4:	f943a611 	ldr	x17, [x16, #1864]
    eff8:	911d2210 	add	x16, x16, #0x748
    effc:	d61f0220 	br	x17

000000000000f000 <atan2@plt>:
    f000:	b0000490 	adrp	x16, a0000 <sox_get_encodings_info@@Base+0x89a70>
    f004:	f943aa11 	ldr	x17, [x16, #1872]
    f008:	911d4210 	add	x16, x16, #0x750
    f00c:	d61f0220 	br	x17

000000000000f010 <ov_read@plt>:
    f010:	b0000490 	adrp	x16, a0000 <sox_get_encodings_info@@Base+0x89a70>
    f014:	f943ae11 	ldr	x17, [x16, #1880]
    f018:	911d6210 	add	x16, x16, #0x758
    f01c:	d61f0220 	br	x17

000000000000f020 <png_destroy_write_struct@plt>:
    f020:	b0000490 	adrp	x16, a0000 <sox_get_encodings_info@@Base+0x89a70>
    f024:	f943b211 	ldr	x17, [x16, #1888]
    f028:	911d8210 	add	x16, x16, #0x760
    f02c:	d61f0220 	br	x17

000000000000f030 <free@plt>:
    f030:	b0000490 	adrp	x16, a0000 <sox_get_encodings_info@@Base+0x89a70>
    f034:	f943b611 	ldr	x17, [x16, #1896]
    f038:	911da210 	add	x16, x16, #0x768
    f03c:	d61f0220 	br	x17

000000000000f040 <puts@plt>:
    f040:	b0000490 	adrp	x16, a0000 <sox_get_encodings_info@@Base+0x89a70>
    f044:	f943ba11 	ldr	x17, [x16, #1904]
    f048:	911dc210 	add	x16, x16, #0x770
    f04c:	d61f0220 	br	x17

000000000000f050 <pa_strerror@plt>:
    f050:	b0000490 	adrp	x16, a0000 <sox_get_encodings_info@@Base+0x89a70>
    f054:	f943be11 	ldr	x17, [x16, #1912]
    f058:	911de210 	add	x16, x16, #0x778
    f05c:	d61f0220 	br	x17

000000000000f060 <strerror@plt>:
    f060:	b0000490 	adrp	x16, a0000 <sox_get_encodings_info@@Base+0x89a70>
    f064:	f943c211 	ldr	x17, [x16, #1920]
    f068:	911e0210 	add	x16, x16, #0x780
    f06c:	d61f0220 	br	x17

000000000000f070 <sprintf@plt>:
    f070:	b0000490 	adrp	x16, a0000 <sox_get_encodings_info@@Base+0x89a70>
    f074:	f943c611 	ldr	x17, [x16, #1928]
    f078:	911e2210 	add	x16, x16, #0x788
    f07c:	d61f0220 	br	x17

000000000000f080 <lsx_lpc10_decode@plt>:
    f080:	b0000490 	adrp	x16, a0000 <sox_get_encodings_info@@Base+0x89a70>
    f084:	f943ca11 	ldr	x17, [x16, #1936]
    f088:	911e4210 	add	x16, x16, #0x790
    f08c:	d61f0220 	br	x17

000000000000f090 <lsx_open_dllibrary@plt>:
    f090:	b0000490 	adrp	x16, a0000 <sox_get_encodings_info@@Base+0x89a70>
    f094:	f943ce11 	ldr	x17, [x16, #1944]
    f098:	911e6210 	add	x16, x16, #0x798
    f09c:	d61f0220 	br	x17

000000000000f0a0 <png_set_IHDR@plt>:
    f0a0:	b0000490 	adrp	x16, a0000 <sox_get_encodings_info@@Base+0x89a70>
    f0a4:	f943d211 	ldr	x17, [x16, #1952]
    f0a8:	911e8210 	add	x16, x16, #0x7a0
    f0ac:	d61f0220 	br	x17

000000000000f0b0 <lsx_calloc@plt>:
    f0b0:	b0000490 	adrp	x16, a0000 <sox_get_encodings_info@@Base+0x89a70>
    f0b4:	f943d611 	ldr	x17, [x16, #1960]
    f0b8:	911ea210 	add	x16, x16, #0x7a8
    f0bc:	d61f0220 	br	x17

000000000000f0c0 <omp_destroy_lock@plt>:
    f0c0:	b0000490 	adrp	x16, a0000 <sox_get_encodings_info@@Base+0x89a70>
    f0c4:	f943da11 	ldr	x17, [x16, #1968]
    f0c8:	911ec210 	add	x16, x16, #0x7b0
    f0cc:	d61f0220 	br	x17

000000000000f0d0 <FLAC__stream_decoder_init_stream@plt>:
    f0d0:	b0000490 	adrp	x16, a0000 <sox_get_encodings_info@@Base+0x89a70>
    f0d4:	f943de11 	ldr	x17, [x16, #1976]
    f0d8:	911ee210 	add	x16, x16, #0x7b8
    f0dc:	d61f0220 	br	x17

000000000000f0e0 <snd_pcm_hw_params_set_buffer_size_near@plt>:
    f0e0:	b0000490 	adrp	x16, a0000 <sox_get_encodings_info@@Base+0x89a70>
    f0e4:	f943e211 	ldr	x17, [x16, #1984]
    f0e8:	911f0210 	add	x16, x16, #0x7c0
    f0ec:	d61f0220 	br	x17

000000000000f0f0 <fwrite@plt>:
    f0f0:	b0000490 	adrp	x16, a0000 <sox_get_encodings_info@@Base+0x89a70>
    f0f4:	f943e611 	ldr	x17, [x16, #1992]
    f0f8:	911f2210 	add	x16, x16, #0x7c8
    f0fc:	d61f0220 	br	x17

000000000000f100 <vorbis_info_init@plt>:
    f100:	b0000490 	adrp	x16, a0000 <sox_get_encodings_info@@Base+0x89a70>
    f104:	f943ea11 	ldr	x17, [x16, #2000]
    f108:	911f4210 	add	x16, x16, #0x7d0
    f10c:	d61f0220 	br	x17

000000000000f110 <ogg_stream_pageout@plt>:
    f110:	b0000490 	adrp	x16, a0000 <sox_get_encodings_info@@Base+0x89a70>
    f114:	f943ee11 	ldr	x17, [x16, #2008]
    f118:	911f6210 	add	x16, x16, #0x7d8
    f11c:	d61f0220 	br	x17

000000000000f120 <printf@plt>:
    f120:	b0000490 	adrp	x16, a0000 <sox_get_encodings_info@@Base+0x89a70>
    f124:	f943f211 	ldr	x17, [x16, #2016]
    f128:	911f8210 	add	x16, x16, #0x7e0
    f12c:	d61f0220 	br	x17

000000000000f130 <strcpy@plt>:
    f130:	b0000490 	adrp	x16, a0000 <sox_get_encodings_info@@Base+0x89a70>
    f134:	f943f611 	ldr	x17, [x16, #2024]
    f138:	911fa210 	add	x16, x16, #0x7e8
    f13c:	d61f0220 	br	x17

000000000000f140 <memmove@plt>:
    f140:	b0000490 	adrp	x16, a0000 <sox_get_encodings_info@@Base+0x89a70>
    f144:	f943fa11 	ldr	x17, [x16, #2032]
    f148:	911fc210 	add	x16, x16, #0x7f0
    f14c:	d61f0220 	br	x17

000000000000f150 <close@plt>:
    f150:	b0000490 	adrp	x16, a0000 <sox_get_encodings_info@@Base+0x89a70>
    f154:	f943fe11 	ldr	x17, [x16, #2040]
    f158:	911fe210 	add	x16, x16, #0x7f8
    f15c:	d61f0220 	br	x17

000000000000f160 <vfprintf@plt>:
    f160:	b0000490 	adrp	x16, a0000 <sox_get_encodings_info@@Base+0x89a70>
    f164:	f9440211 	ldr	x17, [x16, #2048]
    f168:	91200210 	add	x16, x16, #0x800
    f16c:	d61f0220 	br	x17

000000000000f170 <png_create_write_struct@plt>:
    f170:	b0000490 	adrp	x16, a0000 <sox_get_encodings_info@@Base+0x89a70>
    f174:	f9440611 	ldr	x17, [x16, #2056]
    f178:	91202210 	add	x16, x16, #0x808
    f17c:	d61f0220 	br	x17

000000000000f180 <FLAC__metadata_object_new@plt>:
    f180:	b0000490 	adrp	x16, a0000 <sox_get_encodings_info@@Base+0x89a70>
    f184:	f9440a11 	ldr	x17, [x16, #2064]
    f188:	91204210 	add	x16, x16, #0x810
    f18c:	d61f0220 	br	x17

000000000000f190 <snd_pcm_hw_params_get_buffer_size_min@plt>:
    f190:	b0000490 	adrp	x16, a0000 <sox_get_encodings_info@@Base+0x89a70>
    f194:	f9440e11 	ldr	x17, [x16, #2072]
    f198:	91206210 	add	x16, x16, #0x818
    f19c:	d61f0220 	br	x17

000000000000f1a0 <lsx_error@plt>:
    f1a0:	b0000490 	adrp	x16, a0000 <sox_get_encodings_info@@Base+0x89a70>
    f1a4:	f9441211 	ldr	x17, [x16, #2080]
    f1a8:	91208210 	add	x16, x16, #0x820
    f1ac:	d61f0220 	br	x17

000000000000f1b0 <stat@plt>:
    f1b0:	b0000490 	adrp	x16, a0000 <sox_get_encodings_info@@Base+0x89a70>
    f1b4:	f9441611 	ldr	x17, [x16, #2088]
    f1b8:	9120a210 	add	x16, x16, #0x828
    f1bc:	d61f0220 	br	x17

000000000000f1c0 <lsx_readchars@plt>:
    f1c0:	b0000490 	adrp	x16, a0000 <sox_get_encodings_info@@Base+0x89a70>
    f1c4:	f9441a11 	ldr	x17, [x16, #2096]
    f1c8:	9120c210 	add	x16, x16, #0x830
    f1cc:	d61f0220 	br	x17

000000000000f1d0 <pow@plt>:
    f1d0:	b0000490 	adrp	x16, a0000 <sox_get_encodings_info@@Base+0x89a70>
    f1d4:	f9441e11 	ldr	x17, [x16, #2104]
    f1d8:	9120e210 	add	x16, x16, #0x838
    f1dc:	d61f0220 	br	x17

000000000000f1e0 <__ctype_tolower_loc@plt>:
    f1e0:	b0000490 	adrp	x16, a0000 <sox_get_encodings_info@@Base+0x89a70>
    f1e4:	f9442211 	ldr	x17, [x16, #2112]
    f1e8:	91210210 	add	x16, x16, #0x840
    f1ec:	d61f0220 	br	x17

000000000000f1f0 <strlen@plt>:
    f1f0:	b0000490 	adrp	x16, a0000 <sox_get_encodings_info@@Base+0x89a70>
    f1f4:	f9442611 	ldr	x17, [x16, #2120]
    f1f8:	91212210 	add	x16, x16, #0x848
    f1fc:	d61f0220 	br	x17

000000000000f200 <FLAC__stream_encoder_process_interleaved@plt>:
    f200:	b0000490 	adrp	x16, a0000 <sox_get_encodings_info@@Base+0x89a70>
    f204:	f9442a11 	ldr	x17, [x16, #2128]
    f208:	91214210 	add	x16, x16, #0x850
    f20c:	d61f0220 	br	x17

000000000000f210 <uncompress@plt>:
    f210:	b0000490 	adrp	x16, a0000 <sox_get_encodings_info@@Base+0x89a70>
    f214:	f9442e11 	ldr	x17, [x16, #2136]
    f218:	91216210 	add	x16, x16, #0x858
    f21c:	d61f0220 	br	x17

000000000000f220 <snd_pcm_hw_params_free@plt>:
    f220:	b0000490 	adrp	x16, a0000 <sox_get_encodings_info@@Base+0x89a70>
    f224:	f9443211 	ldr	x17, [x16, #2144]
    f228:	91218210 	add	x16, x16, #0x860
    f22c:	d61f0220 	br	x17

000000000000f230 <strcasecmp@plt>:
    f230:	b0000490 	adrp	x16, a0000 <sox_get_encodings_info@@Base+0x89a70>
    f234:	f9443611 	ldr	x17, [x16, #2152]
    f238:	9121a210 	add	x16, x16, #0x868
    f23c:	d61f0220 	br	x17

000000000000f240 <ungetc@plt>:
    f240:	b0000490 	adrp	x16, a0000 <sox_get_encodings_info@@Base+0x89a70>
    f244:	f9443a11 	ldr	x17, [x16, #2160]
    f248:	9121c210 	add	x16, x16, #0x870
    f24c:	d61f0220 	br	x17

000000000000f250 <fcntl@plt>:
    f250:	b0000490 	adrp	x16, a0000 <sox_get_encodings_info@@Base+0x89a70>
    f254:	f9443e11 	ldr	x17, [x16, #2168]
    f258:	9121e210 	add	x16, x16, #0x878
    f25c:	d61f0220 	br	x17

000000000000f260 <mkstemp@plt>:
    f260:	b0000490 	adrp	x16, a0000 <sox_get_encodings_info@@Base+0x89a70>
    f264:	f9444211 	ldr	x17, [x16, #2176]
    f268:	91220210 	add	x16, x16, #0x880
    f26c:	d61f0220 	br	x17

000000000000f270 <FLAC__stream_encoder_get_state@plt>:
    f270:	b0000490 	adrp	x16, a0000 <sox_get_encodings_info@@Base+0x89a70>
    f274:	f9444611 	ldr	x17, [x16, #2184]
    f278:	91222210 	add	x16, x16, #0x888
    f27c:	d61f0220 	br	x17

000000000000f280 <snd_pcm_hw_params_set_format@plt>:
    f280:	b0000490 	adrp	x16, a0000 <sox_get_encodings_info@@Base+0x89a70>
    f284:	f9444a11 	ldr	x17, [x16, #2192]
    f288:	91224210 	add	x16, x16, #0x890
    f28c:	d61f0220 	br	x17

000000000000f290 <open@plt>:
    f290:	b0000490 	adrp	x16, a0000 <sox_get_encodings_info@@Base+0x89a70>
    f294:	f9444e11 	ldr	x17, [x16, #2200]
    f298:	91226210 	add	x16, x16, #0x898
    f29c:	d61f0220 	br	x17

000000000000f2a0 <lsx_close_dllibrary@plt>:
    f2a0:	b0000490 	adrp	x16, a0000 <sox_get_encodings_info@@Base+0x89a70>
    f2a4:	f9445211 	ldr	x17, [x16, #2208]
    f2a8:	91228210 	add	x16, x16, #0x8a0
    f2ac:	d61f0220 	br	x17

000000000000f2b0 <sox_get_effect_fns@plt>:
    f2b0:	b0000490 	adrp	x16, a0000 <sox_get_encodings_info@@Base+0x89a70>
    f2b4:	f9445611 	ldr	x17, [x16, #2216]
    f2b8:	9122a210 	add	x16, x16, #0x8a8
    f2bc:	d61f0220 	br	x17

000000000000f2c0 <memset@plt>:
    f2c0:	b0000490 	adrp	x16, a0000 <sox_get_encodings_info@@Base+0x89a70>
    f2c4:	f9445a11 	ldr	x17, [x16, #2224]
    f2c8:	9122c210 	add	x16, x16, #0x8b0
    f2cc:	d61f0220 	br	x17

000000000000f2d0 <lsx_id3_read_tag@plt>:
    f2d0:	b0000490 	adrp	x16, a0000 <sox_get_encodings_info@@Base+0x89a70>
    f2d4:	f9445e11 	ldr	x17, [x16, #2232]
    f2d8:	9122e210 	add	x16, x16, #0x8b8
    f2dc:	d61f0220 	br	x17

Disassembly of section .text:

000000000000f2e0 <call_weak_fn>:
    f2e0:	90000480 	adrp	x0, 9f000 <handler.1+0x60>
    f2e4:	f947a400 	ldr	x0, [x0, #3912]
    f2e8:	b4000040 	cbz	x0, f2f0 <call_weak_fn+0x10>
    f2ec:	17fffc19 	b	e350 <__gmon_start__@plt>
    f2f0:	d65f03c0 	ret
    f2f4:	d503201f 	nop
    f2f8:	d503201f 	nop
    f2fc:	d503201f 	nop

000000000000f300 <deregister_tm_clones>:
    f300:	900004a0 	adrp	x0, a3000 <handler.1+0x38>
    f304:	910f6000 	add	x0, x0, #0x3d8
    f308:	900004a1 	adrp	x1, a3000 <handler.1+0x38>
    f30c:	910f6021 	add	x1, x1, #0x3d8
    f310:	eb00003f 	cmp	x1, x0
    f314:	540000c0 	b.eq	f32c <deregister_tm_clones+0x2c>  // b.none
    f318:	90000481 	adrp	x1, 9f000 <handler.1+0x60>
    f31c:	f947b821 	ldr	x1, [x1, #3952]
    f320:	b4000061 	cbz	x1, f32c <deregister_tm_clones+0x2c>
    f324:	aa0103f0 	mov	x16, x1
    f328:	d61f0200 	br	x16
    f32c:	d65f03c0 	ret

000000000000f330 <register_tm_clones>:
    f330:	900004a0 	adrp	x0, a3000 <handler.1+0x38>
    f334:	910f6000 	add	x0, x0, #0x3d8
    f338:	900004a1 	adrp	x1, a3000 <handler.1+0x38>
    f33c:	910f6021 	add	x1, x1, #0x3d8
    f340:	cb000021 	sub	x1, x1, x0
    f344:	d37ffc22 	lsr	x2, x1, #63
    f348:	8b810c41 	add	x1, x2, x1, asr #3
    f34c:	9341fc21 	asr	x1, x1, #1
    f350:	b40000c1 	cbz	x1, f368 <register_tm_clones+0x38>
    f354:	90000482 	adrp	x2, 9f000 <handler.1+0x60>
    f358:	f947c442 	ldr	x2, [x2, #3976]
    f35c:	b4000062 	cbz	x2, f368 <register_tm_clones+0x38>
    f360:	aa0203f0 	mov	x16, x2
    f364:	d61f0200 	br	x16
    f368:	d65f03c0 	ret
    f36c:	d503201f 	nop

000000000000f370 <__do_global_dtors_aux>:
    f370:	d503233f 	paciasp
    f374:	a9be7bfd 	stp	x29, x30, [sp, #-32]!
    f378:	910003fd 	mov	x29, sp
    f37c:	f9000bf3 	str	x19, [sp, #16]
    f380:	900004b3 	adrp	x19, a3000 <handler.1+0x38>
    f384:	394f6260 	ldrb	w0, [x19, #984]
    f388:	35000140 	cbnz	w0, f3b0 <__do_global_dtors_aux+0x40>
    f38c:	90000480 	adrp	x0, 9f000 <handler.1+0x60>
    f390:	f947b000 	ldr	x0, [x0, #3936]
    f394:	b4000080 	cbz	x0, f3a4 <__do_global_dtors_aux+0x34>
    f398:	d0000460 	adrp	x0, 9d000 <__FRAME_END__+0x18ddc>
    f39c:	9110a000 	add	x0, x0, #0x428
    f3a0:	97fffcbc 	bl	e690 <__cxa_finalize@plt>
    f3a4:	97ffffd7 	bl	f300 <deregister_tm_clones>
    f3a8:	52800020 	mov	w0, #0x1                   	// #1
    f3ac:	390f6260 	strb	w0, [x19, #984]
    f3b0:	f9400bf3 	ldr	x19, [sp, #16]
    f3b4:	a8c27bfd 	ldp	x29, x30, [sp], #32
    f3b8:	d50323bf 	autiasp
    f3bc:	d65f03c0 	ret

000000000000f3c0 <frame_dummy>:
    f3c0:	d503245f 	bti	c
    f3c4:	17ffffdb 	b	f330 <register_tm_clones>
    f3c8:	d503201f 	nop
    f3cc:	d503201f 	nop

000000000000f3d0 <lsx_adpcm_init>:
    f3d0:	937e7c24 	sbfiz	x4, x1, #2, #32
    f3d4:	d0000463 	adrp	x3, 9d000 <__FRAME_END__+0x18ddc>
    f3d8:	8b21c081 	add	x1, x4, w1, sxtw
    f3dc:	9110c063 	add	x3, x3, #0x430
    f3e0:	b9002802 	str	w2, [x0, #40]
    f3e4:	8b010c61 	add	x1, x3, x1, lsl #3
    f3e8:	f802c01f 	stur	xzr, [x0, #44]
    f3ec:	ad400420 	ldp	q0, q1, [x1]
    f3f0:	f9401021 	ldr	x1, [x1, #32]
    f3f4:	f9001001 	str	x1, [x0, #32]
    f3f8:	ad000400 	stp	q0, q1, [x0]
    f3fc:	d65f03c0 	ret

000000000000f400 <lsx_adpcm_decode>:
    f400:	a9bc7bfd 	stp	x29, x30, [sp, #-64]!
    f404:	529fffe2 	mov	w2, #0xffff                	// #65535
    f408:	910003fd 	mov	x29, sp
    f40c:	a90363f7 	stp	x23, x24, [sp, #48]
    f410:	b9400437 	ldr	w23, [x1, #4]
    f414:	b9400824 	ldr	w4, [x1, #8]
    f418:	510006e3 	sub	w3, w23, #0x1
    f41c:	6a0002ff 	tst	w23, w0
    f420:	0a000063 	and	w3, w3, w0
    f424:	a90153f3 	stp	x19, x20, [sp, #16]
    f428:	aa0103f4 	mov	x20, x1
    f42c:	a9025bf5 	stp	x21, x22, [sp, #32]
    f430:	2a0003f6 	mov	w22, w0
    f434:	b9402020 	ldr	w0, [x1, #32]
    f438:	f9400825 	ldr	x5, [x1, #16]
    f43c:	531f7873 	lsl	w19, w3, #1
    f440:	b9402c21 	ldr	w1, [x1, #44]
    f444:	32000273 	orr	w19, w19, #0x1
    f448:	11000484 	add	w4, w4, #0x1
    f44c:	b861d8b8 	ldr	w24, [x5, w1, sxtw #2]
    f450:	b9402a85 	ldr	w5, [x20, #40]
    f454:	1b187e73 	mul	w19, w19, w24
    f458:	1ac42a73 	asr	w19, w19, w4
    f45c:	0a000273 	and	w19, w19, w0
    f460:	5a930673 	cneg	w19, w19, ne  // ne = any
    f464:	0b050273 	add	w19, w19, w5
    f468:	11402265 	add	w5, w19, #0x8, lsl #12
    f46c:	6b0200bf 	cmp	w5, w2
    f470:	54000429 	b.ls	f4f4 <lsx_adpcm_decode+0xf4>  // b.plast
    f474:	1ac42b04 	asr	w4, w24, w4
    f478:	0a000095 	and	w21, w4, w0
    f47c:	128fffe0 	mov	w0, #0xffff8000            	// #-32768
    f480:	4b150000 	sub	w0, w0, w21
    f484:	6b13001f 	cmp	w0, w19
    f488:	540000ac 	b.gt	f49c <lsx_adpcm_decode+0x9c>
    f48c:	528fffe0 	mov	w0, #0x7fff                	// #32767
    f490:	0b0002a0 	add	w0, w21, w0
    f494:	6b13001f 	cmp	w0, w19
    f498:	5400028a 	b.ge	f4e8 <lsx_adpcm_decode+0xe8>  // b.tcont
    f49c:	97fffdfd 	bl	ec90 <sox_get_globals@plt>
    f4a0:	531f7ae1 	lsl	w1, w23, #1
    f4a4:	90000282 	adrp	x2, 5f000 <__trunctfdf2+0x140>
    f4a8:	91098042 	add	x2, x2, #0x260
    f4ac:	f9002002 	str	x2, [x0, #64]
    f4b0:	51000421 	sub	w1, w1, #0x1
    f4b4:	2a1503e3 	mov	w3, w21
    f4b8:	0a160021 	and	w1, w1, w22
    f4bc:	2a1303e4 	mov	w4, w19
    f4c0:	2a1803e2 	mov	w2, w24
    f4c4:	90000280 	adrp	x0, 5f000 <__trunctfdf2+0x140>
    f4c8:	9109c000 	add	x0, x0, #0x270
    f4cc:	97fffb51 	bl	e210 <lsx_debug_most_impl@plt>
    f4d0:	b9400683 	ldr	w3, [x20, #4]
    f4d4:	29458281 	ldp	w1, w0, [x20, #44]
    f4d8:	51000463 	sub	w3, w3, #0x1
    f4dc:	0a160063 	and	w3, w3, w22
    f4e0:	11000400 	add	w0, w0, #0x1
    f4e4:	b9003280 	str	w0, [x20, #48]
    f4e8:	3140227f 	cmn	w19, #0x8, lsl #12
    f4ec:	528ffff3 	mov	w19, #0x7fff                	// #32767
    f4f0:	5a93a273 	cinv	w19, w19, lt  // lt = tstop
    f4f4:	f9400e84 	ldr	x4, [x20, #24]
    f4f8:	2a1303e0 	mov	w0, w19
    f4fc:	b9400282 	ldr	w2, [x20]
    f500:	a9425bf5 	ldp	x21, x22, [sp, #32]
    f504:	b863d883 	ldr	w3, [x4, w3, sxtw #2]
    f508:	a94363f7 	ldp	x23, x24, [sp, #48]
    f50c:	2b030021 	adds	w1, w1, w3
    f510:	1a9f5021 	csel	w1, w1, wzr, pl  // pl = nfrst
    f514:	6b02003f 	cmp	w1, w2
    f518:	1a82d021 	csel	w1, w1, w2, le
    f51c:	29050693 	stp	w19, w1, [x20, #40]
    f520:	a94153f3 	ldp	x19, x20, [sp, #16]
    f524:	a8c47bfd 	ldp	x29, x30, [sp], #64
    f528:	d65f03c0 	ret
    f52c:	d503201f 	nop

000000000000f530 <lsx_adpcm_encode>:
    f530:	a9be7bfd 	stp	x29, x30, [sp, #-32]!
    f534:	910003fd 	mov	x29, sp
    f538:	b9402824 	ldr	w4, [x1, #40]
    f53c:	f9000bf3 	str	x19, [sp, #16]
    f540:	b9400423 	ldr	w3, [x1, #4]
    f544:	6b040002 	subs	w2, w0, w4
    f548:	54000244 	b.mi	f590 <lsx_adpcm_encode+0x60>  // b.first
    f54c:	52800013 	mov	w19, #0x0                   	// #0
    f550:	b9802c26 	ldrsw	x6, [x1, #44]
    f554:	51000464 	sub	w4, w3, #0x1
    f558:	f9400825 	ldr	x5, [x1, #16]
    f55c:	b9400820 	ldr	w0, [x1, #8]
    f560:	b86678a5 	ldr	w5, [x5, x6, lsl #2]
    f564:	1ac02040 	lsl	w0, w2, w0
    f568:	1ac50c00 	sdiv	w0, w0, w5
    f56c:	6b03001f 	cmp	w0, w3
    f570:	1a80a080 	csel	w0, w4, w0, ge  // ge = tcont
    f574:	2a000273 	orr	w19, w19, w0
    f578:	2a1303e0 	mov	w0, w19
    f57c:	97ffffa1 	bl	f400 <lsx_adpcm_decode>
    f580:	2a1303e0 	mov	w0, w19
    f584:	f9400bf3 	ldr	x19, [sp, #16]
    f588:	a8c27bfd 	ldp	x29, x30, [sp], #32
    f58c:	d65f03c0 	ret
    f590:	4b000082 	sub	w2, w4, w0
    f594:	2a0303f3 	mov	w19, w3
    f598:	17ffffee 	b	f550 <lsx_adpcm_encode+0x20>
    f59c:	d503201f 	nop

000000000000f5a0 <lsx_adpcm_reset>:
    f5a0:	7900701f 	strh	wzr, [x0, #56]
    f5a4:	7100443f 	cmp	w1, #0x11
    f5a8:	a9057c1f 	stp	xzr, xzr, [x0, #80]
    f5ac:	1a9f17e1 	cset	w1, eq  // eq = none
    f5b0:	52800002 	mov	w2, #0x0                   	// #0
    f5b4:	17ffff87 	b	f3d0 <lsx_adpcm_init>
    f5b8:	d503201f 	nop
    f5bc:	d503201f 	nop

000000000000f5c0 <adpcm_start>:
    f5c0:	a9bd7bfd 	stp	x29, x30, [sp, #-48]!
    f5c4:	910003fd 	mov	x29, sp
    f5c8:	a90153f3 	stp	x19, x20, [sp, #16]
    f5cc:	aa0103f3 	mov	x19, x1
    f5d0:	aa0003f4 	mov	x20, x0
    f5d4:	a9025bf5 	stp	x21, x22, [sp, #32]
    f5d8:	2a0203f5 	mov	w21, w2
    f5dc:	97fffdad 	bl	ec90 <sox_get_globals@plt>
    f5e0:	f9400c00 	ldr	x0, [x0, #24]
    f5e4:	52800036 	mov	w22, #0x1                   	// #1
    f5e8:	97fffb66 	bl	e380 <lsx_malloc@plt>
    f5ec:	f9002260 	str	x0, [x19, #64]
    f5f0:	97fffda8 	bl	ec90 <sox_get_globals@plt>
    f5f4:	aa0003e2 	mov	x2, x0
    f5f8:	2a1503e1 	mov	w1, w21
    f5fc:	aa1303e0 	mov	x0, x19
    f600:	f9400c42 	ldr	x2, [x2, #24]
    f604:	f9002662 	str	x2, [x19, #72]
    f608:	b9001296 	str	w22, [x20, #16]
    f60c:	97ffffe5 	bl	f5a0 <lsx_adpcm_reset>
    f610:	2a1503e4 	mov	w4, w21
    f614:	aa1403e0 	mov	x0, x20
    f618:	2a1603e3 	mov	w3, w22
    f61c:	2a1603e1 	mov	w1, w22
    f620:	a94153f3 	ldp	x19, x20, [sp, #16]
    f624:	52800085 	mov	w5, #0x4                   	// #4
    f628:	a9425bf5 	ldp	x21, x22, [sp, #32]
    f62c:	52800002 	mov	w2, #0x0                   	// #0
    f630:	a8c37bfd 	ldp	x29, x30, [sp], #48
    f634:	1400174f 	b	15370 <lsx_rawstart>
    f638:	d503201f 	nop
    f63c:	d503201f 	nop

000000000000f640 <lsx_adpcm_oki_start>:
    f640:	52800222 	mov	w2, #0x11                  	// #17
    f644:	17ffffdf 	b	f5c0 <adpcm_start>
    f648:	d503201f 	nop
    f64c:	d503201f 	nop

000000000000f650 <lsx_adpcm_ima_start>:
    f650:	52800202 	mov	w2, #0x10                  	// #16
    f654:	17ffffdb 	b	f5c0 <adpcm_start>
    f658:	d503201f 	nop
    f65c:	d503201f 	nop

000000000000f660 <lsx_adpcm_read>:
    f660:	a9ba7bfd 	stp	x29, x30, [sp, #-96]!
    f664:	90000484 	adrp	x4, 9f000 <handler.1+0x60>
    f668:	910003fd 	mov	x29, sp
    f66c:	f947ac84 	ldr	x4, [x4, #3928]
    f670:	a90363f7 	stp	x23, x24, [sp, #48]
    f674:	aa0003f8 	mov	x24, x0
    f678:	f9400080 	ldr	x0, [x4]
    f67c:	f9002fe0 	str	x0, [sp, #88]
    f680:	d2800000 	mov	x0, #0x0                   	// #0
    f684:	aa0303f7 	mov	x23, x3
    f688:	d2800003 	mov	x3, #0x0                   	// #0
    f68c:	b4000417 	cbz	x23, f70c <lsx_adpcm_read+0xac>
    f690:	a90153f3 	stp	x19, x20, [sp, #16]
    f694:	aa0203f4 	mov	x20, x2
    f698:	a9025bf5 	stp	x21, x22, [sp, #32]
    f69c:	aa0103f6 	mov	x22, x1
    f6a0:	d2800015 	mov	x21, #0x0                   	// #0
    f6a4:	f90023f9 	str	x25, [sp, #64]
    f6a8:	3940e420 	ldrb	w0, [x1, #57]
    f6ac:	35000460 	cbnz	w0, f738 <lsx_adpcm_read+0xd8>
    f6b0:	91015ff9 	add	x25, sp, #0x57
    f6b4:	aa1803e0 	mov	x0, x24
    f6b8:	aa1903e1 	mov	x1, x25
    f6bc:	d2800022 	mov	x2, #0x1                   	// #1
    f6c0:	97fffdc4 	bl	edd0 <lsx_read_b_buf@plt>
    f6c4:	aa0003f3 	mov	x19, x0
    f6c8:	f100041f 	cmp	x0, #0x1
    f6cc:	54000721 	b.ne	f7b0 <lsx_adpcm_read+0x150>  // b.any
    f6d0:	39415fe0 	ldrb	w0, [sp, #87]
    f6d4:	aa1603e1 	mov	x1, x22
    f6d8:	53047c00 	lsr	w0, w0, #4
    f6dc:	97ffff49 	bl	f400 <lsx_adpcm_decode>
    f6e0:	910006a3 	add	x3, x21, #0x1
    f6e4:	53103c02 	lsl	w2, w0, #16
    f6e8:	b9000282 	str	w2, [x20]
    f6ec:	eb0302ff 	cmp	x23, x3
    f6f0:	540003e8 	b.hi	f76c <lsx_adpcm_read+0x10c>  // b.pmore
    f6f4:	39415fe0 	ldrb	w0, [sp, #87]
    f6f8:	3900e2c0 	strb	w0, [x22, #56]
    f6fc:	3900e6d3 	strb	w19, [x22, #57]
    f700:	a94153f3 	ldp	x19, x20, [sp, #16]
    f704:	a9425bf5 	ldp	x21, x22, [sp, #32]
    f708:	f94023f9 	ldr	x25, [sp, #64]
    f70c:	90000480 	adrp	x0, 9f000 <handler.1+0x60>
    f710:	f947ac00 	ldr	x0, [x0, #3928]
    f714:	f9402fe2 	ldr	x2, [sp, #88]
    f718:	f9400001 	ldr	x1, [x0]
    f71c:	eb010042 	subs	x2, x2, x1
    f720:	d2800001 	mov	x1, #0x0                   	// #0
    f724:	54000501 	b.ne	f7c4 <lsx_adpcm_read+0x164>  // b.any
    f728:	aa0303e0 	mov	x0, x3
    f72c:	a94363f7 	ldp	x23, x24, [sp, #48]
    f730:	a8c67bfd 	ldp	x29, x30, [sp], #96
    f734:	d65f03c0 	ret
    f738:	3940e020 	ldrb	w0, [x1, #56]
    f73c:	d2800035 	mov	x21, #0x1                   	// #1
    f740:	97ffff30 	bl	f400 <lsx_adpcm_decode>
    f744:	53103c00 	lsl	w0, w0, #16
    f748:	b8004680 	str	w0, [x20], #4
    f74c:	3900e6df 	strb	wzr, [x22, #57]
    f750:	eb1502ff 	cmp	x23, x21
    f754:	54fffae1 	b.ne	f6b0 <lsx_adpcm_read+0x50>  // b.any
    f758:	aa1703e3 	mov	x3, x23
    f75c:	a94153f3 	ldp	x19, x20, [sp, #16]
    f760:	a9425bf5 	ldp	x21, x22, [sp, #32]
    f764:	f94023f9 	ldr	x25, [sp, #64]
    f768:	17ffffe9 	b	f70c <lsx_adpcm_read+0xac>
    f76c:	39415fe0 	ldrb	w0, [sp, #87]
    f770:	aa1603e1 	mov	x1, x22
    f774:	91000ab5 	add	x21, x21, #0x2
    f778:	97ffff22 	bl	f400 <lsx_adpcm_decode>
    f77c:	53103c00 	lsl	w0, w0, #16
    f780:	b9000680 	str	w0, [x20, #4]
    f784:	91002281 	add	x1, x20, #0x8
    f788:	eb1502ff 	cmp	x23, x21
    f78c:	54000129 	b.ls	f7b0 <lsx_adpcm_read+0x150>  // b.plast
    f790:	aa0103f4 	mov	x20, x1
    f794:	aa1803e0 	mov	x0, x24
    f798:	aa1903e1 	mov	x1, x25
    f79c:	d2800022 	mov	x2, #0x1                   	// #1
    f7a0:	97fffd8c 	bl	edd0 <lsx_read_b_buf@plt>
    f7a4:	aa0003f3 	mov	x19, x0
    f7a8:	f100041f 	cmp	x0, #0x1
    f7ac:	54fff920 	b.eq	f6d0 <lsx_adpcm_read+0x70>  // b.none
    f7b0:	aa1503e3 	mov	x3, x21
    f7b4:	a94153f3 	ldp	x19, x20, [sp, #16]
    f7b8:	a9425bf5 	ldp	x21, x22, [sp, #32]
    f7bc:	f94023f9 	ldr	x25, [sp, #64]
    f7c0:	17ffffd3 	b	f70c <lsx_adpcm_read+0xac>
    f7c4:	a90153f3 	stp	x19, x20, [sp, #16]
    f7c8:	a9025bf5 	stp	x21, x22, [sp, #32]
    f7cc:	f90023f9 	str	x25, [sp, #64]
    f7d0:	97fffcb0 	bl	ea90 <__stack_chk_fail@plt>

000000000000f7d4 <lsx_adpcm_stopread>:
    f7d4:	a9bd7bfd 	stp	x29, x30, [sp, #-48]!
    f7d8:	910003fd 	mov	x29, sp
    f7dc:	f90013f5 	str	x21, [sp, #32]
    f7e0:	b9403035 	ldr	w21, [x1, #48]
    f7e4:	a90153f3 	stp	x19, x20, [sp, #16]
    f7e8:	aa0103f3 	mov	x19, x1
    f7ec:	35000115 	cbnz	w21, f80c <lsx_adpcm_stopread+0x38>
    f7f0:	f9402260 	ldr	x0, [x19, #64]
    f7f4:	97fffe0f 	bl	f030 <free@plt>
    f7f8:	52800000 	mov	w0, #0x0                   	// #0
    f7fc:	a94153f3 	ldp	x19, x20, [sp, #16]
    f800:	f94013f5 	ldr	x21, [sp, #32]
    f804:	a8c37bfd 	ldp	x29, x30, [sp], #48
    f808:	d65f03c0 	ret
    f80c:	aa0003f4 	mov	x20, x0
    f810:	97fffd20 	bl	ec90 <sox_get_globals@plt>
    f814:	90000282 	adrp	x2, 5f000 <__trunctfdf2+0x140>
    f818:	91098042 	add	x2, x2, #0x260
    f81c:	f9400281 	ldr	x1, [x20]
    f820:	f9002002 	str	x2, [x0, #64]
    f824:	2a1503e2 	mov	w2, w21
    f828:	90000280 	adrp	x0, 5f000 <__trunctfdf2+0x140>
    f82c:	910a4000 	add	x0, x0, #0x290
    f830:	97fffd04 	bl	ec40 <lsx_warn_impl@plt>
    f834:	f9402260 	ldr	x0, [x19, #64]
    f838:	97fffdfe 	bl	f030 <free@plt>
    f83c:	52800000 	mov	w0, #0x0                   	// #0
    f840:	a94153f3 	ldp	x19, x20, [sp, #16]
    f844:	f94013f5 	ldr	x21, [sp, #32]
    f848:	a8c37bfd 	ldp	x29, x30, [sp], #48
    f84c:	d65f03c0 	ret

000000000000f850 <lsx_adpcm_write>:
    f850:	a9ba7bfd 	stp	x29, x30, [sp, #-96]!
    f854:	910003fd 	mov	x29, sp
    f858:	a90153f3 	stp	x19, x20, [sp, #16]
    f85c:	aa0103f4 	mov	x20, x1
    f860:	a9025bf5 	stp	x21, x22, [sp, #32]
    f864:	a90363f7 	stp	x23, x24, [sp, #48]
    f868:	aa0303f7 	mov	x23, x3
    f86c:	f9002bfb 	str	x27, [sp, #80]
    f870:	3940e033 	ldrb	w19, [x1, #56]
    f874:	3940e436 	ldrb	w22, [x1, #57]
    f878:	b40006c3 	cbz	x3, f950 <lsx_adpcm_write+0x100>
    f87c:	aa0003f8 	mov	x24, x0
    f880:	d2800015 	mov	x21, #0x0                   	// #0
    f884:	a9046bf9 	stp	x25, x26, [sp, #64]
    f888:	aa0203f9 	mov	x25, x2
    f88c:	3200bbfa 	mov	w26, #0x7fff7fff            	// #2147450879
    f890:	14000018 	b	f8f0 <lsx_adpcm_write+0xa0>
    f894:	f9409b01 	ldr	x1, [x24, #304]
    f898:	91000421 	add	x1, x1, #0x1
    f89c:	f9009b01 	str	x1, [x24, #304]
    f8a0:	aa1403e1 	mov	x1, x20
    f8a4:	97ffff23 	bl	f530 <lsx_adpcm_encode>
    f8a8:	710002df 	cmp	w22, #0x0
    f8ac:	531c0e73 	ubfiz	w19, w19, #4, #4
    f8b0:	12000c00 	and	w0, w0, #0xf
    f8b4:	1a9f17fb 	cset	w27, eq  // eq = none
    f8b8:	910006b5 	add	x21, x21, #0x1
    f8bc:	2a000273 	orr	w19, w19, w0
    f8c0:	2a1b03f6 	mov	w22, w27
    f8c4:	54000120 	b.eq	f8e8 <lsx_adpcm_write+0x98>  // b.none
    f8c8:	f9402281 	ldr	x1, [x20, #64]
    f8cc:	f9402a80 	ldr	x0, [x20, #80]
    f8d0:	91000402 	add	x2, x0, #0x1
    f8d4:	f9002a82 	str	x2, [x20, #80]
    f8d8:	38206833 	strb	w19, [x1, x0]
    f8dc:	a9448a80 	ldp	x0, x2, [x20, #72]
    f8e0:	eb00005f 	cmp	x2, x0
    f8e4:	54000142 	b.cs	f90c <lsx_adpcm_write+0xbc>  // b.hs, b.nlast
    f8e8:	eb1502ff 	cmp	x23, x21
    f8ec:	540001e0 	b.eq	f928 <lsx_adpcm_write+0xd8>  // b.none
    f8f0:	b8757b21 	ldr	w1, [x25, x21, lsl #2]
    f8f4:	528fffe0 	mov	w0, #0x7fff                	// #32767
    f8f8:	11402022 	add	w2, w1, #0x8, lsl #12
    f8fc:	6b1a003f 	cmp	w1, w26
    f900:	54fffcac 	b.gt	f894 <lsx_adpcm_write+0x44>
    f904:	13107c40 	asr	w0, w2, #16
    f908:	17ffffe6 	b	f8a0 <lsx_adpcm_write+0x50>
    f90c:	f9402281 	ldr	x1, [x20, #64]
    f910:	aa1803e0 	mov	x0, x24
    f914:	97fffc5b 	bl	ea80 <lsx_writebuf@plt>
    f918:	f9002a9f 	str	xzr, [x20, #80]
    f91c:	eb1502ff 	cmp	x23, x21
    f920:	54fffe81 	b.ne	f8f0 <lsx_adpcm_write+0xa0>  // b.any
    f924:	d503201f 	nop
    f928:	a9446bf9 	ldp	x25, x26, [sp, #64]
    f92c:	3900e293 	strb	w19, [x20, #56]
    f930:	3900e69b 	strb	w27, [x20, #57]
    f934:	aa1703e0 	mov	x0, x23
    f938:	a94153f3 	ldp	x19, x20, [sp, #16]
    f93c:	a9425bf5 	ldp	x21, x22, [sp, #32]
    f940:	a94363f7 	ldp	x23, x24, [sp, #48]
    f944:	f9402bfb 	ldr	x27, [sp, #80]
    f948:	a8c67bfd 	ldp	x29, x30, [sp], #96
    f94c:	d65f03c0 	ret
    f950:	2a1603fb 	mov	w27, w22
    f954:	17fffff6 	b	f92c <lsx_adpcm_write+0xdc>
    f958:	d503201f 	nop
    f95c:	d503201f 	nop

000000000000f960 <lsx_adpcm_flush>:
    f960:	3940e422 	ldrb	w2, [x1, #57]
    f964:	34000102 	cbz	w2, f984 <lsx_adpcm_flush+0x24>
    f968:	f9402024 	ldr	x4, [x1, #64]
    f96c:	f9402823 	ldr	x3, [x1, #80]
    f970:	3940e022 	ldrb	w2, [x1, #56]
    f974:	91000465 	add	x5, x3, #0x1
    f978:	f9002825 	str	x5, [x1, #80]
    f97c:	531c0c42 	ubfiz	w2, w2, #4, #4
    f980:	38236882 	strb	w2, [x4, x3]
    f984:	f9402822 	ldr	x2, [x1, #80]
    f988:	b5000042 	cbnz	x2, f990 <lsx_adpcm_flush+0x30>
    f98c:	d65f03c0 	ret
    f990:	f9402021 	ldr	x1, [x1, #64]
    f994:	17fffc3b 	b	ea80 <lsx_writebuf@plt>
    f998:	d503201f 	nop
    f99c:	d503201f 	nop

000000000000f9a0 <lsx_adpcm_stopwrite>:
    f9a0:	a9be7bfd 	stp	x29, x30, [sp, #-32]!
    f9a4:	910003fd 	mov	x29, sp
    f9a8:	f9000bf3 	str	x19, [sp, #16]
    f9ac:	aa0103f3 	mov	x19, x1
    f9b0:	97ffffec 	bl	f960 <lsx_adpcm_flush>
    f9b4:	f9402260 	ldr	x0, [x19, #64]
    f9b8:	97fffd9e 	bl	f030 <free@plt>
    f9bc:	52800000 	mov	w0, #0x0                   	// #0
    f9c0:	f9400bf3 	ldr	x19, [sp, #16]
    f9c4:	a8c27bfd 	ldp	x29, x30, [sp], #32
    f9c8:	d65f03c0 	ret
    f9cc:	d503201f 	nop

000000000000f9d0 <textChunk>:
    f9d0:	a9bb7bfd 	stp	x29, x30, [sp, #-80]!
    f9d4:	90000483 	adrp	x3, 9f000 <handler.1+0x60>
    f9d8:	910003fd 	mov	x29, sp
    f9dc:	f947ac63 	ldr	x3, [x3, #3928]
    f9e0:	a90153f3 	stp	x19, x20, [sp, #16]
    f9e4:	aa0203f4 	mov	x20, x2
    f9e8:	a9025bf5 	stp	x21, x22, [sp, #32]
    f9ec:	aa0103f5 	mov	x21, x1
    f9f0:	aa0003f3 	mov	x19, x0
    f9f4:	f9001bf7 	str	x23, [sp, #48]
    f9f8:	aa0203e0 	mov	x0, x2
    f9fc:	f9400061 	ldr	x1, [x3]
    fa00:	f90027e1 	str	x1, [sp, #72]
    fa04:	d2800001 	mov	x1, #0x0                   	// #0
    fa08:	910113e1 	add	x1, sp, #0x44
    fa0c:	940026e1 	bl	19590 <lsx_readdw>
    fa10:	b94047f7 	ldr	w23, [sp, #68]
    fa14:	2a1703f6 	mov	w22, w23
    fa18:	910006c0 	add	x0, x22, #0x1
    fa1c:	97fffa59 	bl	e380 <lsx_malloc@plt>
    fa20:	f9000260 	str	x0, [x19]
    fa24:	aa0003e1 	mov	x1, x0
    fa28:	aa1603e2 	mov	x2, x22
    fa2c:	aa1403e0 	mov	x0, x20
    fa30:	97fffbf4 	bl	ea00 <lsx_readbuf@plt>
    fa34:	eb16001f 	cmp	x0, x22
    fa38:	54000401 	b.ne	fab8 <textChunk+0xe8>  // b.any
    fa3c:	f9400261 	ldr	x1, [x19]
    fa40:	3820683f 	strb	wzr, [x1, x0]
    fa44:	370002f7 	tbnz	w23, #0, faa0 <textChunk+0xd0>
    fa48:	97fffc92 	bl	ec90 <sox_get_globals@plt>
    fa4c:	90000282 	adrp	x2, 5f000 <__trunctfdf2+0x140>
    fa50:	91168042 	add	x2, x2, #0x5a0
    fa54:	f9002002 	str	x2, [x0, #64]
    fa58:	90000283 	adrp	x3, 5f000 <__trunctfdf2+0x140>
    fa5c:	aa1503e1 	mov	x1, x21
    fa60:	9116a060 	add	x0, x3, #0x5a8
    fa64:	f9400262 	ldr	x2, [x19]
    fa68:	97fffd32 	bl	ef30 <lsx_debug_impl@plt>
    fa6c:	52800000 	mov	w0, #0x0                   	// #0
    fa70:	90000481 	adrp	x1, 9f000 <handler.1+0x60>
    fa74:	f947ac21 	ldr	x1, [x1, #3928]
    fa78:	f94027e3 	ldr	x3, [sp, #72]
    fa7c:	f9400022 	ldr	x2, [x1]
    fa80:	eb020063 	subs	x3, x3, x2
    fa84:	d2800002 	mov	x2, #0x0                   	// #0
    fa88:	54000281 	b.ne	fad8 <textChunk+0x108>  // b.any
    fa8c:	a94153f3 	ldp	x19, x20, [sp, #16]
    fa90:	a9425bf5 	ldp	x21, x22, [sp, #32]
    fa94:	f9401bf7 	ldr	x23, [sp, #48]
    fa98:	a8c57bfd 	ldp	x29, x30, [sp], #80
    fa9c:	d65f03c0 	ret
    faa0:	91010fe1 	add	x1, sp, #0x43
    faa4:	aa1403e0 	mov	x0, x20
    faa8:	d2800022 	mov	x2, #0x1                   	// #1
    faac:	97fffbd5 	bl	ea00 <lsx_readbuf@plt>
    fab0:	f100041f 	cmp	x0, #0x1
    fab4:	54fffca0 	b.eq	fa48 <textChunk+0x78>  // b.none
    fab8:	aa1403e0 	mov	x0, x20
    fabc:	aa1503e3 	mov	x3, x21
    fac0:	90000282 	adrp	x2, 5f000 <__trunctfdf2+0x140>
    fac4:	12800001 	mov	w1, #0xffffffff            	// #-1
    fac8:	9115e042 	add	x2, x2, #0x578
    facc:	97fffc49 	bl	ebf0 <lsx_fail_errno@plt>
    fad0:	12800000 	mov	w0, #0xffffffff            	// #-1
    fad4:	17ffffe7 	b	fa70 <textChunk+0xa0>
    fad8:	97fffbee 	bl	ea90 <__stack_chk_fail@plt>
    fadc:	d503201f 	nop

000000000000fae0 <write_ieee_extended>:
    fae0:	d10303ff 	sub	sp, sp, #0xc0
    fae4:	90000481 	adrp	x1, 9f000 <handler.1+0x60>
    fae8:	1e602018 	fcmpe	d0, #0.0
    faec:	a9027bfd 	stp	x29, x30, [sp, #32]
    faf0:	910083fd 	add	x29, sp, #0x20
    faf4:	f947ac21 	ldr	x1, [x1, #3928]
    faf8:	a90353f3 	stp	x19, x20, [sp, #48]
    fafc:	aa0003f3 	mov	x19, x0
    fb00:	a9045bf5 	stp	x21, x22, [sp, #64]
    fb04:	a90563f7 	stp	x23, x24, [sp, #80]
    fb08:	a9066bf9 	stp	x25, x26, [sp, #96]
    fb0c:	a90773fb 	stp	x27, x28, [sp, #112]
    fb10:	6d0827e8 	stp	d8, d9, [sp, #128]
    fb14:	f9400020 	ldr	x0, [x1]
    fb18:	f9005fe0 	str	x0, [sp, #184]
    fb1c:	d2800000 	mov	x0, #0x0                   	// #0
    fb20:	1e604008 	fmov	d8, d0
    fb24:	54000924 	b.mi	fc48 <write_ieee_extended+0x168>  // b.first
    fb28:	1e602008 	fcmp	d0, #0.0
    fb2c:	52800015 	mov	w21, #0x0                   	// #0
    fb30:	54000941 	b.ne	fc58 <write_ieee_extended+0x178>  // b.any
    fb34:	52800001 	mov	w1, #0x0                   	// #0
    fb38:	52800000 	mov	w0, #0x0                   	// #0
    fb3c:	52800002 	mov	w2, #0x0                   	// #0
    fb40:	52800003 	mov	w3, #0x0                   	// #0
    fb44:	52800008 	mov	w8, #0x0                   	// #0
    fb48:	52800004 	mov	w4, #0x0                   	// #0
    fb4c:	52800005 	mov	w5, #0x0                   	// #0
    fb50:	52800006 	mov	w6, #0x0                   	// #0
    fb54:	52800009 	mov	w9, #0x0                   	// #0
    fb58:	5280000a 	mov	w10, #0x0                   	// #0
    fb5c:	52800014 	mov	w20, #0x0                   	// #0
    fb60:	52800015 	mov	w21, #0x0                   	// #0
    fb64:	52800016 	mov	w22, #0x0                   	// #0
    fb68:	52800007 	mov	w7, #0x0                   	// #0
    fb6c:	5280001c 	mov	w28, #0x0                   	// #0
    fb70:	5280001b 	mov	w27, #0x0                   	// #0
    fb74:	5280001a 	mov	w26, #0x0                   	// #0
    fb78:	52800019 	mov	w25, #0x0                   	// #0
    fb7c:	52800017 	mov	w23, #0x0                   	// #0
    fb80:	52800018 	mov	w24, #0x0                   	// #0
    fb84:	b9009fe7 	str	w7, [sp, #156]
    fb88:	3902a3ea 	strb	w10, [sp, #168]
    fb8c:	3902a7e9 	strb	w9, [sp, #169]
    fb90:	3902abe6 	strb	w6, [sp, #170]
    fb94:	3902afe5 	strb	w5, [sp, #171]
    fb98:	3902b3e4 	strb	w4, [sp, #172]
    fb9c:	3902b7e8 	strb	w8, [sp, #173]
    fba0:	3902bbe3 	strb	w3, [sp, #174]
    fba4:	3902bfe2 	strb	w2, [sp, #175]
    fba8:	3902c3e0 	strb	w0, [sp, #176]
    fbac:	3902c7e1 	strb	w1, [sp, #177]
    fbb0:	97fffc38 	bl	ec90 <sox_get_globals@plt>
    fbb4:	b9409fe7 	ldr	w7, [sp, #156]
    fbb8:	1e604100 	fmov	d0, d8
    fbbc:	90000288 	adrp	x8, 5f000 <__trunctfdf2+0x140>
    fbc0:	91168108 	add	x8, x8, #0x5a0
    fbc4:	f9002008 	str	x8, [x0, #64]
    fbc8:	2a1c03e6 	mov	w6, w28
    fbcc:	2a1b03e5 	mov	w5, w27
    fbd0:	2a1a03e4 	mov	w4, w26
    fbd4:	2a1903e3 	mov	w3, w25
    fbd8:	b90003f6 	str	w22, [sp]
    fbdc:	b9000bf5 	str	w21, [sp, #8]
    fbe0:	2a1803e2 	mov	w2, w24
    fbe4:	b90013f4 	str	w20, [sp, #16]
    fbe8:	2a1703e1 	mov	w1, w23
    fbec:	90000280 	adrp	x0, 5f000 <__trunctfdf2+0x140>
    fbf0:	9116e000 	add	x0, x0, #0x5b8
    fbf4:	97fffa8f 	bl	e630 <lsx_debug_more_impl@plt>
    fbf8:	9102a3e1 	add	x1, sp, #0xa8
    fbfc:	d2800142 	mov	x2, #0xa                   	// #10
    fc00:	aa1303e0 	mov	x0, x19
    fc04:	97fffb9f 	bl	ea80 <lsx_writebuf@plt>
    fc08:	90000480 	adrp	x0, 9f000 <handler.1+0x60>
    fc0c:	f947ac00 	ldr	x0, [x0, #3928]
    fc10:	f9405fe2 	ldr	x2, [sp, #184]
    fc14:	f9400001 	ldr	x1, [x0]
    fc18:	eb010042 	subs	x2, x2, x1
    fc1c:	d2800001 	mov	x1, #0x0                   	// #0
    fc20:	54000b81 	b.ne	fd90 <write_ieee_extended+0x2b0>  // b.any
    fc24:	a9427bfd 	ldp	x29, x30, [sp, #32]
    fc28:	a94353f3 	ldp	x19, x20, [sp, #48]
    fc2c:	a9445bf5 	ldp	x21, x22, [sp, #64]
    fc30:	a94563f7 	ldp	x23, x24, [sp, #80]
    fc34:	a9466bf9 	ldp	x25, x26, [sp, #96]
    fc38:	a94773fb 	ldp	x27, x28, [sp, #112]
    fc3c:	6d4827e8 	ldp	d8, d9, [sp, #128]
    fc40:	910303ff 	add	sp, sp, #0xc0
    fc44:	d65f03c0 	ret
    fc48:	1e614000 	fneg	d0, d0
    fc4c:	52900015 	mov	w21, #0x8000                	// #32768
    fc50:	1e602008 	fcmp	d0, #0.0
    fc54:	54fff700 	b.eq	fb34 <write_ieee_extended+0x54>  // b.none
    fc58:	910293e0 	add	x0, sp, #0xa4
    fc5c:	97fffaf9 	bl	e840 <frexp@plt>
    fc60:	b940a7e0 	ldr	w0, [sp, #164]
    fc64:	1e604001 	fmov	d1, d0
    fc68:	7140101f 	cmp	w0, #0x4, lsl #12
    fc6c:	540002ed 	b.le	fcc8 <write_ieee_extended+0x1e8>
    fc70:	32003ab5 	orr	w21, w21, #0x7fff
    fc74:	52801fe9 	mov	w9, #0xff                  	// #255
    fc78:	52800001 	mov	w1, #0x0                   	// #0
    fc7c:	2a0903f8 	mov	w24, w9
    fc80:	13087eb7 	asr	w23, w21, #8
    fc84:	d3483eaa 	ubfx	x10, x21, #8, #8
    fc88:	52800000 	mov	w0, #0x0                   	// #0
    fc8c:	52800002 	mov	w2, #0x0                   	// #0
    fc90:	52800003 	mov	w3, #0x0                   	// #0
    fc94:	52800008 	mov	w8, #0x0                   	// #0
    fc98:	52800004 	mov	w4, #0x0                   	// #0
    fc9c:	52800005 	mov	w5, #0x0                   	// #0
    fca0:	52800006 	mov	w6, #0x0                   	// #0
    fca4:	52800014 	mov	w20, #0x0                   	// #0
    fca8:	52800015 	mov	w21, #0x0                   	// #0
    fcac:	52800016 	mov	w22, #0x0                   	// #0
    fcb0:	52800007 	mov	w7, #0x0                   	// #0
    fcb4:	5280001c 	mov	w28, #0x0                   	// #0
    fcb8:	5280001b 	mov	w27, #0x0                   	// #0
    fcbc:	5280001a 	mov	w26, #0x0                   	// #0
    fcc0:	52800019 	mov	w25, #0x0                   	// #0
    fcc4:	17ffffb0 	b	fb84 <write_ieee_extended+0xa4>
    fcc8:	1e6e1002 	fmov	d2, #1.000000000000000000e+00
    fccc:	1e622010 	fcmpe	d0, d2
    fcd0:	54000044 	b.mi	fcd8 <write_ieee_extended+0x1f8>  // b.first
    fcd4:	17ffffe7 	b	fc70 <write_ieee_extended+0x190>
    fcd8:	5287ffc1 	mov	w1, #0x3ffe                	// #16382
    fcdc:	0b010000 	add	w0, w0, w1
    fce0:	b900a7e0 	str	w0, [sp, #164]
    fce4:	37f80500 	tbnz	w0, #31, fd84 <write_ieee_extended+0x2a4>
    fce8:	2a0002b5 	orr	w21, w21, w0
    fcec:	1e604020 	fmov	d0, d1
    fcf0:	52800400 	mov	w0, #0x20                  	// #32
    fcf4:	52b00016 	mov	w22, #0x80000000            	// #-2147483648
    fcf8:	12001eb8 	and	w24, w21, #0xff
    fcfc:	13087eb7 	asr	w23, w21, #8
    fd00:	97fff9a4 	bl	e390 <ldexp@plt>
    fd04:	1e654001 	frintm	d1, d0
    fd08:	d2e83c00 	mov	x0, #0x41e0000000000000    	// #4746794007248502784
    fd0c:	9e670009 	fmov	d9, x0
    fd10:	52800400 	mov	w0, #0x20                  	// #32
    fd14:	1e693822 	fsub	d2, d1, d9
    fd18:	1e613800 	fsub	d0, d0, d1
    fd1c:	1e780048 	fcvtzs	w8, d2
    fd20:	0b160114 	add	w20, w8, w22
    fd24:	97fff99b 	bl	e390 <ldexp@plt>
    fd28:	1e654000 	frintm	d0, d0
    fd2c:	d3483eaa 	ubfx	x10, x21, #8, #8
    fd30:	53187e99 	lsr	w25, w20, #24
    fd34:	d3505e9a 	ubfx	x26, x20, #16, #8
    fd38:	d3483e9b 	ubfx	x27, x20, #8, #8
    fd3c:	12001ea9 	and	w9, w21, #0xff
    fd40:	12001e9c 	and	w28, w20, #0xff
    fd44:	12001e88 	and	w8, w20, #0xff
    fd48:	1e693800 	fsub	d0, d0, d9
    fd4c:	2a1903e6 	mov	w6, w25
    fd50:	aa1a03e5 	mov	x5, x26
    fd54:	aa1b03e4 	mov	x4, x27
    fd58:	1e780000 	fcvtzs	w0, d0
    fd5c:	0b160000 	add	w0, w0, w22
    fd60:	12001c14 	and	w20, w0, #0xff
    fd64:	12001c01 	and	w1, w0, #0xff
    fd68:	53187c07 	lsr	w7, w0, #24
    fd6c:	d3505c16 	ubfx	x22, x0, #16, #8
    fd70:	d3483c15 	ubfx	x21, x0, #8, #8
    fd74:	2a0703e3 	mov	w3, w7
    fd78:	aa1603e2 	mov	x2, x22
    fd7c:	aa1503e0 	mov	x0, x21
    fd80:	17ffff81 	b	fb84 <write_ieee_extended+0xa4>
    fd84:	97fff983 	bl	e390 <ldexp@plt>
    fd88:	1e604001 	fmov	d1, d0
    fd8c:	17ffffd8 	b	fcec <write_ieee_extended+0x20c>
    fd90:	97fffb40 	bl	ea90 <__stack_chk_fail@plt>

000000000000fd94 <aiffwriteheader>:
    fd94:	a9bb7bfd 	stp	x29, x30, [sp, #-80]!
    fd98:	910003fd 	mov	x29, sp
    fd9c:	a90153f3 	stp	x19, x20, [sp, #16]
    fda0:	aa0003f3 	mov	x19, x0
    fda4:	f9402800 	ldr	x0, [x0, #80]
    fda8:	a9025bf5 	stp	x21, x22, [sp, #32]
    fdac:	aa0103f5 	mov	x21, x1
    fdb0:	a9046bf9 	stp	x25, x26, [sp, #64]
    fdb4:	94001ae3 	bl	16940 <lsx_cat_comments>
    fdb8:	b9405e74 	ldr	w20, [x19, #92]
    fdbc:	aa0003f6 	mov	x22, x0
    fdc0:	f9401660 	ldr	x0, [x19, #40]
    fdc4:	7100029f 	cmp	w20, #0x0
    fdc8:	531c6e94 	lsl	w20, w20, #4
    fdcc:	d2800021 	mov	x1, #0x1                   	// #1
    fdd0:	11015294 	add	w20, w20, #0x54
    fdd4:	528005c2 	mov	w2, #0x2e                  	// #46
    fdd8:	f2c00101 	movk	x1, #0x8, lsl #32
    fddc:	1a821294 	csel	w20, w20, w2, ne  // ne = any
    fde0:	eb01001f 	cmp	x0, x1
    fde4:	540010e0 	b.eq	10000 <aiffwriteheader+0x26c>  // b.none
    fde8:	d2800021 	mov	x1, #0x1                   	// #1
    fdec:	f2c00201 	movk	x1, #0x10, lsl #32
    fdf0:	eb01001f 	cmp	x0, x1
    fdf4:	54000f60 	b.eq	ffe0 <aiffwriteheader+0x24c>  // b.none
    fdf8:	d2800021 	mov	x1, #0x1                   	// #1
    fdfc:	f2c00301 	movk	x1, #0x18, lsl #32
    fe00:	eb01001f 	cmp	x0, x1
    fe04:	54001fc0 	b.eq	101fc <aiffwriteheader+0x468>  // b.none
    fe08:	d2800021 	mov	x1, #0x1                   	// #1
    fe0c:	5280041a 	mov	w26, #0x20                  	// #32
    fe10:	f2c00401 	movk	x1, #0x20, lsl #32
    fe14:	eb01001f 	cmp	x0, x1
    fe18:	540020c1 	b.ne	10230 <aiffwriteheader+0x49c>  // b.any
    fe1c:	a90363f7 	stp	x23, x24, [sp, #48]
    fe20:	f9402a60 	ldr	x0, [x19, #80]
    fe24:	b4000e60 	cbz	x0, fff0 <aiffwriteheader+0x25c>
    fe28:	aa1603e0 	mov	x0, x22
    fe2c:	97fffcf1 	bl	f1f0 <strlen@plt>
    fe30:	92400018 	and	x24, x0, #0x1
    fe34:	11002294 	add	w20, w20, #0x8
    fe38:	8b180018 	add	x24, x0, x24
    fe3c:	aa0003f7 	mov	x23, x0
    fe40:	91002b19 	add	x25, x24, #0xa
    fe44:	0b190294 	add	w20, w20, w25
    fe48:	aa1303e0 	mov	x0, x19
    fe4c:	90000281 	adrp	x1, 5f000 <__trunctfdf2+0x140>
    fe50:	91188021 	add	x1, x1, #0x620
    fe54:	97fffc63 	bl	efe0 <lsx_writes@plt>
    fe58:	b9401260 	ldr	w0, [x19, #16]
    fe5c:	93407e94 	sxtw	x20, w20
    fe60:	b9402e61 	ldr	w1, [x19, #44]
    fe64:	b2407fe2 	mov	x2, #0xffffffff            	// #4294967295
    fe68:	9b157c00 	mul	x0, x0, x21
    fe6c:	53037c21 	lsr	w1, w1, #3
    fe70:	9b005021 	madd	x1, x1, x0, x20
    fe74:	eb02003f 	cmp	x1, x2
    fe78:	540019e8 	b.hi	101b4 <aiffwriteheader+0x420>  // b.pmore
    fe7c:	aa1303e0 	mov	x0, x19
    fe80:	940028a0 	bl	1a100 <lsx_writedw>
    fe84:	aa1303e0 	mov	x0, x19
    fe88:	90000281 	adrp	x1, 5f000 <__trunctfdf2+0x140>
    fe8c:	91196021 	add	x1, x1, #0x658
    fe90:	97fffc54 	bl	efe0 <lsx_writes@plt>
    fe94:	f9402a60 	ldr	x0, [x19, #80]
    fe98:	b4000440 	cbz	x0, ff20 <aiffwriteheader+0x18c>
    fe9c:	aa1303e0 	mov	x0, x19
    fea0:	90000281 	adrp	x1, 5f000 <__trunctfdf2+0x140>
    fea4:	91198021 	add	x1, x1, #0x660
    fea8:	97fffc4e 	bl	efe0 <lsx_writes@plt>
    feac:	2a1903e1 	mov	w1, w25
    feb0:	aa1303e0 	mov	x0, x19
    feb4:	94002893 	bl	1a100 <lsx_writedw>
    feb8:	52961014 	mov	w20, #0xb080                	// #45184
    febc:	52800021 	mov	w1, #0x1                   	// #1
    fec0:	aa1303e0 	mov	x0, x19
    fec4:	9400285f 	bl	1a040 <lsx_writew>
    fec8:	72af84b4 	movk	w20, #0x7c25, lsl #16
    fecc:	97fffb71 	bl	ec90 <sox_get_globals@plt>
    fed0:	b9401000 	ldr	w0, [x0, #16]
    fed4:	340018c0 	cbz	w0, 101ec <aiffwriteheader+0x458>
    fed8:	2a1403e1 	mov	w1, w20
    fedc:	aa1303e0 	mov	x0, x19
    fee0:	94002888 	bl	1a100 <lsx_writedw>
    fee4:	52800001 	mov	w1, #0x0                   	// #0
    fee8:	aa1303e0 	mov	x0, x19
    feec:	94002855 	bl	1a040 <lsx_writew>
    fef0:	2a1803e1 	mov	w1, w24
    fef4:	aa1303e0 	mov	x0, x19
    fef8:	94002852 	bl	1a040 <lsx_writew>
    fefc:	aa1603e1 	mov	x1, x22
    ff00:	aa1303e0 	mov	x0, x19
    ff04:	97fffc37 	bl	efe0 <lsx_writes@plt>
    ff08:	eb17031f 	cmp	x24, x23
    ff0c:	540000a0 	b.eq	ff20 <aiffwriteheader+0x18c>  // b.none
    ff10:	90000281 	adrp	x1, 5f000 <__trunctfdf2+0x140>
    ff14:	aa1303e0 	mov	x0, x19
    ff18:	9119a021 	add	x1, x1, #0x668
    ff1c:	97fffc31 	bl	efe0 <lsx_writes@plt>
    ff20:	aa1603e0 	mov	x0, x22
    ff24:	97fffc43 	bl	f030 <free@plt>
    ff28:	aa1303e0 	mov	x0, x19
    ff2c:	90000281 	adrp	x1, 5f000 <__trunctfdf2+0x140>
    ff30:	9119c021 	add	x1, x1, #0x670
    ff34:	97fffc2b 	bl	efe0 <lsx_writes@plt>
    ff38:	52800241 	mov	w1, #0x12                  	// #18
    ff3c:	aa1303e0 	mov	x0, x19
    ff40:	94002870 	bl	1a100 <lsx_writedw>
    ff44:	b9401261 	ldr	w1, [x19, #16]
    ff48:	aa1303e0 	mov	x0, x19
    ff4c:	9400283d 	bl	1a040 <lsx_writew>
    ff50:	2a1503e1 	mov	w1, w21
    ff54:	aa1303e0 	mov	x0, x19
    ff58:	9400286a 	bl	1a100 <lsx_writedw>
    ff5c:	2a1a03e1 	mov	w1, w26
    ff60:	aa1303e0 	mov	x0, x19
    ff64:	94002837 	bl	1a040 <lsx_writew>
    ff68:	fd400660 	ldr	d0, [x19, #8]
    ff6c:	aa1303e0 	mov	x0, x19
    ff70:	97fffedc 	bl	fae0 <write_ieee_extended>
    ff74:	b9405e60 	ldr	w0, [x19, #92]
    ff78:	350004a0 	cbnz	w0, 1000c <aiffwriteheader+0x278>
    ff7c:	aa1303e0 	mov	x0, x19
    ff80:	90000281 	adrp	x1, 5f000 <__trunctfdf2+0x140>
    ff84:	911a2021 	add	x1, x1, #0x688
    ff88:	97fffc16 	bl	efe0 <lsx_writes@plt>
    ff8c:	b9401261 	ldr	w1, [x19, #16]
    ff90:	aa1303e0 	mov	x0, x19
    ff94:	b9402e62 	ldr	w2, [x19, #44]
    ff98:	1b157c21 	mul	w1, w1, w21
    ff9c:	53037c42 	lsr	w2, w2, #3
    ffa0:	1b027c21 	mul	w1, w1, w2
    ffa4:	11002021 	add	w1, w1, #0x8
    ffa8:	94002856 	bl	1a100 <lsx_writedw>
    ffac:	52800001 	mov	w1, #0x0                   	// #0
    ffb0:	aa1303e0 	mov	x0, x19
    ffb4:	94002853 	bl	1a100 <lsx_writedw>
    ffb8:	aa1303e0 	mov	x0, x19
    ffbc:	52800001 	mov	w1, #0x0                   	// #0
    ffc0:	94002850 	bl	1a100 <lsx_writedw>
    ffc4:	a94363f7 	ldp	x23, x24, [sp, #48]
    ffc8:	52800000 	mov	w0, #0x0                   	// #0
    ffcc:	a94153f3 	ldp	x19, x20, [sp, #16]
    ffd0:	a9425bf5 	ldp	x21, x22, [sp, #32]
    ffd4:	a9446bf9 	ldp	x25, x26, [sp, #64]
    ffd8:	a8c57bfd 	ldp	x29, x30, [sp], #80
    ffdc:	d65f03c0 	ret
    ffe0:	f9402a60 	ldr	x0, [x19, #80]
    ffe4:	a90363f7 	stp	x23, x24, [sp, #48]
    ffe8:	5280021a 	mov	w26, #0x10                  	// #16
    ffec:	b5fff1e0 	cbnz	x0, fe28 <aiffwriteheader+0x94>
    fff0:	d2800019 	mov	x25, #0x0                   	// #0
    fff4:	d2800017 	mov	x23, #0x0                   	// #0
    fff8:	d2800018 	mov	x24, #0x0                   	// #0
    fffc:	17ffff93 	b	fe48 <aiffwriteheader+0xb4>
   10000:	5280011a 	mov	w26, #0x8                   	// #8
   10004:	a90363f7 	stp	x23, x24, [sp, #48]
   10008:	17ffff86 	b	fe20 <aiffwriteheader+0x8c>
   1000c:	aa1303e0 	mov	x0, x19
   10010:	f0000261 	adrp	x1, 5f000 <__trunctfdf2+0x140>
   10014:	9119e021 	add	x1, x1, #0x678
   10018:	97fffbf2 	bl	efe0 <lsx_writes@plt>
   1001c:	b9405e60 	ldr	w0, [x19, #92]
   10020:	7100081f 	cmp	w0, #0x2
   10024:	54000dc8 	b.hi	101dc <aiffwriteheader+0x448>  // b.pmore
   10028:	531c6c00 	lsl	w0, w0, #4
   1002c:	11000801 	add	w1, w0, #0x2
   10030:	aa1303e0 	mov	x0, x19
   10034:	94002833 	bl	1a100 <lsx_writedw>
   10038:	b9405e61 	ldr	w1, [x19, #92]
   1003c:	aa1303e0 	mov	x0, x19
   10040:	91018278 	add	x24, x19, #0x60
   10044:	5280003a 	mov	w26, #0x1                   	// #1
   10048:	52800017 	mov	w23, #0x0                   	// #0
   1004c:	b2407ff6 	mov	x22, #0xffffffff            	// #4294967295
   10050:	940027fc 	bl	1a040 <lsx_writew>
   10054:	b9405e60 	ldr	w0, [x19, #92]
   10058:	340004a0 	cbz	w0, 100ec <aiffwriteheader+0x358>
   1005c:	d503201f 	nop
   10060:	a9405319 	ldp	x25, x20, [x24]
   10064:	110006f7 	add	w23, w23, #0x1
   10068:	2a1703e1 	mov	w1, w23
   1006c:	aa1303e0 	mov	x0, x19
   10070:	91006318 	add	x24, x24, #0x18
   10074:	8b140334 	add	x20, x25, x20
   10078:	eb16029f 	cmp	x20, x22
   1007c:	9a969294 	csel	x20, x20, x22, ls  // ls = plast
   10080:	940027f0 	bl	1a040 <lsx_writew>
   10084:	eb16033f 	cmp	x25, x22
   10088:	aa1303e0 	mov	x0, x19
   1008c:	9a969321 	csel	x1, x25, x22, ls  // ls = plast
   10090:	9400281c 	bl	1a100 <lsx_writedw>
   10094:	52800001 	mov	w1, #0x0                   	// #0
   10098:	aa1303e0 	mov	x0, x19
   1009c:	97fffa25 	bl	e930 <lsx_writeb@plt>
   100a0:	52800001 	mov	w1, #0x0                   	// #0
   100a4:	aa1303e0 	mov	x0, x19
   100a8:	97fffa22 	bl	e930 <lsx_writeb@plt>
   100ac:	2a1a03e1 	mov	w1, w26
   100b0:	aa1303e0 	mov	x0, x19
   100b4:	940027e3 	bl	1a040 <lsx_writew>
   100b8:	11000b5a 	add	w26, w26, #0x2
   100bc:	2a1403e1 	mov	w1, w20
   100c0:	aa1303e0 	mov	x0, x19
   100c4:	9400280f 	bl	1a100 <lsx_writedw>
   100c8:	52800001 	mov	w1, #0x0                   	// #0
   100cc:	aa1303e0 	mov	x0, x19
   100d0:	97fffa18 	bl	e930 <lsx_writeb@plt>
   100d4:	aa1303e0 	mov	x0, x19
   100d8:	52800001 	mov	w1, #0x0                   	// #0
   100dc:	97fffa15 	bl	e930 <lsx_writeb@plt>
   100e0:	b9405e60 	ldr	w0, [x19, #92]
   100e4:	6b0002ff 	cmp	w23, w0
   100e8:	54fffbc3 	b.cc	10060 <aiffwriteheader+0x2cc>  // b.lo, b.ul, b.last
   100ec:	aa1303e0 	mov	x0, x19
   100f0:	f0000261 	adrp	x1, 5f000 <__trunctfdf2+0x140>
   100f4:	911a0021 	add	x1, x1, #0x680
   100f8:	97fffbba 	bl	efe0 <lsx_writes@plt>
   100fc:	52800281 	mov	w1, #0x14                  	// #20
   10100:	aa1303e0 	mov	x0, x19
   10104:	940027ff 	bl	1a100 <lsx_writedw>
   10108:	39416261 	ldrb	w1, [x19, #88]
   1010c:	aa1303e0 	mov	x0, x19
   10110:	97fffa08 	bl	e930 <lsx_writeb@plt>
   10114:	52800001 	mov	w1, #0x0                   	// #0
   10118:	aa1303e0 	mov	x0, x19
   1011c:	97fffa05 	bl	e930 <lsx_writeb@plt>
   10120:	39416661 	ldrb	w1, [x19, #89]
   10124:	aa1303e0 	mov	x0, x19
   10128:	97fffa02 	bl	e930 <lsx_writeb@plt>
   1012c:	39416a61 	ldrb	w1, [x19, #90]
   10130:	aa1303e0 	mov	x0, x19
   10134:	97fff9ff 	bl	e930 <lsx_writeb@plt>
   10138:	52800021 	mov	w1, #0x1                   	// #1
   1013c:	aa1303e0 	mov	x0, x19
   10140:	97fff9fc 	bl	e930 <lsx_writeb@plt>
   10144:	52800fe1 	mov	w1, #0x7f                  	// #127
   10148:	aa1303e0 	mov	x0, x19
   1014c:	97fff9f9 	bl	e930 <lsx_writeb@plt>
   10150:	52800001 	mov	w1, #0x0                   	// #0
   10154:	aa1303e0 	mov	x0, x19
   10158:	940027ba 	bl	1a040 <lsx_writew>
   1015c:	3941d261 	ldrb	w1, [x19, #116]
   10160:	aa1303e0 	mov	x0, x19
   10164:	940027b7 	bl	1a040 <lsx_writew>
   10168:	52800021 	mov	w1, #0x1                   	// #1
   1016c:	aa1303e0 	mov	x0, x19
   10170:	940027b4 	bl	1a040 <lsx_writew>
   10174:	aa1303e0 	mov	x0, x19
   10178:	52800061 	mov	w1, #0x3                   	// #3
   1017c:	940027b1 	bl	1a040 <lsx_writew>
   10180:	b9405e74 	ldr	w20, [x19, #92]
   10184:	71000a9f 	cmp	w20, #0x2
   10188:	54000400 	b.eq	10208 <aiffwriteheader+0x474>  // b.none
   1018c:	aa1303e0 	mov	x0, x19
   10190:	52800001 	mov	w1, #0x0                   	// #0
   10194:	940027ab 	bl	1a040 <lsx_writew>
   10198:	aa1303e0 	mov	x0, x19
   1019c:	52800001 	mov	w1, #0x0                   	// #0
   101a0:	940027a8 	bl	1a040 <lsx_writew>
   101a4:	aa1303e0 	mov	x0, x19
   101a8:	52800001 	mov	w1, #0x0                   	// #0
   101ac:	940027a5 	bl	1a040 <lsx_writew>
   101b0:	17ffff73 	b	ff7c <aiffwriteheader+0x1e8>
   101b4:	97fffab7 	bl	ec90 <sox_get_globals@plt>
   101b8:	aa0003e2 	mov	x2, x0
   101bc:	f0000261 	adrp	x1, 5f000 <__trunctfdf2+0x140>
   101c0:	91168021 	add	x1, x1, #0x5a0
   101c4:	f0000260 	adrp	x0, 5f000 <__trunctfdf2+0x140>
   101c8:	9118a000 	add	x0, x0, #0x628
   101cc:	f9002041 	str	x1, [x2, #64]
   101d0:	97fffa9c 	bl	ec40 <lsx_warn_impl@plt>
   101d4:	12800001 	mov	w1, #0xffffffff            	// #-1
   101d8:	17ffff29 	b	fe7c <aiffwriteheader+0xe8>
   101dc:	52800040 	mov	w0, #0x2                   	// #2
   101e0:	52800441 	mov	w1, #0x22                  	// #34
   101e4:	b9005e60 	str	w0, [x19, #92]
   101e8:	17ffff92 	b	10030 <aiffwriteheader+0x29c>
   101ec:	d2800000 	mov	x0, #0x0                   	// #0
   101f0:	97fff838 	bl	e2d0 <time@plt>
   101f4:	0b000294 	add	w20, w20, w0
   101f8:	17ffff38 	b	fed8 <aiffwriteheader+0x144>
   101fc:	5280031a 	mov	w26, #0x18                  	// #24
   10200:	a90363f7 	stp	x23, x24, [sp, #48]
   10204:	17ffff07 	b	fe20 <aiffwriteheader+0x8c>
   10208:	39423261 	ldrb	w1, [x19, #140]
   1020c:	aa1303e0 	mov	x0, x19
   10210:	9400278c 	bl	1a040 <lsx_writew>
   10214:	2a1403e1 	mov	w1, w20
   10218:	aa1303e0 	mov	x0, x19
   1021c:	94002789 	bl	1a040 <lsx_writew>
   10220:	aa1303e0 	mov	x0, x19
   10224:	52800081 	mov	w1, #0x4                   	// #4
   10228:	94002786 	bl	1a040 <lsx_writew>
   1022c:	17ffff54 	b	ff7c <aiffwriteheader+0x1e8>
   10230:	aa1303e0 	mov	x0, x19
   10234:	f0000262 	adrp	x2, 5f000 <__trunctfdf2+0x140>
   10238:	5280fa21 	mov	w1, #0x7d1                 	// #2001
   1023c:	9117a042 	add	x2, x2, #0x5e8
   10240:	97fffa6c 	bl	ebf0 <lsx_fail_errno@plt>
   10244:	12800000 	mov	w0, #0xffffffff            	// #-1
   10248:	17ffff61 	b	ffcc <aiffwriteheader+0x238>
   1024c:	d503201f 	nop

0000000000010250 <aifcwriteheader>:
   10250:	a9ba7bfd 	stp	x29, x30, [sp, #-96]!
   10254:	d2800022 	mov	x2, #0x1                   	// #1
   10258:	f2c00102 	movk	x2, #0x8, lsl #32
   1025c:	910003fd 	mov	x29, sp
   10260:	a90153f3 	stp	x19, x20, [sp, #16]
   10264:	aa0103f4 	mov	x20, x1
   10268:	aa0003f3 	mov	x19, x0
   1026c:	f9401401 	ldr	x1, [x0, #40]
   10270:	a9025bf5 	stp	x21, x22, [sp, #32]
   10274:	a90363f7 	stp	x23, x24, [sp, #48]
   10278:	a9046bf9 	stp	x25, x26, [sp, #64]
   1027c:	f9002bfb 	str	x27, [sp, #80]
   10280:	eb02003f 	cmp	x1, x2
   10284:	54001020 	b.eq	10488 <aifcwriteheader+0x238>  // b.none
   10288:	d2800022 	mov	x2, #0x1                   	// #1
   1028c:	f2c00202 	movk	x2, #0x10, lsl #32
   10290:	eb02003f 	cmp	x1, x2
   10294:	54000340 	b.eq	102fc <aifcwriteheader+0xac>  // b.none
   10298:	d2800022 	mov	x2, #0x1                   	// #1
   1029c:	f2c00302 	movk	x2, #0x18, lsl #32
   102a0:	eb02003f 	cmp	x1, x2
   102a4:	54001540 	b.eq	1054c <aifcwriteheader+0x2fc>  // b.none
   102a8:	d2800022 	mov	x2, #0x1                   	// #1
   102ac:	927ef823 	and	x3, x1, #0xfffffffffffffffd
   102b0:	f2c00402 	movk	x2, #0x20, lsl #32
   102b4:	eb02007f 	cmp	x3, x2
   102b8:	54001221 	b.ne	104fc <aifcwriteheader+0x2ac>  // b.any
   102bc:	b9402815 	ldr	w21, [x0, #40]
   102c0:	710006bf 	cmp	w21, #0x1
   102c4:	54001640 	b.eq	1058c <aifcwriteheader+0x33c>  // b.none
   102c8:	5280041a 	mov	w26, #0x20                  	// #32
   102cc:	71000ebf 	cmp	w21, #0x3
   102d0:	54000221 	b.ne	10314 <aifcwriteheader+0xc4>  // b.any
   102d4:	f0000278 	adrp	x24, 5f000 <__trunctfdf2+0x140>
   102d8:	f0000279 	adrp	x25, 5f000 <__trunctfdf2+0x140>
   102dc:	911b2318 	add	x24, x24, #0x6c8
   102e0:	911b8339 	add	x25, x25, #0x6e0
   102e4:	5280041a 	mov	w26, #0x20                  	// #32
   102e8:	d2800a9b 	mov	x27, #0x54                  	// #84
   102ec:	52800597 	mov	w23, #0x2c                  	// #44
   102f0:	52800015 	mov	w21, #0x0                   	// #0
   102f4:	528002b6 	mov	w22, #0x15                  	// #21
   102f8:	14000010 	b	10338 <aifcwriteheader+0xe8>
   102fc:	b9402815 	ldr	w21, [x0, #40]
   10300:	710006bf 	cmp	w21, #0x1
   10304:	54001120 	b.eq	10528 <aifcwriteheader+0x2d8>  // b.none
   10308:	5280021a 	mov	w26, #0x10                  	// #16
   1030c:	71000ebf 	cmp	w21, #0x3
   10310:	54000c80 	b.eq	104a0 <aifcwriteheader+0x250>  // b.none
   10314:	d2800000 	mov	x0, #0x0                   	// #0
   10318:	97fffbb6 	bl	f1f0 <strlen@plt>
   1031c:	11005c17 	add	w23, w0, #0x17
   10320:	aa0003f6 	mov	x22, x0
   10324:	120002f5 	and	w21, w23, #0x1
   10328:	d2800018 	mov	x24, #0x0                   	// #0
   1032c:	0b1502f7 	add	w23, w23, w21
   10330:	d2800019 	mov	x25, #0x0                   	// #0
   10334:	1100a2fb 	add	w27, w23, #0x28
   10338:	aa1303e0 	mov	x0, x19
   1033c:	f0000261 	adrp	x1, 5f000 <__trunctfdf2+0x140>
   10340:	91188021 	add	x1, x1, #0x620
   10344:	97fffb27 	bl	efe0 <lsx_writes@plt>
   10348:	b9401260 	ldr	w0, [x19, #16]
   1034c:	b2407fe2 	mov	x2, #0xffffffff            	// #4294967295
   10350:	b9402e61 	ldr	w1, [x19, #44]
   10354:	9b147c00 	mul	x0, x0, x20
   10358:	53037c21 	lsr	w1, w1, #3
   1035c:	9b006c21 	madd	x1, x1, x0, x27
   10360:	eb02003f 	cmp	x1, x2
   10364:	54000b88 	b.hi	104d4 <aifcwriteheader+0x284>  // b.pmore
   10368:	aa1303e0 	mov	x0, x19
   1036c:	94002765 	bl	1a100 <lsx_writedw>
   10370:	aa1303e0 	mov	x0, x19
   10374:	f0000261 	adrp	x1, 5f000 <__trunctfdf2+0x140>
   10378:	911d4021 	add	x1, x1, #0x750
   1037c:	97fffb19 	bl	efe0 <lsx_writes@plt>
   10380:	aa1303e0 	mov	x0, x19
   10384:	f0000261 	adrp	x1, 5f000 <__trunctfdf2+0x140>
   10388:	911d6021 	add	x1, x1, #0x758
   1038c:	97fffb15 	bl	efe0 <lsx_writes@plt>
   10390:	52800081 	mov	w1, #0x4                   	// #4
   10394:	aa1303e0 	mov	x0, x19
   10398:	9400275a 	bl	1a100 <lsx_writedw>
   1039c:	528a2801 	mov	w1, #0x5140                	// #20800
   103a0:	aa1303e0 	mov	x0, x19
   103a4:	72b45001 	movk	w1, #0xa280, lsl #16
   103a8:	94002756 	bl	1a100 <lsx_writedw>
   103ac:	aa1303e0 	mov	x0, x19
   103b0:	f0000261 	adrp	x1, 5f000 <__trunctfdf2+0x140>
   103b4:	9119c021 	add	x1, x1, #0x670
   103b8:	97fffb0a 	bl	efe0 <lsx_writes@plt>
   103bc:	2a1703e1 	mov	w1, w23
   103c0:	aa1303e0 	mov	x0, x19
   103c4:	9400274f 	bl	1a100 <lsx_writedw>
   103c8:	b9401261 	ldr	w1, [x19, #16]
   103cc:	aa1303e0 	mov	x0, x19
   103d0:	9400271c 	bl	1a040 <lsx_writew>
   103d4:	2a1403e1 	mov	w1, w20
   103d8:	aa1303e0 	mov	x0, x19
   103dc:	94002749 	bl	1a100 <lsx_writedw>
   103e0:	2a1a03e1 	mov	w1, w26
   103e4:	aa1303e0 	mov	x0, x19
   103e8:	94002716 	bl	1a040 <lsx_writew>
   103ec:	fd400660 	ldr	d0, [x19, #8]
   103f0:	aa1303e0 	mov	x0, x19
   103f4:	97fffdbb 	bl	fae0 <write_ieee_extended>
   103f8:	aa1903e1 	mov	x1, x25
   103fc:	aa1303e0 	mov	x0, x19
   10400:	97fffaf8 	bl	efe0 <lsx_writes@plt>
   10404:	2a1603e1 	mov	w1, w22
   10408:	aa1303e0 	mov	x0, x19
   1040c:	97fff949 	bl	e930 <lsx_writeb@plt>
   10410:	aa1803e1 	mov	x1, x24
   10414:	aa1303e0 	mov	x0, x19
   10418:	97fffaf2 	bl	efe0 <lsx_writes@plt>
   1041c:	35000555 	cbnz	w21, 104c4 <aifcwriteheader+0x274>
   10420:	aa1303e0 	mov	x0, x19
   10424:	f0000261 	adrp	x1, 5f000 <__trunctfdf2+0x140>
   10428:	911a2021 	add	x1, x1, #0x688
   1042c:	97fffaed 	bl	efe0 <lsx_writes@plt>
   10430:	b9401261 	ldr	w1, [x19, #16]
   10434:	aa1303e0 	mov	x0, x19
   10438:	b9402e62 	ldr	w2, [x19, #44]
   1043c:	1b147c21 	mul	w1, w1, w20
   10440:	53037c42 	lsr	w2, w2, #3
   10444:	1b027c21 	mul	w1, w1, w2
   10448:	11002021 	add	w1, w1, #0x8
   1044c:	9400272d 	bl	1a100 <lsx_writedw>
   10450:	52800001 	mov	w1, #0x0                   	// #0
   10454:	aa1303e0 	mov	x0, x19
   10458:	9400272a 	bl	1a100 <lsx_writedw>
   1045c:	aa1303e0 	mov	x0, x19
   10460:	52800001 	mov	w1, #0x0                   	// #0
   10464:	94002727 	bl	1a100 <lsx_writedw>
   10468:	52800000 	mov	w0, #0x0                   	// #0
   1046c:	a94153f3 	ldp	x19, x20, [sp, #16]
   10470:	a9425bf5 	ldp	x21, x22, [sp, #32]
   10474:	a94363f7 	ldp	x23, x24, [sp, #48]
   10478:	a9446bf9 	ldp	x25, x26, [sp, #64]
   1047c:	f9402bfb 	ldr	x27, [sp, #80]
   10480:	a8c67bfd 	ldp	x29, x30, [sp], #96
   10484:	d65f03c0 	ret
   10488:	b9402815 	ldr	w21, [x0, #40]
   1048c:	710006bf 	cmp	w21, #0x1
   10490:	540006c0 	b.eq	10568 <aifcwriteheader+0x318>  // b.none
   10494:	5280011a 	mov	w26, #0x8                   	// #8
   10498:	71000ebf 	cmp	w21, #0x3
   1049c:	54fff3c1 	b.ne	10314 <aifcwriteheader+0xc4>  // b.any
   104a0:	f0000278 	adrp	x24, 5f000 <__trunctfdf2+0x140>
   104a4:	f0000279 	adrp	x25, 5f000 <__trunctfdf2+0x140>
   104a8:	911aa318 	add	x24, x24, #0x6a8
   104ac:	911b0339 	add	x25, x25, #0x6c0
   104b0:	d2800a9b 	mov	x27, #0x54                  	// #84
   104b4:	52800597 	mov	w23, #0x2c                  	// #44
   104b8:	52800015 	mov	w21, #0x0                   	// #0
   104bc:	528002b6 	mov	w22, #0x15                  	// #21
   104c0:	17ffff9e 	b	10338 <aifcwriteheader+0xe8>
   104c4:	aa1303e0 	mov	x0, x19
   104c8:	52800001 	mov	w1, #0x0                   	// #0
   104cc:	97fff919 	bl	e930 <lsx_writeb@plt>
   104d0:	17ffffd4 	b	10420 <aifcwriteheader+0x1d0>
   104d4:	97fff9ef 	bl	ec90 <sox_get_globals@plt>
   104d8:	aa0003e2 	mov	x2, x0
   104dc:	f0000261 	adrp	x1, 5f000 <__trunctfdf2+0x140>
   104e0:	91168021 	add	x1, x1, #0x5a0
   104e4:	f0000260 	adrp	x0, 5f000 <__trunctfdf2+0x140>
   104e8:	911c8000 	add	x0, x0, #0x720
   104ec:	f9002041 	str	x1, [x2, #64]
   104f0:	97fff9d4 	bl	ec40 <lsx_warn_impl@plt>
   104f4:	12800001 	mov	w1, #0xffffffff            	// #-1
   104f8:	17ffff9c 	b	10368 <aifcwriteheader+0x118>
   104fc:	d2800062 	mov	x2, #0x3                   	// #3
   10500:	f2c00802 	movk	x2, #0x40, lsl #32
   10504:	eb02003f 	cmp	x1, x2
   10508:	54000781 	b.ne	105f8 <aifcwriteheader+0x3a8>  // b.any
   1050c:	b9402815 	ldr	w21, [x0, #40]
   10510:	710006bf 	cmp	w21, #0x1
   10514:	54000600 	b.eq	105d4 <aifcwriteheader+0x384>  // b.none
   10518:	5280081a 	mov	w26, #0x40                  	// #64
   1051c:	71000ebf 	cmp	w21, #0x3
   10520:	54fffc00 	b.eq	104a0 <aifcwriteheader+0x250>  // b.none
   10524:	17ffff7c 	b	10314 <aifcwriteheader+0xc4>
   10528:	f0000278 	adrp	x24, 5f000 <__trunctfdf2+0x140>
   1052c:	f0000279 	adrp	x25, 5f000 <__trunctfdf2+0x140>
   10530:	911a4318 	add	x24, x24, #0x690
   10534:	911a8339 	add	x25, x25, #0x6a0
   10538:	5280021a 	mov	w26, #0x10                  	// #16
   1053c:	d28009db 	mov	x27, #0x4e                  	// #78
   10540:	528004d7 	mov	w23, #0x26                  	// #38
   10544:	528001d6 	mov	w22, #0xe                   	// #14
   10548:	17ffff7c 	b	10338 <aifcwriteheader+0xe8>
   1054c:	b9402815 	ldr	w21, [x0, #40]
   10550:	710006bf 	cmp	w21, #0x1
   10554:	540002e0 	b.eq	105b0 <aifcwriteheader+0x360>  // b.none
   10558:	5280031a 	mov	w26, #0x18                  	// #24
   1055c:	71000ebf 	cmp	w21, #0x3
   10560:	54fffa00 	b.eq	104a0 <aifcwriteheader+0x250>  // b.none
   10564:	17ffff6c 	b	10314 <aifcwriteheader+0xc4>
   10568:	f0000278 	adrp	x24, 5f000 <__trunctfdf2+0x140>
   1056c:	f0000279 	adrp	x25, 5f000 <__trunctfdf2+0x140>
   10570:	911a4318 	add	x24, x24, #0x690
   10574:	911a8339 	add	x25, x25, #0x6a0
   10578:	5280011a 	mov	w26, #0x8                   	// #8
   1057c:	d28009db 	mov	x27, #0x4e                  	// #78
   10580:	528004d7 	mov	w23, #0x26                  	// #38
   10584:	528001d6 	mov	w22, #0xe                   	// #14
   10588:	17ffff6c 	b	10338 <aifcwriteheader+0xe8>
   1058c:	f0000278 	adrp	x24, 5f000 <__trunctfdf2+0x140>
   10590:	f0000279 	adrp	x25, 5f000 <__trunctfdf2+0x140>
   10594:	911a4318 	add	x24, x24, #0x690
   10598:	911a8339 	add	x25, x25, #0x6a0
   1059c:	5280041a 	mov	w26, #0x20                  	// #32
   105a0:	d28009db 	mov	x27, #0x4e                  	// #78
   105a4:	528004d7 	mov	w23, #0x26                  	// #38
   105a8:	528001d6 	mov	w22, #0xe                   	// #14
   105ac:	17ffff63 	b	10338 <aifcwriteheader+0xe8>
   105b0:	f0000278 	adrp	x24, 5f000 <__trunctfdf2+0x140>
   105b4:	f0000279 	adrp	x25, 5f000 <__trunctfdf2+0x140>
   105b8:	911a4318 	add	x24, x24, #0x690
   105bc:	911a8339 	add	x25, x25, #0x6a0
   105c0:	5280031a 	mov	w26, #0x18                  	// #24
   105c4:	d28009db 	mov	x27, #0x4e                  	// #78
   105c8:	528004d7 	mov	w23, #0x26                  	// #38
   105cc:	528001d6 	mov	w22, #0xe                   	// #14
   105d0:	17ffff5a 	b	10338 <aifcwriteheader+0xe8>
   105d4:	f0000278 	adrp	x24, 5f000 <__trunctfdf2+0x140>
   105d8:	f0000279 	adrp	x25, 5f000 <__trunctfdf2+0x140>
   105dc:	911a4318 	add	x24, x24, #0x690
   105e0:	911a8339 	add	x25, x25, #0x6a0
   105e4:	5280081a 	mov	w26, #0x40                  	// #64
   105e8:	d28009db 	mov	x27, #0x4e                  	// #78
   105ec:	528004d7 	mov	w23, #0x26                  	// #38
   105f0:	528001d6 	mov	w22, #0xe                   	// #14
   105f4:	17ffff51 	b	10338 <aifcwriteheader+0xe8>
   105f8:	f0000262 	adrp	x2, 5f000 <__trunctfdf2+0x140>
   105fc:	5280fa21 	mov	w1, #0x7d1                 	// #2001
   10600:	911ba042 	add	x2, x2, #0x6e8
   10604:	97fff97b 	bl	ebf0 <lsx_fail_errno@plt>
   10608:	12800000 	mov	w0, #0xffffffff            	// #-1
   1060c:	17ffff98 	b	1046c <aifcwriteheader+0x21c>

0000000000010610 <lsx_aiffstartread>:
   10610:	d11cc3ff 	sub	sp, sp, #0x730
   10614:	f0000463 	adrp	x3, 9f000 <handler.1+0x60>
   10618:	d2800082 	mov	x2, #0x4                   	// #4
   1061c:	a9007bfd 	stp	x29, x30, [sp]
   10620:	910003fd 	mov	x29, sp
   10624:	f947ac63 	ldr	x3, [x3, #3928]
   10628:	a90153f3 	stp	x19, x20, [sp, #16]
   1062c:	aa0003f3 	mov	x19, x0
   10630:	a9025bf5 	stp	x21, x22, [sp, #32]
   10634:	911c43f5 	add	x21, sp, #0x710
   10638:	aa1503e1 	mov	x1, x21
   1063c:	f9400064 	ldr	x4, [x3]
   10640:	f90397e4 	str	x4, [sp, #1832]
   10644:	d2800004 	mov	x4, #0x0                   	// #0
   10648:	790173ff 	strh	wzr, [sp, #184]
   1064c:	790177ff 	strh	wzr, [sp, #186]
   10650:	79017fff 	strh	wzr, [sp, #190]
   10654:	790183ff 	strh	wzr, [sp, #192]
   10658:	790187ff 	strh	wzr, [sp, #194]
   1065c:	79018bff 	strh	wzr, [sp, #196]
   10660:	79018fff 	strh	wzr, [sp, #198]
   10664:	291bffff 	stp	wzr, wzr, [sp, #220]
   10668:	9400220a 	bl	18e90 <lsx_reads>
   1066c:	3100041f 	cmn	w0, #0x1
   10670:	540000c0 	b.eq	10688 <lsx_aiffstartread+0x78>  // b.none
   10674:	b94713e1 	ldr	w1, [sp, #1808]
   10678:	5289e8c0 	mov	w0, #0x4f46                	// #20294
   1067c:	72a9aa40 	movk	w0, #0x4d52, lsl #16
   10680:	6b00003f 	cmp	w1, w0
   10684:	54000280 	b.eq	106d4 <lsx_aiffstartread+0xc4>  // b.none
   10688:	f0000262 	adrp	x2, 5f000 <__trunctfdf2+0x140>
   1068c:	aa1303e0 	mov	x0, x19
   10690:	911d8042 	add	x2, x2, #0x760
   10694:	5280fa01 	mov	w1, #0x7d0                 	// #2000
   10698:	12800014 	mov	w20, #0xffffffff            	// #-1
   1069c:	97fff955 	bl	ebf0 <lsx_fail_errno@plt>
   106a0:	f0000460 	adrp	x0, 9f000 <handler.1+0x60>
   106a4:	f947ac00 	ldr	x0, [x0, #3928]
   106a8:	f94397e2 	ldr	x2, [sp, #1832]
   106ac:	f9400001 	ldr	x1, [x0]
   106b0:	eb010042 	subs	x2, x2, x1
   106b4:	d2800001 	mov	x1, #0x0                   	// #0
   106b8:	54008d01 	b.ne	11858 <lsx_aiffstartread+0x1248>  // b.any
   106bc:	2a1403e0 	mov	w0, w20
   106c0:	a9407bfd 	ldp	x29, x30, [sp]
   106c4:	a94153f3 	ldp	x19, x20, [sp, #16]
   106c8:	a9425bf5 	ldp	x21, x22, [sp, #32]
   106cc:	911cc3ff 	add	sp, sp, #0x730
   106d0:	d65f03c0 	ret
   106d4:	910343e1 	add	x1, sp, #0xd0
   106d8:	aa1303e0 	mov	x0, x19
   106dc:	a90363f7 	stp	x23, x24, [sp, #48]
   106e0:	a9046bf9 	stp	x25, x26, [sp, #64]
   106e4:	a90573fb 	stp	x27, x28, [sp, #80]
   106e8:	6d0627e8 	stp	d8, d9, [sp, #96]
   106ec:	940023a9 	bl	19590 <lsx_readdw>
   106f0:	aa1503e1 	mov	x1, x21
   106f4:	aa1303e0 	mov	x0, x19
   106f8:	d2800082 	mov	x2, #0x4                   	// #4
   106fc:	940021e5 	bl	18e90 <lsx_reads>
   10700:	3100041f 	cmn	w0, #0x1
   10704:	54000140 	b.eq	1072c <lsx_aiffstartread+0x11c>  // b.none
   10708:	b94713e0 	ldr	w0, [sp, #1808]
   1070c:	52892821 	mov	w1, #0x4941                	// #18753
   10710:	72a8c8c1 	movk	w1, #0x4646, lsl #16
   10714:	6b01001f 	cmp	w0, w1
   10718:	54000200 	b.eq	10758 <lsx_aiffstartread+0x148>  // b.none
   1071c:	52892821 	mov	w1, #0x4941                	// #18753
   10720:	72a868c1 	movk	w1, #0x4346, lsl #16
   10724:	6b01001f 	cmp	w0, w1
   10728:	54000180 	b.eq	10758 <lsx_aiffstartread+0x148>  // b.none
   1072c:	f0000262 	adrp	x2, 5f000 <__trunctfdf2+0x140>
   10730:	aa1303e0 	mov	x0, x19
   10734:	911e6042 	add	x2, x2, #0x798
   10738:	5280fa01 	mov	w1, #0x7d0                 	// #2000
   1073c:	12800014 	mov	w20, #0xffffffff            	// #-1
   10740:	97fff92c 	bl	ebf0 <lsx_fail_errno@plt>
   10744:	a94363f7 	ldp	x23, x24, [sp, #48]
   10748:	a9446bf9 	ldp	x25, x26, [sp, #64]
   1074c:	a94573fb 	ldp	x27, x28, [sp, #80]
   10750:	6d4627e8 	ldp	d8, d9, [sp, #96]
   10754:	17ffffd3 	b	106a0 <lsx_aiffstartread+0x90>
   10758:	2f00e408 	movi	d8, #0x0
   1075c:	5289e87a 	mov	w26, #0x4f43                	// #20291
   10760:	52800020 	mov	w0, #0x1                   	// #1
   10764:	72a9a9ba 	movk	w26, #0x4d4d, lsl #16
   10768:	b90087ff 	str	wzr, [sp, #132]
   1076c:	a908ffff 	stp	xzr, xzr, [sp, #136]
   10770:	291403ff 	stp	wzr, w0, [sp, #160]
   10774:	29157fff 	stp	wzr, wzr, [sp, #168]
   10778:	aa1503e1 	mov	x1, x21
   1077c:	aa1303e0 	mov	x0, x19
   10780:	d2800082 	mov	x2, #0x4                   	// #4
   10784:	940021c3 	bl	18e90 <lsx_reads>
   10788:	2a0003f4 	mov	w20, w0
   1078c:	3100041f 	cmn	w0, #0x1
   10790:	54005420 	b.eq	11214 <lsx_aiffstartread+0xc04>  // b.none
   10794:	b94002a0 	ldr	w0, [x21]
   10798:	6b1a001f 	cmp	w0, w26
   1079c:	54000a00 	b.eq	108dc <lsx_aiffstartread+0x2cc>  // b.none
   107a0:	528a6a61 	mov	w1, #0x5353                	// #21331
   107a4:	72a889c1 	movk	w1, #0x444e, lsl #16
   107a8:	6b01001f 	cmp	w0, w1
   107ac:	54001aa0 	b.eq	10b00 <lsx_aiffstartread+0x4f0>  // b.none
   107b0:	528829a1 	mov	w1, #0x414d                	// #16717
   107b4:	72a96a41 	movk	w1, #0x4b52, lsl #16
   107b8:	6b01001f 	cmp	w0, w1
   107bc:	54002280 	b.eq	10c0c <lsx_aiffstartread+0x5fc>  // b.none
   107c0:	5289c921 	mov	w1, #0x4e49                	// #20041
   107c4:	72aa8a61 	movk	w1, #0x5453, lsl #16
   107c8:	6b01001f 	cmp	w0, w1
   107cc:	54002340 	b.eq	10c34 <lsx_aiffstartread+0x624>  // b.none
   107d0:	528a0821 	mov	w1, #0x5041                	// #20545
   107d4:	72a98a01 	movk	w1, #0x4c50, lsl #16
   107d8:	6b01001f 	cmp	w0, w1
   107dc:	54002920 	b.eq	10d00 <lsx_aiffstartread+0x6f0>  // b.none
   107e0:	52898821 	mov	w1, #0x4c41                	// #19521
   107e4:	72a90861 	movk	w1, #0x4843, lsl #16
   107e8:	6b01001f 	cmp	w0, w1
   107ec:	54002ba0 	b.eq	10d60 <lsx_aiffstartread+0x750>  // b.none
   107f0:	5289c821 	mov	w1, #0x4e41                	// #20033
   107f4:	72a9e9c1 	movk	w1, #0x4f4e, lsl #16
   107f8:	6b01001f 	cmp	w0, w1
   107fc:	54002de0 	b.eq	10db8 <lsx_aiffstartread+0x7a8>  // b.none
   10800:	5289e861 	mov	w1, #0x4f43                	// #20291
   10804:	72aa89a1 	movk	w1, #0x544d, lsl #16
   10808:	6b01001f 	cmp	w0, w1
   1080c:	54002f20 	b.eq	10df0 <lsx_aiffstartread+0x7e0>  // b.none
   10810:	528aa821 	mov	w1, #0x5541                	// #21825
   10814:	72a90a81 	movk	w1, #0x4854, lsl #16
   10818:	6b01001f 	cmp	w0, w1
   1081c:	54004d20 	b.eq	111c0 <lsx_aiffstartread+0xbb0>  // b.none
   10820:	b94002a0 	ldr	w0, [x21]
   10824:	528829c1 	mov	w1, #0x414e                	// #16718
   10828:	72a8a9a1 	movk	w1, #0x454d, lsl #16
   1082c:	6b01001f 	cmp	w0, w1
   10830:	54005120 	b.eq	11254 <lsx_aiffstartread+0xc44>  // b.none
   10834:	528c6501 	mov	w1, #0x6328                	// #25384
   10838:	72a40521 	movk	w1, #0x2029, lsl #16
   1083c:	6b01001f 	cmp	w0, w1
   10840:	54005200 	b.eq	11280 <lsx_aiffstartread+0xc70>  // b.none
   10844:	52888921 	mov	w1, #0x4449                	// #17481
   10848:	72a40661 	movk	w1, #0x2033, lsl #16
   1084c:	6b01001f 	cmp	w0, w1
   10850:	54007100 	b.eq	11670 <lsx_aiffstartread+0x1060>  // b.none
   10854:	aa1303e0 	mov	x0, x19
   10858:	97fff8ca 	bl	eb80 <lsx_eof@plt>
   1085c:	35001060 	cbnz	w0, 10a68 <lsx_aiffstartread+0x458>
   10860:	391c53ff 	strb	wzr, [sp, #1812]
   10864:	97fff90b 	bl	ec90 <sox_get_globals@plt>
   10868:	aa0003e2 	mov	x2, x0
   1086c:	f0000274 	adrp	x20, 5f000 <__trunctfdf2+0x140>
   10870:	91168283 	add	x3, x20, #0x5a0
   10874:	aa1503e1 	mov	x1, x21
   10878:	f0000260 	adrp	x0, 5f000 <__trunctfdf2+0x140>
   1087c:	91266000 	add	x0, x0, #0x998
   10880:	f9002043 	str	x3, [x2, #64]
   10884:	97fff9ab 	bl	ef30 <lsx_debug_impl@plt>
   10888:	910353e1 	add	x1, sp, #0xd4
   1088c:	aa1303e0 	mov	x0, x19
   10890:	94002340 	bl	19590 <lsx_readdw>
   10894:	aa1303e0 	mov	x0, x19
   10898:	97fff8ba 	bl	eb80 <lsx_eof@plt>
   1089c:	35000e60 	cbnz	w0, 10a68 <lsx_aiffstartread+0x458>
   108a0:	b940d7e0 	ldr	w0, [sp, #212]
   108a4:	9102dbf4 	add	x20, sp, #0xb6
   108a8:	11000400 	add	w0, w0, #0x1
   108ac:	121f7800 	and	w0, w0, #0xfffffffe
   108b0:	14000007 	b	108cc <lsx_aiffstartread+0x2bc>
   108b4:	aa1403e1 	mov	x1, x20
   108b8:	aa1303e0 	mov	x0, x19
   108bc:	940022b9 	bl	193a0 <lsx_readb>
   108c0:	3100041f 	cmn	w0, #0x1
   108c4:	54000cc0 	b.eq	10a5c <lsx_aiffstartread+0x44c>  // b.none
   108c8:	b940d7e0 	ldr	w0, [sp, #212]
   108cc:	51000401 	sub	w1, w0, #0x1
   108d0:	b900d7e1 	str	w1, [sp, #212]
   108d4:	35ffff00 	cbnz	w0, 108b4 <lsx_aiffstartread+0x2a4>
   108d8:	14000061 	b	10a5c <lsx_aiffstartread+0x44c>
   108dc:	910353e1 	add	x1, sp, #0xd4
   108e0:	aa1303e0 	mov	x0, x19
   108e4:	9400232b 	bl	19590 <lsx_readdw>
   108e8:	9102e3e1 	add	x1, sp, #0xb8
   108ec:	aa1303e0 	mov	x0, x19
   108f0:	940022ec 	bl	194a0 <lsx_readw>
   108f4:	910363e1 	add	x1, sp, #0xd8
   108f8:	aa1303e0 	mov	x0, x19
   108fc:	94002325 	bl	19590 <lsx_readdw>
   10900:	9102ebe1 	add	x1, sp, #0xba
   10904:	aa1303e0 	mov	x0, x19
   10908:	940022e6 	bl	194a0 <lsx_readw>
   1090c:	911c63e1 	add	x1, sp, #0x718
   10910:	aa1303e0 	mov	x0, x19
   10914:	d2800142 	mov	x2, #0xa                   	// #10
   10918:	97fff83a 	bl	ea00 <lsx_readbuf@plt>
   1091c:	f100281f 	cmp	x0, #0xa
   10920:	54001220 	b.eq	10b64 <lsx_aiffstartread+0x554>  // b.none
   10924:	1e7e1008 	fmov	d8, #-1.000000000000000000e+00
   10928:	aa1303e0 	mov	x0, x19
   1092c:	f0000262 	adrp	x2, 5f000 <__trunctfdf2+0x140>
   10930:	12800001 	mov	w1, #0xffffffff            	// #-1
   10934:	911fe042 	add	x2, x2, #0x7f8
   10938:	97fff8ae 	bl	ebf0 <lsx_fail_errno@plt>
   1093c:	b940d7e0 	ldr	w0, [sp, #212]
   10940:	51004800 	sub	w0, w0, #0x12
   10944:	b900d7e0 	str	w0, [sp, #212]
   10948:	34001580 	cbz	w0, 10bf8 <lsx_aiffstartread+0x5e8>
   1094c:	aa1503e1 	mov	x1, x21
   10950:	d2800082 	mov	x2, #0x4                   	// #4
   10954:	aa1303e0 	mov	x0, x19
   10958:	9400214e 	bl	18e90 <lsx_reads>
   1095c:	b940d7e0 	ldr	w0, [sp, #212]
   10960:	528dee63 	mov	w3, #0x6f73                	// #28531
   10964:	b94002a1 	ldr	w1, [x21]
   10968:	72ae8ee3 	movk	w3, #0x7477, lsl #16
   1096c:	51001002 	sub	w2, w0, #0x4
   10970:	b900d7e2 	str	w2, [sp, #212]
   10974:	6b03003f 	cmp	w1, w3
   10978:	540021a0 	b.eq	10dac <lsx_aiffstartread+0x79c>  // b.none
   1097c:	528d8cc3 	mov	w3, #0x6c66                	// #27750
   10980:	72a64663 	movk	w3, #0x3233, lsl #16
   10984:	6b03003f 	cmp	w1, w3
   10988:	54000440 	b.eq	10a10 <lsx_aiffstartread+0x400>  // b.none
   1098c:	528988c3 	mov	w3, #0x4c46                	// #19526
   10990:	72a64663 	movk	w3, #0x3233, lsl #16
   10994:	6b03003f 	cmp	w1, w3
   10998:	540003c0 	b.eq	10a10 <lsx_aiffstartread+0x400>  // b.none
   1099c:	528d8cc3 	mov	w3, #0x6c66                	// #27750
   109a0:	72a686c3 	movk	w3, #0x3436, lsl #16
   109a4:	6b03003f 	cmp	w1, w3
   109a8:	54003f00 	b.eq	11188 <lsx_aiffstartread+0xb78>  // b.none
   109ac:	528988c3 	mov	w3, #0x4c46                	// #19526
   109b0:	72a686c3 	movk	w3, #0x3436, lsl #16
   109b4:	6b03003f 	cmp	w1, w3
   109b8:	54003e80 	b.eq	11188 <lsx_aiffstartread+0xb78>  // b.none
   109bc:	5289e9c3 	mov	w3, #0x4f4e                	// #20302
   109c0:	72a8a9c3 	movk	w3, #0x454e, lsl #16
   109c4:	6b03003f 	cmp	w1, w3
   109c8:	540002e0 	b.eq	10a24 <lsx_aiffstartread+0x414>  // b.none
   109cc:	528eee83 	mov	w3, #0x7774                	// #30580
   109d0:	72ae6de3 	movk	w3, #0x736f, lsl #16
   109d4:	6b03003f 	cmp	w1, w3
   109d8:	54000260 	b.eq	10a24 <lsx_aiffstartread+0x414>  // b.none
   109dc:	aa1503e3 	mov	x3, x21
   109e0:	aa1303e0 	mov	x0, x19
   109e4:	f0000262 	adrp	x2, 5f000 <__trunctfdf2+0x140>
   109e8:	5280fa01 	mov	w1, #0x7d0                 	// #2000
   109ec:	91234042 	add	x2, x2, #0x8d0
   109f0:	391c53ff 	strb	wzr, [sp, #1812]
   109f4:	97fff87f 	bl	ebf0 <lsx_fail_errno@plt>
   109f8:	12800014 	mov	w20, #0xffffffff            	// #-1
   109fc:	a94363f7 	ldp	x23, x24, [sp, #48]
   10a00:	a9446bf9 	ldp	x25, x26, [sp, #64]
   10a04:	a94573fb 	ldp	x27, x28, [sp, #80]
   10a08:	6d4627e8 	ldp	d8, d9, [sp, #96]
   10a0c:	17ffff25 	b	106a0 <lsx_aiffstartread+0x90>
   10a10:	794177e3 	ldrh	w3, [sp, #186]
   10a14:	7100807f 	cmp	w3, #0x20
   10a18:	54006da1 	b.ne	117cc <lsx_aiffstartread+0x11bc>  // b.any
   10a1c:	52800061 	mov	w1, #0x3                   	// #3
   10a20:	b900a7e1 	str	w1, [sp, #164]
   10a24:	51001400 	sub	w0, w0, #0x5
   10a28:	b900d7e0 	str	w0, [sp, #212]
   10a2c:	9102dbf4 	add	x20, sp, #0xb6
   10a30:	34000122 	cbz	w2, 10a54 <lsx_aiffstartread+0x444>
   10a34:	d503201f 	nop
   10a38:	aa1403e1 	mov	x1, x20
   10a3c:	aa1303e0 	mov	x0, x19
   10a40:	94002258 	bl	193a0 <lsx_readb>
   10a44:	b940d7e0 	ldr	w0, [sp, #212]
   10a48:	51000401 	sub	w1, w0, #0x1
   10a4c:	b900d7e1 	str	w1, [sp, #212]
   10a50:	35ffff40 	cbnz	w0, 10a38 <lsx_aiffstartread+0x428>
   10a54:	52800020 	mov	w0, #0x1                   	// #1
   10a58:	b90087e0 	str	w0, [sp, #132]
   10a5c:	aa1303e0 	mov	x0, x19
   10a60:	97fff848 	bl	eb80 <lsx_eof@plt>
   10a64:	34ffe8a0 	cbz	w0, 10778 <lsx_aiffstartread+0x168>
   10a68:	b9412260 	ldr	w0, [x19, #288]
   10a6c:	34000100 	cbz	w0, 10a8c <lsx_aiffstartread+0x47c>
   10a70:	f94047e0 	ldr	x0, [sp, #136]
   10a74:	f100001f 	cmp	x0, #0x0
   10a78:	5400704d 	b.le	11880 <lsx_aiffstartread+0x1270>
   10a7c:	f94047e1 	ldr	x1, [sp, #136]
   10a80:	aa1303e0 	mov	x0, x19
   10a84:	52800002 	mov	w2, #0x0                   	// #0
   10a88:	97fff876 	bl	ec60 <lsx_seeki@plt>
   10a8c:	b940e3e0 	ldr	w0, [sp, #224]
   10a90:	35003d00 	cbnz	w0, 11230 <lsx_aiffstartread+0xc20>
   10a94:	b940dff5 	ldr	w21, [sp, #220]
   10a98:	9102dbf6 	add	x22, sp, #0xb6
   10a9c:	2a1503f7 	mov	w23, w21
   10aa0:	14000008 	b	10ac0 <lsx_aiffstartread+0x4b0>
   10aa4:	aa1603e1 	mov	x1, x22
   10aa8:	aa1303e0 	mov	x0, x19
   10aac:	9400223d 	bl	193a0 <lsx_readb>
   10ab0:	2a0003f4 	mov	w20, w0
   10ab4:	3100041f 	cmn	w0, #0x1
   10ab8:	54003960 	b.eq	111e4 <lsx_aiffstartread+0xbd4>  // b.none
   10abc:	b940dff7 	ldr	w23, [sp, #220]
   10ac0:	510006e0 	sub	w0, w23, #0x1
   10ac4:	b900dfe0 	str	w0, [sp, #220]
   10ac8:	35fffef7 	cbnz	w23, 10aa4 <lsx_aiffstartread+0x494>
   10acc:	f9404be0 	ldr	x0, [sp, #144]
   10ad0:	cb354015 	sub	x21, x0, w21, uxtw
   10ad4:	b94087e0 	ldr	w0, [sp, #132]
   10ad8:	34004000 	cbz	w0, 112d8 <lsx_aiffstartread+0xcc8>
   10adc:	794177e3 	ldrh	w3, [sp, #186]
   10ae0:	7100207f 	cmp	w3, #0x8
   10ae4:	54005a09 	b.ls	11624 <lsx_aiffstartread+0x1014>  // b.plast
   10ae8:	7100407f 	cmp	w3, #0x10
   10aec:	54006468 	b.hi	11778 <lsx_aiffstartread+0x1168>  // b.pmore
   10af0:	52800200 	mov	w0, #0x10                  	// #16
   10af4:	d341feb5 	lsr	x21, x21, #1
   10af8:	790177e0 	strh	w0, [sp, #186]
   10afc:	14000203 	b	11308 <lsx_aiffstartread+0xcf8>
   10b00:	910353e1 	add	x1, sp, #0xd4
   10b04:	aa1303e0 	mov	x0, x19
   10b08:	940022a2 	bl	19590 <lsx_readdw>
   10b0c:	910373e1 	add	x1, sp, #0xdc
   10b10:	aa1303e0 	mov	x0, x19
   10b14:	9400229f 	bl	19590 <lsx_readdw>
   10b18:	910383e1 	add	x1, sp, #0xe0
   10b1c:	aa1303e0 	mov	x0, x19
   10b20:	9400229c 	bl	19590 <lsx_readdw>
   10b24:	b940d7e1 	ldr	w1, [sp, #212]
   10b28:	b9412262 	ldr	w2, [x19, #288]
   10b2c:	51001c20 	sub	w0, w1, #0x7
   10b30:	51002021 	sub	w1, w1, #0x8
   10b34:	121f7800 	and	w0, w0, #0xfffffffe
   10b38:	f9004be1 	str	x1, [sp, #144]
   10b3c:	b900d7e0 	str	w0, [sp, #212]
   10b40:	34fffa62 	cbz	w2, 10a8c <lsx_aiffstartread+0x47c>
   10b44:	aa1303e0 	mov	x0, x19
   10b48:	97fff6aa 	bl	e5f0 <lsx_tell@plt>
   10b4c:	b940d7e1 	ldr	w1, [sp, #212]
   10b50:	52800022 	mov	w2, #0x1                   	// #1
   10b54:	f90047e0 	str	x0, [sp, #136]
   10b58:	aa1303e0 	mov	x0, x19
   10b5c:	97fff841 	bl	ec60 <lsx_seeki@plt>
   10b60:	17ffffbf 	b	10a5c <lsx_aiffstartread+0x44c>
   10b64:	911903e0 	add	x0, sp, #0x640
   10b68:	395c63f7 	ldrb	w23, [sp, #1816]
   10b6c:	395c67e2 	ldrb	w2, [sp, #1817]
   10b70:	b84da001 	ldur	w1, [x0, #218]
   10b74:	53181af4 	ubfiz	w20, w23, #8, #7
   10b78:	b84de000 	ldur	w0, [x0, #222]
   10b7c:	2a020294 	orr	w20, w20, w2
   10b80:	5ac00821 	rev	w1, w1
   10b84:	2a140022 	orr	w2, w1, w20
   10b88:	5ac00816 	rev	w22, w0
   10b8c:	35000de2 	cbnz	w2, 10d48 <lsx_aiffstartread+0x738>
   10b90:	2f00e408 	movi	d8, #0x0
   10b94:	34000256 	cbz	w22, 10bdc <lsx_aiffstartread+0x5cc>
   10b98:	52b00018 	mov	w24, #0x80000000            	// #-2147483648
   10b9c:	0b180021 	add	w1, w1, w24
   10ba0:	d2e83c00 	mov	x0, #0x41e0000000000000    	// #4746794007248502784
   10ba4:	9e670009 	fmov	d9, x0
   10ba8:	1e620020 	scvtf	d0, w1
   10bac:	0b1802d6 	add	w22, w22, w24
   10bb0:	128803a0 	mov	w0, #0xffffbfe2            	// #-16414
   10bb4:	0b000280 	add	w0, w20, w0
   10bb8:	1e692800 	fadd	d0, d0, d9
   10bbc:	97fff5f5 	bl	e390 <ldexp@plt>
   10bc0:	1e604008 	fmov	d8, d0
   10bc4:	1e6202c0 	scvtf	d0, w22
   10bc8:	128807a1 	mov	w1, #0xffffbfc2            	// #-16446
   10bcc:	0b010280 	add	w0, w20, w1
   10bd0:	1e692800 	fadd	d0, d0, d9
   10bd4:	97fff5ef 	bl	e390 <ldexp@plt>
   10bd8:	1e602908 	fadd	d8, d8, d0
   10bdc:	b940d7e0 	ldr	w0, [sp, #212]
   10be0:	1e614100 	fneg	d0, d8
   10be4:	f27902ff 	tst	x23, #0x80
   10be8:	51004800 	sub	w0, w0, #0x12
   10bec:	b900d7e0 	str	w0, [sp, #212]
   10bf0:	1e681c08 	fcsel	d8, d0, d8, ne  // ne = any
   10bf4:	35ffeac0 	cbnz	w0, 1094c <lsx_aiffstartread+0x33c>
   10bf8:	12800000 	mov	w0, #0xffffffff            	// #-1
   10bfc:	52800021 	mov	w1, #0x1                   	// #1
   10c00:	b90087e1 	str	w1, [sp, #132]
   10c04:	b900d7e0 	str	w0, [sp, #212]
   10c08:	17ffff95 	b	10a5c <lsx_aiffstartread+0x44c>
   10c0c:	910353e1 	add	x1, sp, #0xd4
   10c10:	aa1303e0 	mov	x0, x19
   10c14:	9400225f 	bl	19590 <lsx_readdw>
   10c18:	52800018 	mov	w24, #0x0                   	// #0
   10c1c:	b940d7e0 	ldr	w0, [sp, #212]
   10c20:	7100041f 	cmp	w0, #0x1
   10c24:	54001de8 	b.hi	10fe0 <lsx_aiffstartread+0x9d0>  // b.pmore
   10c28:	79017fff 	strh	wzr, [sp, #190]
   10c2c:	b900abff 	str	wzr, [sp, #168]
   10c30:	1400013a 	b	11118 <lsx_aiffstartread+0xb08>
   10c34:	910353e1 	add	x1, sp, #0xd4
   10c38:	aa1303e0 	mov	x0, x19
   10c3c:	94002255 	bl	19590 <lsx_readdw>
   10c40:	9102dbf4 	add	x20, sp, #0xb6
   10c44:	91016261 	add	x1, x19, #0x58
   10c48:	aa1303e0 	mov	x0, x19
   10c4c:	940021d5 	bl	193a0 <lsx_readb>
   10c50:	9102f3f6 	add	x22, sp, #0xbc
   10c54:	aa1403e1 	mov	x1, x20
   10c58:	aa1303e0 	mov	x0, x19
   10c5c:	940021d1 	bl	193a0 <lsx_readb>
   10c60:	52800020 	mov	w0, #0x1                   	// #1
   10c64:	91016661 	add	x1, x19, #0x59
   10c68:	b900a3e0 	str	w0, [sp, #160]
   10c6c:	aa1303e0 	mov	x0, x19
   10c70:	940021cc 	bl	193a0 <lsx_readb>
   10c74:	91016a61 	add	x1, x19, #0x5a
   10c78:	aa1303e0 	mov	x0, x19
   10c7c:	940021c9 	bl	193a0 <lsx_readb>
   10c80:	aa1403e1 	mov	x1, x20
   10c84:	aa1303e0 	mov	x0, x19
   10c88:	940021c6 	bl	193a0 <lsx_readb>
   10c8c:	aa1403e1 	mov	x1, x20
   10c90:	aa1303e0 	mov	x0, x19
   10c94:	940021c3 	bl	193a0 <lsx_readb>
   10c98:	910323e1 	add	x1, sp, #0xc8
   10c9c:	aa1303e0 	mov	x0, x19
   10ca0:	94002200 	bl	194a0 <lsx_readw>
   10ca4:	aa1603e1 	mov	x1, x22
   10ca8:	aa1303e0 	mov	x0, x19
   10cac:	940021fd 	bl	194a0 <lsx_readw>
   10cb0:	79417be0 	ldrh	w0, [sp, #188]
   10cb4:	910303e1 	add	x1, sp, #0xc0
   10cb8:	3901d260 	strb	w0, [x19, #116]
   10cbc:	aa1303e0 	mov	x0, x19
   10cc0:	940021f8 	bl	194a0 <lsx_readw>
   10cc4:	91030be1 	add	x1, sp, #0xc2
   10cc8:	aa1303e0 	mov	x0, x19
   10ccc:	940021f5 	bl	194a0 <lsx_readw>
   10cd0:	aa1603e1 	mov	x1, x22
   10cd4:	aa1303e0 	mov	x0, x19
   10cd8:	940021f2 	bl	194a0 <lsx_readw>
   10cdc:	79417be0 	ldrh	w0, [sp, #188]
   10ce0:	910313e1 	add	x1, sp, #0xc4
   10ce4:	39023260 	strb	w0, [x19, #140]
   10ce8:	aa1303e0 	mov	x0, x19
   10cec:	940021ed 	bl	194a0 <lsx_readw>
   10cf0:	91031be1 	add	x1, sp, #0xc6
   10cf4:	aa1303e0 	mov	x0, x19
   10cf8:	940021ea 	bl	194a0 <lsx_readw>
   10cfc:	17ffff58 	b	10a5c <lsx_aiffstartread+0x44c>
   10d00:	910353e1 	add	x1, sp, #0xd4
   10d04:	aa1303e0 	mov	x0, x19
   10d08:	94002222 	bl	19590 <lsx_readdw>
   10d0c:	b940d7e0 	ldr	w0, [sp, #212]
   10d10:	11000400 	add	w0, w0, #0x1
   10d14:	121f7800 	and	w0, w0, #0xfffffffe
   10d18:	51000401 	sub	w1, w0, #0x1
   10d1c:	b900d7e1 	str	w1, [sp, #212]
   10d20:	34ffe9e0 	cbz	w0, 10a5c <lsx_aiffstartread+0x44c>
   10d24:	9102dbf4 	add	x20, sp, #0xb6
   10d28:	aa1403e1 	mov	x1, x20
   10d2c:	aa1303e0 	mov	x0, x19
   10d30:	9400219c 	bl	193a0 <lsx_readb>
   10d34:	b940d7e0 	ldr	w0, [sp, #212]
   10d38:	51000401 	sub	w1, w0, #0x1
   10d3c:	b900d7e1 	str	w1, [sp, #212]
   10d40:	35ffff40 	cbnz	w0, 10d28 <lsx_aiffstartread+0x718>
   10d44:	17ffff46 	b	10a5c <lsx_aiffstartread+0x44c>
   10d48:	d2effe00 	mov	x0, #0x7ff0000000000000    	// #9218868437227405312
   10d4c:	528fffe2 	mov	w2, #0x7fff                	// #32767
   10d50:	9e670008 	fmov	d8, x0
   10d54:	6b02029f 	cmp	w20, w2
   10d58:	54fff420 	b.eq	10bdc <lsx_aiffstartread+0x5cc>  // b.none
   10d5c:	17ffff8f 	b	10b98 <lsx_aiffstartread+0x588>
   10d60:	910393e1 	add	x1, sp, #0xe4
   10d64:	aa1303e0 	mov	x0, x19
   10d68:	9400220a 	bl	19590 <lsx_readdw>
   10d6c:	910353e1 	add	x1, sp, #0xd4
   10d70:	aa1303e0 	mov	x0, x19
   10d74:	94002207 	bl	19590 <lsx_readdw>
   10d78:	b940d7e0 	ldr	w0, [sp, #212]
   10d7c:	51000401 	sub	w1, w0, #0x1
   10d80:	b900d7e1 	str	w1, [sp, #212]
   10d84:	34ffe6c0 	cbz	w0, 10a5c <lsx_aiffstartread+0x44c>
   10d88:	9102dbf4 	add	x20, sp, #0xb6
   10d8c:	aa1403e1 	mov	x1, x20
   10d90:	aa1303e0 	mov	x0, x19
   10d94:	94002183 	bl	193a0 <lsx_readb>
   10d98:	b940d7e0 	ldr	w0, [sp, #212]
   10d9c:	51000401 	sub	w1, w0, #0x1
   10da0:	b900d7e1 	str	w1, [sp, #212]
   10da4:	35ffff40 	cbnz	w0, 10d8c <lsx_aiffstartread+0x77c>
   10da8:	17ffff2d 	b	10a5c <lsx_aiffstartread+0x44c>
   10dac:	52800021 	mov	w1, #0x1                   	// #1
   10db0:	b900afe1 	str	w1, [sp, #172]
   10db4:	17ffff1c 	b	10a24 <lsx_aiffstartread+0x414>
   10db8:	f0000261 	adrp	x1, 5f000 <__trunctfdf2+0x140>
   10dbc:	aa1303e2 	mov	x2, x19
   10dc0:	91244021 	add	x1, x1, #0x910
   10dc4:	9103c3e0 	add	x0, sp, #0xf0
   10dc8:	97fffb02 	bl	f9d0 <textChunk>
   10dcc:	35000c00 	cbnz	w0, 10f4c <lsx_aiffstartread+0x93c>
   10dd0:	f9407bf4 	ldr	x20, [sp, #240]
   10dd4:	b4000094 	cbz	x20, 10de4 <lsx_aiffstartread+0x7d4>
   10dd8:	aa1403e1 	mov	x1, x20
   10ddc:	91014260 	add	x0, x19, #0x50
   10de0:	97fff7a4 	bl	ec70 <sox_append_comments@plt>
   10de4:	aa1403e0 	mov	x0, x20
   10de8:	97fff892 	bl	f030 <free@plt>
   10dec:	17ffff1c 	b	10a5c <lsx_aiffstartread+0x44c>
   10df0:	9103a3e1 	add	x1, sp, #0xe8
   10df4:	aa1303e0 	mov	x0, x19
   10df8:	940021e6 	bl	19590 <lsx_readdw>
   10dfc:	91032be1 	add	x1, sp, #0xca
   10e00:	aa1303e0 	mov	x0, x19
   10e04:	940021a7 	bl	194a0 <lsx_readw>
   10e08:	794197e0 	ldrh	w0, [sp, #202]
   10e0c:	34003d40 	cbz	w0, 115b4 <lsx_aiffstartread+0xfa4>
   10e10:	910333e2 	add	x2, sp, #0xcc
   10e14:	9103b3fc 	add	x28, sp, #0xec
   10e18:	aa0203f4 	mov	x20, x2
   10e1c:	aa1c03e1 	mov	x1, x28
   10e20:	aa1303e0 	mov	x0, x19
   10e24:	f9003fe2 	str	x2, [sp, #120]
   10e28:	940021da 	bl	19590 <lsx_readdw>
   10e2c:	91033bfb 	add	x27, sp, #0xce
   10e30:	aa1403e1 	mov	x1, x20
   10e34:	aa1303e0 	mov	x0, x19
   10e38:	9400219a 	bl	194a0 <lsx_readw>
   10e3c:	d2800016 	mov	x22, #0x0                   	// #0
   10e40:	aa1b03e1 	mov	x1, x27
   10e44:	aa1303e0 	mov	x0, x19
   10e48:	94002196 	bl	194a0 <lsx_readw>
   10e4c:	52800018 	mov	w24, #0x0                   	// #0
   10e50:	9102dfe1 	add	x1, sp, #0xb7
   10e54:	79419fe0 	ldrh	w0, [sp, #206]
   10e58:	52800019 	mov	w25, #0x0                   	// #0
   10e5c:	52800057 	mov	w23, #0x2                   	// #2
   10e60:	f9004fe1 	str	x1, [sp, #152]
   10e64:	14000023 	b	10ef0 <lsx_aiffstartread+0x8e0>
   10e68:	91000680 	add	x0, x20, #0x1
   10e6c:	97fff545 	bl	e380 <lsx_malloc@plt>
   10e70:	79419fe2 	ldrh	w2, [sp, #206]
   10e74:	aa0003f6 	mov	x22, x0
   10e78:	aa1303e0 	mov	x0, x19
   10e7c:	cb020281 	sub	x1, x20, x2
   10e80:	8b0102c1 	add	x1, x22, x1
   10e84:	97fff6df 	bl	ea00 <lsx_readbuf@plt>
   10e88:	79419fe1 	ldrh	w1, [sp, #206]
   10e8c:	eb01001f 	cmp	x0, x1
   10e90:	54000501 	b.ne	10f30 <lsx_aiffstartread+0x920>  // b.any
   10e94:	38346adf 	strb	wzr, [x22, x20]
   10e98:	0b170337 	add	w23, w25, w23
   10e9c:	79419fe0 	ldrh	w0, [sp, #206]
   10ea0:	37000620 	tbnz	w0, #0, 10f64 <lsx_aiffstartread+0x954>
   10ea4:	794197e0 	ldrh	w0, [sp, #202]
   10ea8:	11000718 	add	w24, w24, #0x1
   10eac:	110022f7 	add	w23, w23, #0x8
   10eb0:	6b00031f 	cmp	w24, w0
   10eb4:	540006e2 	b.cs	10f90 <lsx_aiffstartread+0x980>  // b.hs, b.nlast
   10eb8:	aa1c03e1 	mov	x1, x28
   10ebc:	aa1303e0 	mov	x0, x19
   10ec0:	940021b4 	bl	19590 <lsx_readdw>
   10ec4:	f9403fe1 	ldr	x1, [sp, #120]
   10ec8:	aa1303e0 	mov	x0, x19
   10ecc:	94002175 	bl	194a0 <lsx_readw>
   10ed0:	aa1b03e1 	mov	x1, x27
   10ed4:	aa1303e0 	mov	x0, x19
   10ed8:	94002172 	bl	194a0 <lsx_readw>
   10edc:	79419fe0 	ldrh	w0, [sp, #206]
   10ee0:	d29fffe1 	mov	x1, #0xffff                	// #65535
   10ee4:	8b202294 	add	x20, x20, w0, uxth
   10ee8:	eb01029f 	cmp	x20, x1
   10eec:	54001dc8 	b.hi	112a4 <lsx_aiffstartread+0xc94>  // b.pmore
   10ef0:	0b190000 	add	w0, w0, w25
   10ef4:	12003c19 	and	w25, w0, #0xffff
   10ef8:	92403c14 	and	x20, x0, #0xffff
   10efc:	34fffb78 	cbz	w24, 10e68 <lsx_aiffstartread+0x858>
   10f00:	aa1603e0 	mov	x0, x22
   10f04:	91000681 	add	x1, x20, #0x1
   10f08:	97fff55a 	bl	e470 <lsx_realloc@plt>
   10f0c:	aa0003f6 	mov	x22, x0
   10f10:	79419fe2 	ldrh	w2, [sp, #206]
   10f14:	aa1303e0 	mov	x0, x19
   10f18:	cb020281 	sub	x1, x20, x2
   10f1c:	8b0102c1 	add	x1, x22, x1
   10f20:	97fff6b8 	bl	ea00 <lsx_readbuf@plt>
   10f24:	79419fe1 	ldrh	w1, [sp, #206]
   10f28:	eb01001f 	cmp	x0, x1
   10f2c:	54fffb40 	b.eq	10e94 <lsx_aiffstartread+0x884>  // b.none
   10f30:	f0000263 	adrp	x3, 5f000 <__trunctfdf2+0x140>
   10f34:	f0000262 	adrp	x2, 5f000 <__trunctfdf2+0x140>
   10f38:	aa1303e0 	mov	x0, x19
   10f3c:	91248063 	add	x3, x3, #0x920
   10f40:	9115e042 	add	x2, x2, #0x578
   10f44:	12800001 	mov	w1, #0xffffffff            	// #-1
   10f48:	97fff72a 	bl	ebf0 <lsx_fail_errno@plt>
   10f4c:	12800014 	mov	w20, #0xffffffff            	// #-1
   10f50:	a94363f7 	ldp	x23, x24, [sp, #48]
   10f54:	a9446bf9 	ldp	x25, x26, [sp, #64]
   10f58:	a94573fb 	ldp	x27, x28, [sp, #80]
   10f5c:	6d4627e8 	ldp	d8, d9, [sp, #96]
   10f60:	17fffdd0 	b	106a0 <lsx_aiffstartread+0x90>
   10f64:	f9404fe1 	ldr	x1, [sp, #152]
   10f68:	aa1303e0 	mov	x0, x19
   10f6c:	d2800022 	mov	x2, #0x1                   	// #1
   10f70:	97fff6a4 	bl	ea00 <lsx_readbuf@plt>
   10f74:	f100041f 	cmp	x0, #0x1
   10f78:	54fffdc1 	b.ne	10f30 <lsx_aiffstartread+0x920>  // b.any
   10f7c:	794197e0 	ldrh	w0, [sp, #202]
   10f80:	11000718 	add	w24, w24, #0x1
   10f84:	110026f7 	add	w23, w23, #0x9
   10f88:	6b00031f 	cmp	w24, w0
   10f8c:	54fff963 	b.cc	10eb8 <lsx_aiffstartread+0x8a8>  // b.lo, b.ul, b.last
   10f90:	97fff740 	bl	ec90 <sox_get_globals@plt>
   10f94:	f0000274 	adrp	x20, 5f000 <__trunctfdf2+0x140>
   10f98:	91168282 	add	x2, x20, #0x5a0
   10f9c:	f9002002 	str	x2, [x0, #64]
   10fa0:	f0000261 	adrp	x1, 5f000 <__trunctfdf2+0x140>
   10fa4:	aa1603e2 	mov	x2, x22
   10fa8:	91248021 	add	x1, x1, #0x920
   10fac:	f0000260 	adrp	x0, 5f000 <__trunctfdf2+0x140>
   10fb0:	9116a000 	add	x0, x0, #0x5a8
   10fb4:	97fff7df 	bl	ef30 <lsx_debug_impl@plt>
   10fb8:	b940ebe0 	ldr	w0, [sp, #232]
   10fbc:	6b17001f 	cmp	w0, w23
   10fc0:	540031c8 	b.hi	115f8 <lsx_aiffstartread+0xfe8>  // b.pmore
   10fc4:	b4000096 	cbz	x22, 10fd4 <lsx_aiffstartread+0x9c4>
   10fc8:	aa1603e1 	mov	x1, x22
   10fcc:	91014260 	add	x0, x19, #0x50
   10fd0:	97fff728 	bl	ec70 <sox_append_comments@plt>
   10fd4:	aa1603e0 	mov	x0, x22
   10fd8:	97fff816 	bl	f030 <free@plt>
   10fdc:	17fffea0 	b	10a5c <lsx_aiffstartread+0x44c>
   10fe0:	9102fbe1 	add	x1, sp, #0xbe
   10fe4:	aa1303e0 	mov	x0, x19
   10fe8:	9400212e 	bl	194a0 <lsx_readw>
   10fec:	b940d7e0 	ldr	w0, [sp, #212]
   10ff0:	79417fe1 	ldrh	w1, [sp, #190]
   10ff4:	51000800 	sub	w0, w0, #0x2
   10ff8:	b900d7e0 	str	w0, [sp, #212]
   10ffc:	34ffe181 	cbz	w1, 10c2c <lsx_aiffstartread+0x61c>
   11000:	7100803f 	cmp	w1, #0x20
   11004:	54000069 	b.ls	11010 <lsx_aiffstartread+0xa00>  // b.plast
   11008:	52800401 	mov	w1, #0x20                  	// #32
   1100c:	79017fe1 	strh	w1, [sp, #190]
   11010:	910463f7 	add	x23, sp, #0x118
   11014:	9103a3f9 	add	x25, sp, #0xe8
   11018:	9103b3f6 	add	x22, sp, #0xec
   1101c:	9102dbe1 	add	x1, sp, #0xb6
   11020:	528004fb 	mov	w27, #0x27                  	// #39
   11024:	f9003fe1 	str	x1, [sp, #120]
   11028:	34003420 	cbz	w0, 116ac <lsx_aiffstartread+0x109c>
   1102c:	7100141f 	cmp	w0, #0x5
   11030:	54000709 	b.ls	11110 <lsx_aiffstartread+0xb00>  // b.plast
   11034:	d10022e1 	sub	x1, x23, #0x8
   11038:	aa1303e0 	mov	x0, x19
   1103c:	94002119 	bl	194a0 <lsx_readw>
   11040:	d10012e1 	sub	x1, x23, #0x4
   11044:	aa1303e0 	mov	x0, x19
   11048:	94002152 	bl	19590 <lsx_readdw>
   1104c:	b940d7e2 	ldr	w2, [sp, #212]
   11050:	aa1903e1 	mov	x1, x25
   11054:	aa1303e0 	mov	x0, x19
   11058:	51001842 	sub	w2, w2, #0x6
   1105c:	b900d7e2 	str	w2, [sp, #212]
   11060:	940020d0 	bl	193a0 <lsx_readb>
   11064:	350010a0 	cbnz	w0, 11278 <lsx_aiffstartread+0xc68>
   11068:	b940d7e0 	ldr	w0, [sp, #212]
   1106c:	3943a3e1 	ldrb	w1, [sp, #232]
   11070:	51000400 	sub	w0, w0, #0x1
   11074:	b900d7e0 	str	w0, [sp, #212]
   11078:	6b01001f 	cmp	w0, w1
   1107c:	54000062 	b.cs	11088 <lsx_aiffstartread+0xa78>  // b.hs, b.nlast
   11080:	12001c01 	and	w1, w0, #0xff
   11084:	3903a3e1 	strb	w1, [sp, #232]
   11088:	71009c3f 	cmp	w1, #0x27
   1108c:	d280001c 	mov	x28, #0x0                   	// #0
   11090:	1a9b9034 	csel	w20, w1, w27, ls  // ls = plast
   11094:	12001e94 	and	w20, w20, #0xff
   11098:	34000581 	cbz	w1, 11148 <lsx_aiffstartread+0xb38>
   1109c:	d503201f 	nop
   110a0:	340001e0 	cbz	w0, 110dc <lsx_aiffstartread+0xacc>
   110a4:	aa1603e1 	mov	x1, x22
   110a8:	aa1303e0 	mov	x0, x19
   110ac:	940020bd 	bl	193a0 <lsx_readb>
   110b0:	6b1c029f 	cmp	w20, w28
   110b4:	5400006d 	b.le	110c0 <lsx_aiffstartread+0xab0>
   110b8:	3943b3e0 	ldrb	w0, [sp, #236]
   110bc:	383c6ae0 	strb	w0, [x23, x28]
   110c0:	b940d7e0 	ldr	w0, [sp, #212]
   110c4:	9100079c 	add	x28, x28, #0x1
   110c8:	3943a3e1 	ldrb	w1, [sp, #232]
   110cc:	51000400 	sub	w0, w0, #0x1
   110d0:	b900d7e0 	str	w0, [sp, #212]
   110d4:	6b1c003f 	cmp	w1, w28
   110d8:	54fffe4c 	b.gt	110a0 <lsx_aiffstartread+0xa90>
   110dc:	937f7f02 	sbfiz	x2, x24, #1, #32
   110e0:	911cc3e3 	add	x3, sp, #0x730
   110e4:	8b38c042 	add	x2, x2, w24, sxtw
   110e8:	8b021062 	add	x2, x3, x2, lsl #4
   110ec:	8b34c042 	add	x2, x2, w20, sxtw
   110f0:	d1400442 	sub	x2, x2, #0x1, lsl #12
   110f4:	3927a05f 	strb	wzr, [x2, #2536]
   110f8:	36000381 	tbz	w1, #0, 11168 <lsx_aiffstartread+0xb58>
   110fc:	79417fe1 	ldrh	w1, [sp, #190]
   11100:	11000718 	add	w24, w24, #0x1
   11104:	9100c2f7 	add	x23, x23, #0x30
   11108:	6b18003f 	cmp	w1, w24
   1110c:	54fff8ec 	b.gt	11028 <lsx_aiffstartread+0xa18>
   11110:	52800021 	mov	w1, #0x1                   	// #1
   11114:	b900abe1 	str	w1, [sp, #168]
   11118:	51000401 	sub	w1, w0, #0x1
   1111c:	b900d7e1 	str	w1, [sp, #212]
   11120:	9102dbf4 	add	x20, sp, #0xb6
   11124:	34ffc9c0 	cbz	w0, 10a5c <lsx_aiffstartread+0x44c>
   11128:	aa1403e1 	mov	x1, x20
   1112c:	aa1303e0 	mov	x0, x19
   11130:	9400209c 	bl	193a0 <lsx_readb>
   11134:	b940d7e0 	ldr	w0, [sp, #212]
   11138:	51000401 	sub	w1, w0, #0x1
   1113c:	b900d7e1 	str	w1, [sp, #212]
   11140:	35ffff40 	cbnz	w0, 11128 <lsx_aiffstartread+0xb18>
   11144:	17fffe46 	b	10a5c <lsx_aiffstartread+0x44c>
   11148:	937f7f01 	sbfiz	x1, x24, #1, #32
   1114c:	911cc3e2 	add	x2, sp, #0x730
   11150:	8b38c021 	add	x1, x1, w24, sxtw
   11154:	8b011041 	add	x1, x2, x1, lsl #4
   11158:	8b34c021 	add	x1, x1, w20, sxtw
   1115c:	d1400421 	sub	x1, x1, #0x1, lsl #12
   11160:	3927a03f 	strb	wzr, [x1, #2536]
   11164:	d503201f 	nop
   11168:	34fffca0 	cbz	w0, 110fc <lsx_aiffstartread+0xaec>
   1116c:	f9403fe1 	ldr	x1, [sp, #120]
   11170:	51000402 	sub	w2, w0, #0x1
   11174:	aa1303e0 	mov	x0, x19
   11178:	b900d7e2 	str	w2, [sp, #212]
   1117c:	94002089 	bl	193a0 <lsx_readb>
   11180:	b940d7e0 	ldr	w0, [sp, #212]
   11184:	17ffffde 	b	110fc <lsx_aiffstartread+0xaec>
   11188:	794177e3 	ldrh	w3, [sp, #186]
   1118c:	7101007f 	cmp	w3, #0x40
   11190:	54ffc460 	b.eq	10a1c <lsx_aiffstartread+0x40c>  // b.none
   11194:	d0000262 	adrp	x2, 5f000 <__trunctfdf2+0x140>
   11198:	aa1303e0 	mov	x0, x19
   1119c:	91220042 	add	x2, x2, #0x880
   111a0:	5280fa01 	mov	w1, #0x7d0                 	// #2000
   111a4:	97fff693 	bl	ebf0 <lsx_fail_errno@plt>
   111a8:	12800014 	mov	w20, #0xffffffff            	// #-1
   111ac:	a94363f7 	ldp	x23, x24, [sp, #48]
   111b0:	a9446bf9 	ldp	x25, x26, [sp, #64]
   111b4:	a94573fb 	ldp	x27, x28, [sp, #80]
   111b8:	6d4627e8 	ldp	d8, d9, [sp, #96]
   111bc:	17fffd39 	b	106a0 <lsx_aiffstartread+0x90>
   111c0:	d0000261 	adrp	x1, 5f000 <__trunctfdf2+0x140>
   111c4:	aa1303e2 	mov	x2, x19
   111c8:	91258021 	add	x1, x1, #0x960
   111cc:	9103e3e0 	add	x0, sp, #0xf8
   111d0:	97fffa00 	bl	f9d0 <textChunk>
   111d4:	35ffebc0 	cbnz	w0, 10f4c <lsx_aiffstartread+0x93c>
   111d8:	f9407fe0 	ldr	x0, [sp, #248]
   111dc:	97fff795 	bl	f030 <free@plt>
   111e0:	17fffe1f 	b	10a5c <lsx_aiffstartread+0x44c>
   111e4:	97fff5db 	bl	e950 <__errno_location@plt>
   111e8:	aa0003e1 	mov	x1, x0
   111ec:	d0000262 	adrp	x2, 5f000 <__trunctfdf2+0x140>
   111f0:	aa1303e0 	mov	x0, x19
   111f4:	9128c042 	add	x2, x2, #0xa30
   111f8:	b9400021 	ldr	w1, [x1]
   111fc:	97fff67d 	bl	ebf0 <lsx_fail_errno@plt>
   11200:	a94363f7 	ldp	x23, x24, [sp, #48]
   11204:	a9446bf9 	ldp	x25, x26, [sp, #64]
   11208:	a94573fb 	ldp	x27, x28, [sp, #80]
   1120c:	6d4627e8 	ldp	d8, d9, [sp, #96]
   11210:	17fffd24 	b	106a0 <lsx_aiffstartread+0x90>
   11214:	f94047e0 	ldr	x0, [sp, #136]
   11218:	f100001f 	cmp	x0, #0x0
   1121c:	5400328d 	b.le	1186c <lsx_aiffstartread+0x125c>
   11220:	b9412260 	ldr	w0, [x19, #288]
   11224:	35ffc2c0 	cbnz	w0, 10a7c <lsx_aiffstartread+0x46c>
   11228:	b940e3e0 	ldr	w0, [sp, #224]
   1122c:	34ffc340 	cbz	w0, 10a94 <lsx_aiffstartread+0x484>
   11230:	97fff698 	bl	ec90 <sox_get_globals@plt>
   11234:	aa0003e1 	mov	x1, x0
   11238:	d0000274 	adrp	x20, 5f000 <__trunctfdf2+0x140>
   1123c:	91168282 	add	x2, x20, #0x5a0
   11240:	d0000260 	adrp	x0, 5f000 <__trunctfdf2+0x140>
   11244:	9127a000 	add	x0, x0, #0x9e8
   11248:	f9002022 	str	x2, [x1, #64]
   1124c:	97fff67d 	bl	ec40 <lsx_warn_impl@plt>
   11250:	17fffe11 	b	10a94 <lsx_aiffstartread+0x484>
   11254:	d0000261 	adrp	x1, 5f000 <__trunctfdf2+0x140>
   11258:	aa1303e2 	mov	x2, x19
   1125c:	9125c021 	add	x1, x1, #0x970
   11260:	910423e0 	add	x0, sp, #0x108
   11264:	97fff9db 	bl	f9d0 <textChunk>
   11268:	35ffe720 	cbnz	w0, 10f4c <lsx_aiffstartread+0x93c>
   1126c:	f94087e0 	ldr	x0, [sp, #264]
   11270:	97fff770 	bl	f030 <free@plt>
   11274:	17fffdfa 	b	10a5c <lsx_aiffstartread+0x44c>
   11278:	b940d7e0 	ldr	w0, [sp, #212]
   1127c:	17ffffa5 	b	11110 <lsx_aiffstartread+0xb00>
   11280:	d0000261 	adrp	x1, 5f000 <__trunctfdf2+0x140>
   11284:	aa1303e2 	mov	x2, x19
   11288:	91260021 	add	x1, x1, #0x980
   1128c:	910403e0 	add	x0, sp, #0x100
   11290:	97fff9d0 	bl	f9d0 <textChunk>
   11294:	35ffe5c0 	cbnz	w0, 10f4c <lsx_aiffstartread+0x93c>
   11298:	f94083e0 	ldr	x0, [sp, #256]
   1129c:	97fff765 	bl	f030 <free@plt>
   112a0:	17fffdef 	b	10a5c <lsx_aiffstartread+0x44c>
   112a4:	aa1303e0 	mov	x0, x19
   112a8:	d0000263 	adrp	x3, 5f000 <__trunctfdf2+0x140>
   112ac:	d0000262 	adrp	x2, 5f000 <__trunctfdf2+0x140>
   112b0:	91248063 	add	x3, x3, #0x920
   112b4:	9124c042 	add	x2, x2, #0x930
   112b8:	12800001 	mov	w1, #0xffffffff            	// #-1
   112bc:	97fff64d 	bl	ebf0 <lsx_fail_errno@plt>
   112c0:	12800014 	mov	w20, #0xffffffff            	// #-1
   112c4:	a94363f7 	ldp	x23, x24, [sp, #48]
   112c8:	a9446bf9 	ldp	x25, x26, [sp, #64]
   112cc:	a94573fb 	ldp	x27, x28, [sp, #80]
   112d0:	6d4627e8 	ldp	d8, d9, [sp, #96]
   112d4:	17fffcf3 	b	106a0 <lsx_aiffstartread+0x90>
   112d8:	b9401260 	ldr	w0, [x19, #16]
   112dc:	34002820 	cbz	w0, 117e0 <lsx_aiffstartread+0x11d0>
   112e0:	fd400660 	ldr	d0, [x19, #8]
   112e4:	1e602008 	fcmp	d0, #0.0
   112e8:	540027c0 	b.eq	117e0 <lsx_aiffstartread+0x11d0>  // b.none
   112ec:	b9402a60 	ldr	w0, [x19, #40]
   112f0:	34002780 	cbz	w0, 117e0 <lsx_aiffstartread+0x11d0>
   112f4:	b9402e60 	ldr	w0, [x19, #44]
   112f8:	34002740 	cbz	w0, 117e0 <lsx_aiffstartread+0x11d0>
   112fc:	794177e0 	ldrh	w0, [sp, #186]
   11300:	d3433c00 	ubfx	x0, x0, #3, #13
   11304:	9ac00ab5 	udiv	x21, x21, x0
   11308:	b940afe0 	ldr	w0, [sp, #172]
   1130c:	340000a0 	cbz	w0, 11320 <lsx_aiffstartread+0xd10>
   11310:	b9403a60 	ldr	w0, [x19, #56]
   11314:	7100001f 	cmp	w0, #0x0
   11318:	1a9f17e0 	cset	w0, eq  // eq = none
   1131c:	b9003a60 	str	w0, [x19, #56]
   11320:	b940a3e0 	ldr	w0, [sp, #160]
   11324:	b940abe1 	ldr	w1, [sp, #168]
   11328:	52000000 	eor	w0, w0, #0x1
   1132c:	6a01001f 	tst	w0, w1
   11330:	54001c81 	b.ne	116c0 <lsx_aiffstartread+0x10b0>  // b.any
   11334:	b940abe0 	ldr	w0, [sp, #168]
   11338:	d0000274 	adrp	x20, 5f000 <__trunctfdf2+0x140>
   1133c:	52000002 	eor	w2, w0, #0x1
   11340:	b940a3e0 	ldr	w0, [sp, #160]
   11344:	6a000042 	ands	w2, w2, w0
   11348:	54001d01 	b.ne	116e8 <lsx_aiffstartread+0x10d8>  // b.any
   1134c:	b940a3e1 	ldr	w1, [sp, #160]
   11350:	b940abe0 	ldr	w0, [sp, #168]
   11354:	6a01001f 	tst	w0, w1
   11358:	54001dc0 	b.eq	11710 <lsx_aiffstartread+0x1100>  // b.none
   1135c:	79417fe7 	ldrh	w7, [sp, #190]
   11360:	340022e7 	cbz	w7, 117bc <lsx_aiffstartread+0x11ac>
   11364:	794183eb 	ldrh	w11, [sp, #192]
   11368:	910443e6 	add	x6, sp, #0x110
   1136c:	794187ea 	ldrh	w10, [sp, #194]
   11370:	52800003 	mov	w3, #0x0                   	// #0
   11374:	79418be9 	ldrh	w9, [sp, #196]
   11378:	52800004 	mov	w4, #0x0                   	// #0
   1137c:	79418fe8 	ldrh	w8, [sp, #198]
   11380:	52800005 	mov	w5, #0x0                   	// #0
   11384:	52800000 	mov	w0, #0x0                   	// #0
   11388:	784304c1 	ldrh	w1, [x6], #48
   1138c:	6b0b003f 	cmp	w1, w11
   11390:	1a801042 	csel	w2, w2, w0, ne  // ne = any
   11394:	6b0a003f 	cmp	w1, w10
   11398:	1a8010a5 	csel	w5, w5, w0, ne  // ne = any
   1139c:	6b09003f 	cmp	w1, w9
   113a0:	1a801084 	csel	w4, w4, w0, ne  // ne = any
   113a4:	6b08003f 	cmp	w1, w8
   113a8:	1a801063 	csel	w3, w3, w0, ne  // ne = any
   113ac:	11000400 	add	w0, w0, #0x1
   113b0:	6b07001f 	cmp	w0, w7
   113b4:	54fffea1 	b.ne	11388 <lsx_aiffstartread+0xd78>  // b.any
   113b8:	3941d267 	ldrb	w7, [x19, #116]
   113bc:	b9005e7f 	str	wzr, [x19, #92]
   113c0:	39423266 	ldrb	w6, [x19, #140]
   113c4:	34001ae7 	cbz	w7, 11720 <lsx_aiffstartread+0x1110>
   113c8:	937f7c40 	sbfiz	x0, x2, #1, #32
   113cc:	937f7ca1 	sbfiz	x1, x5, #1, #32
   113d0:	8b22c000 	add	x0, x0, w2, sxtw
   113d4:	8b25c021 	add	x1, x1, w5, sxtw
   113d8:	910453e2 	add	x2, sp, #0x114
   113dc:	321a00e7 	orr	w7, w7, #0x40
   113e0:	d37cec00 	lsl	x0, x0, #4
   113e4:	d37cec21 	lsl	x1, x1, #4
   113e8:	39016e67 	strb	w7, [x19, #91]
   113ec:	52800025 	mov	w5, #0x1                   	// #1
   113f0:	b9005e65 	str	w5, [x19, #92]
   113f4:	b8606847 	ldr	w7, [x2, x0]
   113f8:	b8616840 	ldr	w0, [x2, x1]
   113fc:	2a0703e1 	mov	w1, w7
   11400:	b9007265 	str	w5, [x19, #112]
   11404:	4b070000 	sub	w0, w0, w7
   11408:	a9060261 	stp	x1, x0, [x19, #96]
   1140c:	35001c66 	cbnz	w6, 11798 <lsx_aiffstartread+0x1188>
   11410:	d0000274 	adrp	x20, 5f000 <__trunctfdf2+0x140>
   11414:	97fff61f 	bl	ec90 <sox_get_globals@plt>
   11418:	aa0003e1 	mov	x1, x0
   1141c:	91168298 	add	x24, x20, #0x5a0
   11420:	d0000260 	adrp	x0, 5f000 <__trunctfdf2+0x140>
   11424:	912de000 	add	x0, x0, #0xb78
   11428:	91018276 	add	x22, x19, #0x60
   1142c:	f9002038 	str	x24, [x1, #64]
   11430:	97fff5f8 	bl	ec10 <lsx_report_impl@plt>
   11434:	b9405e61 	ldr	w1, [x19, #92]
   11438:	34000661 	cbz	w1, 11504 <lsx_aiffstartread+0xef4>
   1143c:	d000027a 	adrp	x26, 5f000 <__trunctfdf2+0x140>
   11440:	d0000279 	adrp	x25, 5f000 <__trunctfdf2+0x140>
   11444:	912f635a 	add	x26, x26, #0xbd8
   11448:	912fc339 	add	x25, x25, #0xbf0
   1144c:	14000005 	b	11460 <lsx_aiffstartread+0xe50>
   11450:	110006f7 	add	w23, w23, #0x1
   11454:	910062d6 	add	x22, x22, #0x18
   11458:	6b0102ff 	cmp	w23, w1
   1145c:	54000542 	b.cs	11504 <lsx_aiffstartread+0xef4>  // b.hs, b.nlast
   11460:	b94012c0 	ldr	w0, [x22, #16]
   11464:	34ffff60 	cbz	w0, 11450 <lsx_aiffstartread+0xe40>
   11468:	97fff60a 	bl	ec90 <sox_get_globals@plt>
   1146c:	aa0003e3 	mov	x3, x0
   11470:	f94002c2 	ldr	x2, [x22]
   11474:	2a1703e1 	mov	w1, w23
   11478:	aa1a03e0 	mov	x0, x26
   1147c:	f9002078 	str	x24, [x3, #64]
   11480:	97fff5e4 	bl	ec10 <lsx_report_impl@plt>
   11484:	97fff603 	bl	ec90 <sox_get_globals@plt>
   11488:	aa0003e3 	mov	x3, x0
   1148c:	a94006c2 	ldp	x2, x1, [x22]
   11490:	aa1903e0 	mov	x0, x25
   11494:	f9002078 	str	x24, [x3, #64]
   11498:	8b010041 	add	x1, x2, x1
   1149c:	97fff5dd 	bl	ec10 <lsx_report_impl@plt>
   114a0:	97fff5fc 	bl	ec90 <sox_get_globals@plt>
   114a4:	aa0003e2 	mov	x2, x0
   114a8:	b94012c1 	ldr	w1, [x22, #16]
   114ac:	d0000260 	adrp	x0, 5f000 <__trunctfdf2+0x140>
   114b0:	91300000 	add	x0, x0, #0xc00
   114b4:	f9002058 	str	x24, [x2, #64]
   114b8:	97fff5d6 	bl	ec10 <lsx_report_impl@plt>
   114bc:	97fff5f5 	bl	ec90 <sox_get_globals@plt>
   114c0:	aa0003e1 	mov	x1, x0
   114c4:	d0000260 	adrp	x0, 5f000 <__trunctfdf2+0x140>
   114c8:	91304000 	add	x0, x0, #0xc10
   114cc:	f9002038 	str	x24, [x1, #64]
   114d0:	97fff5d0 	bl	ec10 <lsx_report_impl@plt>
   114d4:	394052c0 	ldrb	w0, [x22, #20]
   114d8:	12197800 	and	w0, w0, #0xffffffbf
   114dc:	7100041f 	cmp	w0, #0x1
   114e0:	54000b80 	b.eq	11650 <lsx_aiffstartread+0x1040>  // b.none
   114e4:	7100081f 	cmp	w0, #0x2
   114e8:	54000a40 	b.eq	11630 <lsx_aiffstartread+0x1020>  // b.none
   114ec:	34000540 	cbz	w0, 11594 <lsx_aiffstartread+0xf84>
   114f0:	b9405e61 	ldr	w1, [x19, #92]
   114f4:	110006f7 	add	w23, w23, #0x1
   114f8:	910062d6 	add	x22, x22, #0x18
   114fc:	6b0102ff 	cmp	w23, w1
   11500:	54fffb03 	b.cc	11460 <lsx_aiffstartread+0xe50>  // b.lo, b.ul, b.last
   11504:	97fff5e3 	bl	ec90 <sox_get_globals@plt>
   11508:	aa0003e1 	mov	x1, x0
   1150c:	91168294 	add	x20, x20, #0x5a0
   11510:	d0000260 	adrp	x0, 5f000 <__trunctfdf2+0x140>
   11514:	912e4000 	add	x0, x0, #0xb90
   11518:	f9002034 	str	x20, [x1, #64]
   1151c:	39c16261 	ldrsb	w1, [x19, #88]
   11520:	97fff5bc 	bl	ec10 <lsx_report_impl@plt>
   11524:	97fff5db 	bl	ec90 <sox_get_globals@plt>
   11528:	aa0003e1 	mov	x1, x0
   1152c:	d0000260 	adrp	x0, 5f000 <__trunctfdf2+0x140>
   11530:	912ea000 	add	x0, x0, #0xba8
   11534:	f9002034 	str	x20, [x1, #64]
   11538:	39c16661 	ldrsb	w1, [x19, #89]
   1153c:	97fff5b5 	bl	ec10 <lsx_report_impl@plt>
   11540:	97fff5d4 	bl	ec90 <sox_get_globals@plt>
   11544:	aa0003e1 	mov	x1, x0
   11548:	d0000260 	adrp	x0, 5f000 <__trunctfdf2+0x140>
   1154c:	912f0000 	add	x0, x0, #0xbc0
   11550:	f9002034 	str	x20, [x1, #64]
   11554:	39c16a61 	ldrsb	w1, [x19, #90]
   11558:	97fff5ae 	bl	ec10 <lsx_report_impl@plt>
   1155c:	1e604100 	fmov	d0, d8
   11560:	794177e3 	ldrh	w3, [sp, #186]
   11564:	aa1503e4 	mov	x4, x21
   11568:	794173e1 	ldrh	w1, [sp, #184]
   1156c:	aa1303e0 	mov	x0, x19
   11570:	b940a7e2 	ldr	w2, [sp, #164]
   11574:	52800005 	mov	w5, #0x0                   	// #0
   11578:	97fff5aa 	bl	ec20 <lsx_check_read_params@plt>
   1157c:	2a0003f4 	mov	w20, w0
   11580:	a94363f7 	ldp	x23, x24, [sp, #48]
   11584:	a9446bf9 	ldp	x25, x26, [sp, #64]
   11588:	a94573fb 	ldp	x27, x28, [sp, #80]
   1158c:	6d4627e8 	ldp	d8, d9, [sp, #96]
   11590:	17fffc44 	b	106a0 <lsx_aiffstartread+0x90>
   11594:	97fff5bf 	bl	ec90 <sox_get_globals@plt>
   11598:	aa0003e1 	mov	x1, x0
   1159c:	d0000260 	adrp	x0, 5f000 <__trunctfdf2+0x140>
   115a0:	91308000 	add	x0, x0, #0xc20
   115a4:	f9002038 	str	x24, [x1, #64]
   115a8:	97fff59a 	bl	ec10 <lsx_report_impl@plt>
   115ac:	b9405e61 	ldr	w1, [x19, #92]
   115b0:	17ffffa8 	b	11450 <lsx_aiffstartread+0xe40>
   115b4:	97fff5b7 	bl	ec90 <sox_get_globals@plt>
   115b8:	d0000274 	adrp	x20, 5f000 <__trunctfdf2+0x140>
   115bc:	91168283 	add	x3, x20, #0x5a0
   115c0:	f9002003 	str	x3, [x0, #64]
   115c4:	d0000262 	adrp	x2, 5f000 <__trunctfdf2+0x140>
   115c8:	d0000261 	adrp	x1, 5f000 <__trunctfdf2+0x140>
   115cc:	9116a040 	add	x0, x2, #0x5a8
   115d0:	91248021 	add	x1, x1, #0x920
   115d4:	d2800002 	mov	x2, #0x0                   	// #0
   115d8:	97fff656 	bl	ef30 <lsx_debug_impl@plt>
   115dc:	b940ebe0 	ldr	w0, [sp, #232]
   115e0:	d2800016 	mov	x22, #0x0                   	// #0
   115e4:	7100081f 	cmp	w0, #0x2
   115e8:	54ffcf69 	b.ls	10fd4 <lsx_aiffstartread+0x9c4>  // b.plast
   115ec:	91033bfb 	add	x27, sp, #0xce
   115f0:	52800057 	mov	w23, #0x2                   	// #2
   115f4:	d2800016 	mov	x22, #0x0                   	// #0
   115f8:	d2800014 	mov	x20, #0x0                   	// #0
   115fc:	aa1b03e1 	mov	x1, x27
   11600:	aa1303e0 	mov	x0, x19
   11604:	d2800022 	mov	x2, #0x1                   	// #1
   11608:	97fff4fe 	bl	ea00 <lsx_readbuf@plt>
   1160c:	b940ebe0 	ldr	w0, [sp, #232]
   11610:	91000694 	add	x20, x20, #0x1
   11614:	4b170000 	sub	w0, w0, w23
   11618:	eb00029f 	cmp	x20, x0
   1161c:	54ffff03 	b.cc	115fc <lsx_aiffstartread+0xfec>  // b.lo, b.ul, b.last
   11620:	17fffe69 	b	10fc4 <lsx_aiffstartread+0x9b4>
   11624:	52800100 	mov	w0, #0x8                   	// #8
   11628:	790177e0 	strh	w0, [sp, #186]
   1162c:	17ffff37 	b	11308 <lsx_aiffstartread+0xcf8>
   11630:	97fff598 	bl	ec90 <sox_get_globals@plt>
   11634:	aa0003e1 	mov	x1, x0
   11638:	d0000260 	adrp	x0, 5f000 <__trunctfdf2+0x140>
   1163c:	9130c000 	add	x0, x0, #0xc30
   11640:	f9002038 	str	x24, [x1, #64]
   11644:	97fff573 	bl	ec10 <lsx_report_impl@plt>
   11648:	b9405e61 	ldr	w1, [x19, #92]
   1164c:	17ffffaa 	b	114f4 <lsx_aiffstartread+0xee4>
   11650:	97fff590 	bl	ec90 <sox_get_globals@plt>
   11654:	aa0003e1 	mov	x1, x0
   11658:	d0000260 	adrp	x0, 5f000 <__trunctfdf2+0x140>
   1165c:	9130a000 	add	x0, x0, #0xc28
   11660:	f9002038 	str	x24, [x1, #64]
   11664:	97fff56b 	bl	ec10 <lsx_report_impl@plt>
   11668:	b9405e61 	ldr	w1, [x19, #92]
   1166c:	17ffff79 	b	11450 <lsx_aiffstartread+0xe40>
   11670:	910353e1 	add	x1, sp, #0xd4
   11674:	aa1303e0 	mov	x0, x19
   11678:	94001fc6 	bl	19590 <lsx_readdw>
   1167c:	aa1303e0 	mov	x0, x19
   11680:	97fff3dc 	bl	e5f0 <lsx_tell@plt>
   11684:	aa0003f4 	mov	x20, x0
   11688:	52800001 	mov	w1, #0x0                   	// #0
   1168c:	aa1303e0 	mov	x0, x19
   11690:	97fff710 	bl	f2d0 <lsx_id3_read_tag@plt>
   11694:	b940d7e1 	ldr	w1, [sp, #212]
   11698:	aa1303e0 	mov	x0, x19
   1169c:	52800002 	mov	w2, #0x0                   	// #0
   116a0:	8b140021 	add	x1, x1, x20
   116a4:	97fff56f 	bl	ec60 <lsx_seeki@plt>
   116a8:	17fffced 	b	10a5c <lsx_aiffstartread+0x44c>
   116ac:	12800000 	mov	w0, #0xffffffff            	// #-1
   116b0:	52800021 	mov	w1, #0x1                   	// #1
   116b4:	b900abe1 	str	w1, [sp, #168]
   116b8:	b900d7e0 	str	w0, [sp, #212]
   116bc:	17fffce8 	b	10a5c <lsx_aiffstartread+0x44c>
   116c0:	97fff574 	bl	ec90 <sox_get_globals@plt>
   116c4:	aa0003e1 	mov	x1, x0
   116c8:	d0000274 	adrp	x20, 5f000 <__trunctfdf2+0x140>
   116cc:	91168282 	add	x2, x20, #0x5a0
   116d0:	d0000260 	adrp	x0, 5f000 <__trunctfdf2+0x140>
   116d4:	912c6000 	add	x0, x0, #0xb18
   116d8:	f9002022 	str	x2, [x1, #64]
   116dc:	97fff615 	bl	ef30 <lsx_debug_impl@plt>
   116e0:	b940a3e0 	ldr	w0, [sp, #160]
   116e4:	34000180 	cbz	w0, 11714 <lsx_aiffstartread+0x1104>
   116e8:	97fff56a 	bl	ec90 <sox_get_globals@plt>
   116ec:	aa0003e2 	mov	x2, x0
   116f0:	91168281 	add	x1, x20, #0x5a0
   116f4:	d0000260 	adrp	x0, 5f000 <__trunctfdf2+0x140>
   116f8:	912d2000 	add	x0, x0, #0xb48
   116fc:	f9002041 	str	x1, [x2, #64]
   11700:	97fff60c 	bl	ef30 <lsx_debug_impl@plt>
   11704:	b9405e60 	ldr	w0, [x19, #92]
   11708:	34ffefe0 	cbz	w0, 11504 <lsx_aiffstartread+0xef4>
   1170c:	17ffff42 	b	11414 <lsx_aiffstartread+0xe04>
   11710:	d0000274 	adrp	x20, 5f000 <__trunctfdf2+0x140>
   11714:	b9405e60 	ldr	w0, [x19, #92]
   11718:	34ffef60 	cbz	w0, 11504 <lsx_aiffstartread+0xef4>
   1171c:	17ffff3e 	b	11414 <lsx_aiffstartread+0xe04>
   11720:	d0000274 	adrp	x20, 5f000 <__trunctfdf2+0x140>
   11724:	34ffef06 	cbz	w6, 11504 <lsx_aiffstartread+0xef4>
   11728:	910453e2 	add	x2, sp, #0x114
   1172c:	52800025 	mov	w5, #0x1                   	// #1
   11730:	937f7c60 	sbfiz	x0, x3, #1, #32
   11734:	937f7c81 	sbfiz	x1, x4, #1, #32
   11738:	8b23c000 	add	x0, x0, w3, sxtw
   1173c:	8b24c021 	add	x1, x1, w4, sxtw
   11740:	321a00c6 	orr	w6, w6, #0x40
   11744:	52800023 	mov	w3, #0x1                   	// #1
   11748:	d37cec21 	lsl	x1, x1, #4
   1174c:	d37cec00 	lsl	x0, x0, #4
   11750:	d0000274 	adrp	x20, 5f000 <__trunctfdf2+0x140>
   11754:	39016e66 	strb	w6, [x19, #91]
   11758:	b9005e65 	str	w5, [x19, #92]
   1175c:	b8616841 	ldr	w1, [x2, x1]
   11760:	b8606840 	ldr	w0, [x2, x0]
   11764:	2a0103e2 	mov	w2, w1
   11768:	b9008a63 	str	w3, [x19, #136]
   1176c:	4b010000 	sub	w0, w0, w1
   11770:	a9078262 	stp	x2, x0, [x19, #120]
   11774:	17ffff28 	b	11414 <lsx_aiffstartread+0xe04>
   11778:	7100607f 	cmp	w3, #0x18
   1177c:	54000129 	b.ls	117a0 <lsx_aiffstartread+0x1190>  // b.plast
   11780:	7100807f 	cmp	w3, #0x20
   11784:	54000568 	b.hi	11830 <lsx_aiffstartread+0x1220>  // b.pmore
   11788:	52800400 	mov	w0, #0x20                  	// #32
   1178c:	d342feb5 	lsr	x21, x21, #2
   11790:	790177e0 	strh	w0, [sp, #186]
   11794:	17fffedd 	b	11308 <lsx_aiffstartread+0xcf8>
   11798:	52800045 	mov	w5, #0x2                   	// #2
   1179c:	17ffffe5 	b	11730 <lsx_aiffstartread+0x1120>
   117a0:	b201f3e0 	mov	x0, #0xaaaaaaaaaaaaaaaa    	// #-6148914691236517206
   117a4:	52800301 	mov	w1, #0x18                  	// #24
   117a8:	f2955560 	movk	x0, #0xaaab
   117ac:	790177e1 	strh	w1, [sp, #186]
   117b0:	9bc07ea0 	umulh	x0, x21, x0
   117b4:	d341fc15 	lsr	x21, x0, #1
   117b8:	17fffed4 	b	11308 <lsx_aiffstartread+0xcf8>
   117bc:	52800003 	mov	w3, #0x0                   	// #0
   117c0:	52800004 	mov	w4, #0x0                   	// #0
   117c4:	52800005 	mov	w5, #0x0                   	// #0
   117c8:	17fffefc 	b	113b8 <lsx_aiffstartread+0xda8>
   117cc:	d0000262 	adrp	x2, 5f000 <__trunctfdf2+0x140>
   117d0:	aa1303e0 	mov	x0, x19
   117d4:	9120c042 	add	x2, x2, #0x830
   117d8:	5280fa01 	mov	w1, #0x7d0                 	// #2000
   117dc:	17fffe72 	b	111a4 <lsx_aiffstartread+0xb94>
   117e0:	97fff52c 	bl	ec90 <sox_get_globals@plt>
   117e4:	aa0003e1 	mov	x1, x0
   117e8:	d0000275 	adrp	x21, 5f000 <__trunctfdf2+0x140>
   117ec:	d0000260 	adrp	x0, 5f000 <__trunctfdf2+0x140>
   117f0:	911682b5 	add	x21, x21, #0x5a0
   117f4:	912a4000 	add	x0, x0, #0xa90
   117f8:	f9002035 	str	x21, [x1, #64]
   117fc:	12800014 	mov	w20, #0xffffffff            	// #-1
   11800:	97fff504 	bl	ec10 <lsx_report_impl@plt>
   11804:	97fff523 	bl	ec90 <sox_get_globals@plt>
   11808:	aa0003e1 	mov	x1, x0
   1180c:	d0000260 	adrp	x0, 5f000 <__trunctfdf2+0x140>
   11810:	912b4000 	add	x0, x0, #0xad0
   11814:	f9002035 	str	x21, [x1, #64]
   11818:	97fff4fe 	bl	ec10 <lsx_report_impl@plt>
   1181c:	d0000262 	adrp	x2, 5f000 <__trunctfdf2+0x140>
   11820:	aa1303e0 	mov	x0, x19
   11824:	912bc042 	add	x2, x2, #0xaf0
   11828:	5280fa21 	mov	w1, #0x7d1                 	// #2001
   1182c:	17fffbc5 	b	10740 <lsx_aiffstartread+0x130>
   11830:	b940a7e0 	ldr	w0, [sp, #164]
   11834:	7101007f 	cmp	w3, #0x40
   11838:	d343feb5 	lsr	x21, x21, #3
   1183c:	7a430800 	ccmp	w0, #0x3, #0x0, eq  // eq = none
   11840:	54ffd640 	b.eq	11308 <lsx_aiffstartread+0xcf8>  // b.none
   11844:	d0000262 	adrp	x2, 5f000 <__trunctfdf2+0x140>
   11848:	aa1303e0 	mov	x0, x19
   1184c:	91298042 	add	x2, x2, #0xa60
   11850:	5280fa21 	mov	w1, #0x7d1                 	// #2001
   11854:	17fffe54 	b	111a4 <lsx_aiffstartread+0xb94>
   11858:	a90363f7 	stp	x23, x24, [sp, #48]
   1185c:	a9046bf9 	stp	x25, x26, [sp, #64]
   11860:	a90573fb 	stp	x27, x28, [sp, #80]
   11864:	6d0627e8 	stp	d8, d9, [sp, #96]
   11868:	97fff48a 	bl	ea90 <__stack_chk_fail@plt>
   1186c:	d0000262 	adrp	x2, 5f000 <__trunctfdf2+0x140>
   11870:	aa1303e0 	mov	x0, x19
   11874:	911f6042 	add	x2, x2, #0x7d8
   11878:	5280fa01 	mov	w1, #0x7d0                 	// #2000
   1187c:	17fffbb1 	b	10740 <lsx_aiffstartread+0x130>
   11880:	d0000262 	adrp	x2, 5f000 <__trunctfdf2+0x140>
   11884:	12800001 	mov	w1, #0xffffffff            	// #-1
   11888:	aa1303e0 	mov	x0, x19
   1188c:	91270042 	add	x2, x2, #0x9c0
   11890:	2a0103f4 	mov	w20, w1
   11894:	17fffbab 	b	10740 <lsx_aiffstartread+0x130>
   11898:	d503201f 	nop
   1189c:	d503201f 	nop

00000000000118a0 <lsx_aiffstopread>:
   118a0:	a9ba7bfd 	stp	x29, x30, [sp, #-96]!
   118a4:	d0000461 	adrp	x1, 9f000 <handler.1+0x60>
   118a8:	910003fd 	mov	x29, sp
   118ac:	f947ac21 	ldr	x1, [x1, #3928]
   118b0:	a90153f3 	stp	x19, x20, [sp, #16]
   118b4:	aa0003f3 	mov	x19, x0
   118b8:	b9412000 	ldr	w0, [x0, #288]
   118bc:	f9400022 	ldr	x2, [x1]
   118c0:	f9002fe2 	str	x2, [sp, #88]
   118c4:	d2800002 	mov	x2, #0x0                   	// #0
   118c8:	350007c0 	cbnz	w0, 119c0 <lsx_aiffstopread+0x120>
   118cc:	a9025bf5 	stp	x21, x22, [sp, #32]
   118d0:	d0000276 	adrp	x22, 5f000 <__trunctfdf2+0x140>
   118d4:	911682d6 	add	x22, x22, #0x5a0
   118d8:	f9001bf7 	str	x23, [sp, #48]
   118dc:	d0000277 	adrp	x23, 5f000 <__trunctfdf2+0x140>
   118e0:	913122f7 	add	x23, x23, #0xc48
   118e4:	d503201f 	nop
   118e8:	910143f5 	add	x21, sp, #0x50
   118ec:	aa1303e0 	mov	x0, x19
   118f0:	97fff4a4 	bl	eb80 <lsx_eof@plt>
   118f4:	35000620 	cbnz	w0, 119b8 <lsx_aiffstopread+0x118>
   118f8:	aa1503e1 	mov	x1, x21
   118fc:	aa1303e0 	mov	x0, x19
   11900:	d2800082 	mov	x2, #0x4                   	// #4
   11904:	97fff43f 	bl	ea00 <lsx_readbuf@plt>
   11908:	f100101f 	cmp	x0, #0x4
   1190c:	54000561 	b.ne	119b8 <lsx_aiffstopread+0x118>  // b.any
   11910:	910133e1 	add	x1, sp, #0x4c
   11914:	aa1303e0 	mov	x0, x19
   11918:	94001f1e 	bl	19590 <lsx_readdw>
   1191c:	aa1303e0 	mov	x0, x19
   11920:	97fff498 	bl	eb80 <lsx_eof@plt>
   11924:	350004a0 	cbnz	w0, 119b8 <lsx_aiffstopread+0x118>
   11928:	390153ff 	strb	wzr, [sp, #84]
   1192c:	97fff4d9 	bl	ec90 <sox_get_globals@plt>
   11930:	aa0003e3 	mov	x3, x0
   11934:	b9404fe2 	ldr	w2, [sp, #76]
   11938:	aa1503e1 	mov	x1, x21
   1193c:	aa1703e0 	mov	x0, x23
   11940:	f9002076 	str	x22, [x3, #64]
   11944:	97fff4bf 	bl	ec40 <lsx_warn_impl@plt>
   11948:	d0000261 	adrp	x1, 5f000 <__trunctfdf2+0x140>
   1194c:	aa1503e0 	mov	x0, x21
   11950:	9119e021 	add	x1, x1, #0x678
   11954:	97fff507 	bl	ed70 <strcmp@plt>
   11958:	340000c0 	cbz	w0, 11970 <lsx_aiffstopread+0xd0>
   1195c:	d0000261 	adrp	x1, 5f000 <__trunctfdf2+0x140>
   11960:	aa1503e0 	mov	x0, x21
   11964:	911a0021 	add	x1, x1, #0x680
   11968:	97fff502 	bl	ed70 <strcmp@plt>
   1196c:	350000e0 	cbnz	w0, 11988 <lsx_aiffstopread+0xe8>
   11970:	97fff4c8 	bl	ec90 <sox_get_globals@plt>
   11974:	aa0003e1 	mov	x1, x0
   11978:	d0000260 	adrp	x0, 5f000 <__trunctfdf2+0x140>
   1197c:	9131e000 	add	x0, x0, #0xc78
   11980:	f9002036 	str	x22, [x1, #64]
   11984:	97fff4af 	bl	ec40 <lsx_warn_impl@plt>
   11988:	91012ff4 	add	x20, sp, #0x4b
   1198c:	d503201f 	nop
   11990:	b9404fe2 	ldr	w2, [sp, #76]
   11994:	51000443 	sub	w3, w2, #0x1
   11998:	b9004fe3 	str	w3, [sp, #76]
   1199c:	34fffa82 	cbz	w2, 118ec <lsx_aiffstopread+0x4c>
   119a0:	aa1403e1 	mov	x1, x20
   119a4:	aa1303e0 	mov	x0, x19
   119a8:	94001e7e 	bl	193a0 <lsx_readb>
   119ac:	3100041f 	cmn	w0, #0x1
   119b0:	54ffff01 	b.ne	11990 <lsx_aiffstopread+0xf0>  // b.any
   119b4:	17ffffcd 	b	118e8 <lsx_aiffstopread+0x48>
   119b8:	a9425bf5 	ldp	x21, x22, [sp, #32]
   119bc:	f9401bf7 	ldr	x23, [sp, #48]
   119c0:	d0000460 	adrp	x0, 9f000 <handler.1+0x60>
   119c4:	f947ac00 	ldr	x0, [x0, #3928]
   119c8:	f9402fe2 	ldr	x2, [sp, #88]
   119cc:	f9400001 	ldr	x1, [x0]
   119d0:	eb010042 	subs	x2, x2, x1
   119d4:	d2800001 	mov	x1, #0x0                   	// #0
   119d8:	540000a1 	b.ne	119ec <lsx_aiffstopread+0x14c>  // b.any
   119dc:	52800000 	mov	w0, #0x0                   	// #0
   119e0:	a94153f3 	ldp	x19, x20, [sp, #16]
   119e4:	a8c67bfd 	ldp	x29, x30, [sp], #96
   119e8:	d65f03c0 	ret
   119ec:	a9025bf5 	stp	x21, x22, [sp, #32]
   119f0:	f9001bf7 	str	x23, [sp, #48]
   119f4:	97fff427 	bl	ea90 <__stack_chk_fail@plt>
   119f8:	d503201f 	nop
   119fc:	d503201f 	nop

0000000000011a00 <lsx_aiffstartwrite>:
   11a00:	a9be7bfd 	stp	x29, x30, [sp, #-32]!
   11a04:	52800005 	mov	w5, #0x0                   	// #0
   11a08:	52800004 	mov	w4, #0x0                   	// #0
   11a0c:	910003fd 	mov	x29, sp
   11a10:	52800003 	mov	w3, #0x0                   	// #0
   11a14:	52800002 	mov	w2, #0x0                   	// #0
   11a18:	52800001 	mov	w1, #0x0                   	// #0
   11a1c:	f9000bf3 	str	x19, [sp, #16]
   11a20:	aa0003f3 	mov	x19, x0
   11a24:	94000e53 	bl	15370 <lsx_rawstart>
   11a28:	34000080 	cbz	w0, 11a38 <lsx_aiffstartwrite+0x38>
   11a2c:	f9400bf3 	ldr	x19, [sp, #16]
   11a30:	a8c27bfd 	ldp	x29, x30, [sp], #32
   11a34:	d65f03c0 	ret
   11a38:	b9402e62 	ldr	w2, [x19, #44]
   11a3c:	aa1303e0 	mov	x0, x19
   11a40:	b9401263 	ldr	w3, [x19, #16]
   11a44:	52afe001 	mov	w1, #0x7f000000            	// #2130706432
   11a48:	f9400bf3 	ldr	x19, [sp, #16]
   11a4c:	53037c42 	lsr	w2, w2, #3
   11a50:	a8c27bfd 	ldp	x29, x30, [sp], #32
   11a54:	1b037c42 	mul	w2, w2, w3
   11a58:	1ac20821 	udiv	w1, w1, w2
   11a5c:	92407821 	and	x1, x1, #0x7fffffff
   11a60:	17fff8cd 	b	fd94 <aiffwriteheader>

0000000000011a64 <lsx_aiffstopwrite>:
   11a64:	a9bd7bfd 	stp	x29, x30, [sp, #-48]!
   11a68:	d0000461 	adrp	x1, 9f000 <handler.1+0x60>
   11a6c:	910003fd 	mov	x29, sp
   11a70:	f947ac21 	ldr	x1, [x1, #3928]
   11a74:	f9409402 	ldr	x2, [x0, #296]
   11a78:	f9000bf3 	str	x19, [sp, #16]
   11a7c:	aa0003f3 	mov	x19, x0
   11a80:	f9400023 	ldr	x3, [x1]
   11a84:	f90017e3 	str	x3, [sp, #40]
   11a88:	d2800003 	mov	x3, #0x0                   	// #0
   11a8c:	36000082 	tbz	w2, #0, 11a9c <lsx_aiffstopwrite+0x38>
   11a90:	b9402c01 	ldr	w1, [x0, #44]
   11a94:	7100203f 	cmp	w1, #0x8
   11a98:	540002c0 	b.eq	11af0 <lsx_aiffstopwrite+0x8c>  // b.none
   11a9c:	b9412260 	ldr	w0, [x19, #288]
   11aa0:	34000380 	cbz	w0, 11b10 <lsx_aiffstopwrite+0xac>
   11aa4:	aa1303e0 	mov	x0, x19
   11aa8:	52800002 	mov	w2, #0x0                   	// #0
   11aac:	d2800001 	mov	x1, #0x0                   	// #0
   11ab0:	97fff46c 	bl	ec60 <lsx_seeki@plt>
   11ab4:	350004e0 	cbnz	w0, 11b50 <lsx_aiffstopwrite+0xec>
   11ab8:	d0000460 	adrp	x0, 9f000 <handler.1+0x60>
   11abc:	f947ac00 	ldr	x0, [x0, #3928]
   11ac0:	f94017e2 	ldr	x2, [sp, #40]
   11ac4:	f9400001 	ldr	x1, [x0]
   11ac8:	eb010042 	subs	x2, x2, x1
   11acc:	d2800001 	mov	x1, #0x0                   	// #0
   11ad0:	54000501 	b.ne	11b70 <lsx_aiffstopwrite+0x10c>  // b.any
   11ad4:	b9401261 	ldr	w1, [x19, #16]
   11ad8:	aa1303e0 	mov	x0, x19
   11adc:	f9409662 	ldr	x2, [x19, #296]
   11ae0:	f9400bf3 	ldr	x19, [sp, #16]
   11ae4:	a8c37bfd 	ldp	x29, x30, [sp], #48
   11ae8:	9ac10841 	udiv	x1, x2, x1
   11aec:	17fff8aa 	b	fd94 <aiffwriteheader>
   11af0:	b9401001 	ldr	w1, [x0, #16]
   11af4:	7100043f 	cmp	w1, #0x1
   11af8:	54fffd21 	b.ne	11a9c <lsx_aiffstopwrite+0x38>  // b.any
   11afc:	910093e1 	add	x1, sp, #0x24
   11b00:	d2800022 	mov	x2, #0x1                   	// #1
   11b04:	b90027ff 	str	wzr, [sp, #36]
   11b08:	97fff356 	bl	e860 <lsx_rawwrite@plt>
   11b0c:	17ffffe4 	b	11a9c <lsx_aiffstopwrite+0x38>
   11b10:	d0000262 	adrp	x2, 5f000 <__trunctfdf2+0x140>
   11b14:	aa1303e0 	mov	x0, x19
   11b18:	91328042 	add	x2, x2, #0xca0
   11b1c:	12800001 	mov	w1, #0xffffffff            	// #-1
   11b20:	97fff434 	bl	ebf0 <lsx_fail_errno@plt>
   11b24:	d0000460 	adrp	x0, 9f000 <handler.1+0x60>
   11b28:	f947ac00 	ldr	x0, [x0, #3928]
   11b2c:	f94017e2 	ldr	x2, [sp, #40]
   11b30:	f9400001 	ldr	x1, [x0]
   11b34:	eb010042 	subs	x2, x2, x1
   11b38:	d2800001 	mov	x1, #0x0                   	// #0
   11b3c:	540001a1 	b.ne	11b70 <lsx_aiffstopwrite+0x10c>  // b.any
   11b40:	12800000 	mov	w0, #0xffffffff            	// #-1
   11b44:	f9400bf3 	ldr	x19, [sp, #16]
   11b48:	a8c37bfd 	ldp	x29, x30, [sp], #48
   11b4c:	d65f03c0 	ret
   11b50:	97fff380 	bl	e950 <__errno_location@plt>
   11b54:	aa0003e1 	mov	x1, x0
   11b58:	d0000262 	adrp	x2, 5f000 <__trunctfdf2+0x140>
   11b5c:	aa1303e0 	mov	x0, x19
   11b60:	9132e042 	add	x2, x2, #0xcb8
   11b64:	b9400021 	ldr	w1, [x1]
   11b68:	97fff422 	bl	ebf0 <lsx_fail_errno@plt>
   11b6c:	17ffffee 	b	11b24 <lsx_aiffstopwrite+0xc0>
   11b70:	97fff3c8 	bl	ea90 <__stack_chk_fail@plt>

0000000000011b74 <lsx_aifcstartwrite>:
   11b74:	a9be7bfd 	stp	x29, x30, [sp, #-32]!
   11b78:	52800005 	mov	w5, #0x0                   	// #0
   11b7c:	52800004 	mov	w4, #0x0                   	// #0
   11b80:	910003fd 	mov	x29, sp
   11b84:	52800003 	mov	w3, #0x0                   	// #0
   11b88:	52800002 	mov	w2, #0x0                   	// #0
   11b8c:	52800001 	mov	w1, #0x0                   	// #0
   11b90:	f9000bf3 	str	x19, [sp, #16]
   11b94:	aa0003f3 	mov	x19, x0
   11b98:	94000df6 	bl	15370 <lsx_rawstart>
   11b9c:	34000080 	cbz	w0, 11bac <lsx_aifcstartwrite+0x38>
   11ba0:	f9400bf3 	ldr	x19, [sp, #16]
   11ba4:	a8c27bfd 	ldp	x29, x30, [sp], #32
   11ba8:	d65f03c0 	ret
   11bac:	b9402e62 	ldr	w2, [x19, #44]
   11bb0:	aa1303e0 	mov	x0, x19
   11bb4:	b9401263 	ldr	w3, [x19, #16]
   11bb8:	52afe001 	mov	w1, #0x7f000000            	// #2130706432
   11bbc:	f9400bf3 	ldr	x19, [sp, #16]
   11bc0:	53037c42 	lsr	w2, w2, #3
   11bc4:	a8c27bfd 	ldp	x29, x30, [sp], #32
   11bc8:	1b037c42 	mul	w2, w2, w3
   11bcc:	1ac20821 	udiv	w1, w1, w2
   11bd0:	92407821 	and	x1, x1, #0x7fffffff
   11bd4:	17fff99f 	b	10250 <aifcwriteheader>
   11bd8:	d503201f 	nop
   11bdc:	d503201f 	nop

0000000000011be0 <lsx_aifcstopwrite>:
   11be0:	a9bd7bfd 	stp	x29, x30, [sp, #-48]!
   11be4:	d0000461 	adrp	x1, 9f000 <handler.1+0x60>
   11be8:	910003fd 	mov	x29, sp
   11bec:	f947ac21 	ldr	x1, [x1, #3928]
   11bf0:	f9409402 	ldr	x2, [x0, #296]
   11bf4:	f9000bf3 	str	x19, [sp, #16]
   11bf8:	aa0003f3 	mov	x19, x0
   11bfc:	f9400023 	ldr	x3, [x1]
   11c00:	f90017e3 	str	x3, [sp, #40]
   11c04:	d2800003 	mov	x3, #0x0                   	// #0
   11c08:	36000082 	tbz	w2, #0, 11c18 <lsx_aifcstopwrite+0x38>
   11c0c:	b9402c01 	ldr	w1, [x0, #44]
   11c10:	7100203f 	cmp	w1, #0x8
   11c14:	540002c0 	b.eq	11c6c <lsx_aifcstopwrite+0x8c>  // b.none
   11c18:	b9412260 	ldr	w0, [x19, #288]
   11c1c:	34000380 	cbz	w0, 11c8c <lsx_aifcstopwrite+0xac>
   11c20:	aa1303e0 	mov	x0, x19
   11c24:	52800002 	mov	w2, #0x0                   	// #0
   11c28:	d2800001 	mov	x1, #0x0                   	// #0
   11c2c:	97fff40d 	bl	ec60 <lsx_seeki@plt>
   11c30:	350004e0 	cbnz	w0, 11ccc <lsx_aifcstopwrite+0xec>
   11c34:	d0000460 	adrp	x0, 9f000 <handler.1+0x60>
   11c38:	f947ac00 	ldr	x0, [x0, #3928]
   11c3c:	f94017e2 	ldr	x2, [sp, #40]
   11c40:	f9400001 	ldr	x1, [x0]
   11c44:	eb010042 	subs	x2, x2, x1
   11c48:	d2800001 	mov	x1, #0x0                   	// #0
   11c4c:	54000501 	b.ne	11cec <lsx_aifcstopwrite+0x10c>  // b.any
   11c50:	b9401261 	ldr	w1, [x19, #16]
   11c54:	aa1303e0 	mov	x0, x19
   11c58:	f9409662 	ldr	x2, [x19, #296]
   11c5c:	f9400bf3 	ldr	x19, [sp, #16]
   11c60:	a8c37bfd 	ldp	x29, x30, [sp], #48
   11c64:	9ac10841 	udiv	x1, x2, x1
   11c68:	17fff97a 	b	10250 <aifcwriteheader>
   11c6c:	b9401001 	ldr	w1, [x0, #16]
   11c70:	7100043f 	cmp	w1, #0x1
   11c74:	54fffd21 	b.ne	11c18 <lsx_aifcstopwrite+0x38>  // b.any
   11c78:	910093e1 	add	x1, sp, #0x24
   11c7c:	d2800022 	mov	x2, #0x1                   	// #1
   11c80:	b90027ff 	str	wzr, [sp, #36]
   11c84:	97fff2f7 	bl	e860 <lsx_rawwrite@plt>
   11c88:	17ffffe4 	b	11c18 <lsx_aifcstopwrite+0x38>
   11c8c:	d0000262 	adrp	x2, 5f000 <__trunctfdf2+0x140>
   11c90:	aa1303e0 	mov	x0, x19
   11c94:	91328042 	add	x2, x2, #0xca0
   11c98:	12800001 	mov	w1, #0xffffffff            	// #-1
   11c9c:	97fff3d5 	bl	ebf0 <lsx_fail_errno@plt>
   11ca0:	d0000460 	adrp	x0, 9f000 <handler.1+0x60>
   11ca4:	f947ac00 	ldr	x0, [x0, #3928]
   11ca8:	f94017e2 	ldr	x2, [sp, #40]
   11cac:	f9400001 	ldr	x1, [x0]
   11cb0:	eb010042 	subs	x2, x2, x1
   11cb4:	d2800001 	mov	x1, #0x0                   	// #0
   11cb8:	540001a1 	b.ne	11cec <lsx_aifcstopwrite+0x10c>  // b.any
   11cbc:	12800000 	mov	w0, #0xffffffff            	// #-1
   11cc0:	f9400bf3 	ldr	x19, [sp, #16]
   11cc4:	a8c37bfd 	ldp	x29, x30, [sp], #48
   11cc8:	d65f03c0 	ret
   11ccc:	97fff321 	bl	e950 <__errno_location@plt>
   11cd0:	aa0003e1 	mov	x1, x0
   11cd4:	d0000262 	adrp	x2, 5f000 <__trunctfdf2+0x140>
   11cd8:	aa1303e0 	mov	x0, x19
   11cdc:	9133a042 	add	x2, x2, #0xce8
   11ce0:	b9400021 	ldr	w1, [x1]
   11ce4:	97fff3c3 	bl	ebf0 <lsx_fail_errno@plt>
   11ce8:	17ffffee 	b	11ca0 <lsx_aifcstopwrite+0xc0>
   11cec:	97fff369 	bl	ea90 <__stack_chk_fail@plt>

0000000000011cf0 <cvsdstartcommon>:
   11cf0:	a9bd7bfd 	stp	x29, x30, [sp, #-48]!
   11cf4:	d2ce0001 	mov	x1, #0x700000000000        	// #123145302310912
   11cf8:	f2e81ae1 	movk	x1, #0x40d7, lsl #48
   11cfc:	910003fd 	mov	x29, sp
   11d00:	fd400402 	ldr	d2, [x0, #8]
   11d04:	9e670021 	fmov	d1, x1
   11d08:	a90153f3 	stp	x19, x20, [sp, #16]
   11d0c:	5287d006 	mov	w6, #0x3e80                	// #16000
   11d10:	d2c80001 	mov	x1, #0x400000000000        	// #70368744177664
   11d14:	1e612050 	fcmpe	d2, d1
   11d18:	a9025bf5 	stp	x21, x22, [sp, #32]
   11d1c:	528fa015 	mov	w21, #0x7d00                	// #32000
   11d20:	f9416813 	ldr	x19, [x0, #720]
   11d24:	52800025 	mov	w5, #0x1                   	// #1
   11d28:	1a9590c6 	csel	w6, w6, w21, ls  // ls = plast
   11d2c:	f2e817e1 	movk	x1, #0x40bf, lsl #48
   11d30:	9e670020 	fmov	d0, x1
   11d34:	2a0503e3 	mov	w3, w5
   11d38:	b901b666 	str	w6, [x19, #436]
   11d3c:	2a0503e1 	mov	w1, w5
   11d40:	b9001005 	str	w5, [x0, #16]
   11d44:	52800344 	mov	w4, #0x1a                  	// #26
   11d48:	52800002 	mov	w2, #0x0                   	// #0
   11d4c:	aa0003f4 	mov	x20, x0
   11d50:	fd000400 	str	d0, [x0, #8]
   11d54:	94000d87 	bl	15370 <lsx_rawstart>
   11d58:	b941b676 	ldr	w22, [x19, #436]
   11d5c:	d2f80d20 	mov	x0, #0xc069000000000000    	// #-4582131145872769024
   11d60:	9e670001 	fmov	d1, x0
   11d64:	d28000a0 	mov	x0, #0x5                   	// #5
   11d68:	f9000260 	str	x0, [x19]
   11d6c:	1e2302c0 	ucvtf	s0, w22
   11d70:	1e22c000 	fcvt	d0, s0
   11d74:	1e601820 	fdiv	d0, d1, d0
   11d78:	97fff142 	bl	e280 <exp@plt>
   11d7c:	1e624000 	fcvt	s0, d0
   11d80:	1ad60ab5 	udiv	w21, w21, w22
   11d84:	d2a7f001 	mov	x1, #0x3f800000            	// #1065353216
   11d88:	f2f7f001 	movk	x1, #0xbf80, lsl #48
   11d8c:	d2800020 	mov	x0, #0x1                   	// #1
   11d90:	f9000e61 	str	x1, [x19, #24]
   11d94:	3906927f 	strb	wzr, [x19, #420]
   11d98:	b9001675 	str	w21, [x19, #20]
   11d9c:	f900d660 	str	x0, [x19, #424]
   11da0:	b901b27f 	str	wzr, [x19, #432]
   11da4:	bd000a60 	str	s0, [x19, #8]
   11da8:	97fff3ba 	bl	ec90 <sox_get_globals@plt>
   11dac:	b9404282 	ldr	w2, [x20, #64]
   11db0:	d0000261 	adrp	x1, 5f000 <__trunctfdf2+0x140>
   11db4:	9134e021 	add	x1, x1, #0xd38
   11db8:	a94153f3 	ldp	x19, x20, [sp, #16]
   11dbc:	f9002001 	str	x1, [x0, #64]
   11dc0:	2a1603e1 	mov	w1, w22
   11dc4:	7100005f 	cmp	w2, #0x0
   11dc8:	a9425bf5 	ldp	x21, x22, [sp, #32]
   11dcc:	d0000262 	adrp	x2, 5f000 <__trunctfdf2+0x140>
   11dd0:	a8c37bfd 	ldp	x29, x30, [sp], #48
   11dd4:	9134a040 	add	x0, x2, #0xd28
   11dd8:	d0000262 	adrp	x2, 5f000 <__trunctfdf2+0x140>
   11ddc:	91346042 	add	x2, x2, #0xd18
   11de0:	9a801042 	csel	x2, x2, x0, ne  // ne = any
   11de4:	d0000260 	adrp	x0, 5f000 <__trunctfdf2+0x140>
   11de8:	91350000 	add	x0, x0, #0xd40
   11dec:	17fff389 	b	ec10 <lsx_report_impl@plt>

0000000000011df0 <make_dvms_hdr>:
   11df0:	a9bd7bfd 	stp	x29, x30, [sp, #-48]!
   11df4:	910003fd 	mov	x29, sp
   11df8:	a9025bf5 	stp	x21, x22, [sp, #32]
   11dfc:	aa0003f5 	mov	x21, x0
   11e00:	f9402800 	ldr	x0, [x0, #80]
   11e04:	a90153f3 	stp	x19, x20, [sp, #16]
   11e08:	aa0103f3 	mov	x19, x1
   11e0c:	f9416ab6 	ldr	x22, [x21, #720]
   11e10:	940012cc 	bl	16940 <lsx_cat_comments>
   11e14:	f900027f 	str	xzr, [x19]
   11e18:	aa0003f4 	mov	x20, x0
   11e1c:	b9000a7f 	str	wzr, [x19, #8]
   11e20:	79001a7f 	strh	wzr, [x19, #12]
   11e24:	f94002b5 	ldr	x21, [x21]
   11e28:	aa1503e0 	mov	x0, x21
   11e2c:	97fff4f1 	bl	f1f0 <strlen@plt>
   11e30:	d28001a3 	mov	x3, #0xd                   	// #13
   11e34:	eb03001f 	cmp	x0, x3
   11e38:	aa0003e2 	mov	x2, x0
   11e3c:	aa1503e1 	mov	x1, x21
   11e40:	9a839042 	csel	x2, x2, x3, ls  // ls = plast
   11e44:	aa1303e0 	mov	x0, x19
   11e48:	97fff1a6 	bl	e4e0 <memcpy@plt>
   11e4c:	f9000a7f 	str	xzr, [x19, #16]
   11e50:	97fff390 	bl	ec90 <sox_get_globals@plt>
   11e54:	b9401000 	ldr	w0, [x0, #16]
   11e58:	d2800001 	mov	x1, #0x0                   	// #0
   11e5c:	340003e0 	cbz	w0, 11ed8 <make_dvms_hdr+0xe8>
   11e60:	a901fe61 	stp	x1, xzr, [x19, #24]
   11e64:	5290a3e2 	mov	w2, #0x851f                	// #34079
   11e68:	72aa3d62 	movk	w2, #0x51eb, lsl #16
   11e6c:	b941b6c1 	ldr	w1, [x22, #436]
   11e70:	aa1403e0 	mov	x0, x20
   11e74:	b941b2c3 	ldr	w3, [x22, #432]
   11e78:	91010275 	add	x21, x19, #0x40
   11e7c:	f9001663 	str	x3, [x19, #40]
   11e80:	f9001e7f 	str	xzr, [x19, #56]
   11e84:	9ba27c21 	umull	x1, w1, w2
   11e88:	a9047e7f 	stp	xzr, xzr, [x19, #64]
   11e8c:	d365fc21 	lsr	x1, x1, #37
   11e90:	29067e61 	stp	w1, wzr, [x19, #48]
   11e94:	91014273 	add	x19, x19, #0x50
   11e98:	97fff4d6 	bl	f1f0 <strlen@plt>
   11e9c:	aa0003e2 	mov	x2, x0
   11ea0:	d28001e1 	mov	x1, #0xf                   	// #15
   11ea4:	eb01001f 	cmp	x0, x1
   11ea8:	9a819042 	csel	x2, x2, x1, ls  // ls = plast
   11eac:	aa1503e0 	mov	x0, x21
   11eb0:	aa1403e1 	mov	x1, x20
   11eb4:	97fff18b 	bl	e4e0 <memcpy@plt>
   11eb8:	4f000400 	movi	v0.4s, #0x0
   11ebc:	aa1403e0 	mov	x0, x20
   11ec0:	ad000260 	stp	q0, q0, [x19]
   11ec4:	ad010260 	stp	q0, q0, [x19, #32]
   11ec8:	a94153f3 	ldp	x19, x20, [sp, #16]
   11ecc:	a9425bf5 	ldp	x21, x22, [sp, #32]
   11ed0:	a8c37bfd 	ldp	x29, x30, [sp], #48
   11ed4:	17fff457 	b	f030 <free@plt>
   11ed8:	d2800000 	mov	x0, #0x0                   	// #0
   11edc:	97fff0fd 	bl	e2d0 <time@plt>
   11ee0:	aa0003e1 	mov	x1, x0
   11ee4:	17ffffdf 	b	11e60 <make_dvms_hdr+0x70>
   11ee8:	d503201f 	nop
   11eec:	d503201f 	nop

0000000000011ef0 <dvms_write_header>:
   11ef0:	a9b67bfd 	stp	x29, x30, [sp, #-160]!
   11ef4:	d0000462 	adrp	x2, 9f000 <handler.1+0x60>
   11ef8:	91014026 	add	x6, x1, #0x50
   11efc:	910003fd 	mov	x29, sp
   11f00:	f947ac42 	ldr	x2, [x2, #3928]
   11f04:	a90153f3 	stp	x19, x20, [sp, #16]
   11f08:	910083f4 	add	x20, sp, #0x20
   11f0c:	f9400023 	ldr	x3, [x1]
   11f10:	f9400045 	ldr	x5, [x2]
   11f14:	f9004fe5 	str	x5, [sp, #152]
   11f18:	d2800005 	mov	x5, #0x0                   	// #0
   11f1c:	f90013e3 	str	x3, [sp, #32]
   11f20:	91015be4 	add	x4, sp, #0x56
   11f24:	ad4004c0 	ldp	q0, q1, [x6]
   11f28:	aa0003f3 	mov	x19, x0
   11f2c:	f8406022 	ldur	x2, [x1, #6]
   11f30:	f8006282 	stur	x2, [x20, #6]
   11f34:	79402031 	ldrh	w17, [x1, #16]
   11f38:	910257e5 	add	x5, sp, #0x95
   11f3c:	79402830 	ldrh	w16, [x1, #20]
   11f40:	aa1403e2 	mov	x2, x20
   11f44:	7940402e 	ldrh	w14, [x1, #32]
   11f48:	52800003 	mov	w3, #0x0                   	// #0
   11f4c:	7940482d 	ldrh	w13, [x1, #36]
   11f50:	7940602b 	ldrh	w11, [x1, #48]
   11f54:	b940182f 	ldr	w15, [x1, #24]
   11f58:	b940282c 	ldr	w12, [x1, #40]
   11f5c:	79407820 	ldrh	w0, [x1, #60]
   11f60:	7940682a 	ldrh	w10, [x1, #52]
   11f64:	79005ff1 	strh	w17, [sp, #46]
   11f68:	790063f0 	strh	w16, [sp, #48]
   11f6c:	b80323ef 	stur	w15, [sp, #50]
   11f70:	79006fee 	strh	w14, [sp, #54]
   11f74:	790073ed 	strh	w13, [sp, #56]
   11f78:	b803a3ec 	stur	w12, [sp, #58]
   11f7c:	79007feb 	strh	w11, [sp, #62]
   11f80:	79407027 	ldrh	w7, [x1, #56]
   11f84:	a9442428 	ldp	x8, x9, [x1, #64]
   11f88:	790083ea 	strh	w10, [sp, #64]
   11f8c:	79008be0 	strh	w0, [sp, #68]
   11f90:	91001be0 	add	x0, sp, #0x6
   11f94:	ad000480 	stp	q0, q1, [x4]
   11f98:	ad4104c0 	ldp	q0, q1, [x6, #32]
   11f9c:	a9042408 	stp	x8, x9, [x0, #64]
   11fa0:	790087e7 	strh	w7, [sp, #66]
   11fa4:	ad010480 	stp	q0, q1, [x4, #32]
   11fa8:	38401444 	ldrb	w4, [x2], #1
   11fac:	0b040063 	add	w3, w3, w4
   11fb0:	eb05005f 	cmp	x2, x5
   11fb4:	54ffffa1 	b.ne	11fa8 <dvms_write_header+0xb8>  // b.any
   11fb8:	b9009023 	str	w3, [x1, #144]
   11fbc:	aa1303e0 	mov	x0, x19
   11fc0:	52800002 	mov	w2, #0x0                   	// #0
   11fc4:	d2800001 	mov	x1, #0x0                   	// #0
   11fc8:	79012fe3 	strh	w3, [sp, #150]
   11fcc:	97fff325 	bl	ec60 <lsx_seeki@plt>
   11fd0:	37f80260 	tbnz	w0, #31, 1201c <dvms_write_header+0x12c>
   11fd4:	aa1403e1 	mov	x1, x20
   11fd8:	aa1303e0 	mov	x0, x19
   11fdc:	d2800f02 	mov	x2, #0x78                  	// #120
   11fe0:	97fff2a8 	bl	ea80 <lsx_writebuf@plt>
   11fe4:	aa0003e1 	mov	x1, x0
   11fe8:	52800000 	mov	w0, #0x0                   	// #0
   11fec:	f101e03f 	cmp	x1, #0x78
   11ff0:	54000301 	b.ne	12050 <dvms_write_header+0x160>  // b.any
   11ff4:	d0000461 	adrp	x1, 9f000 <handler.1+0x60>
   11ff8:	f947ac21 	ldr	x1, [x1, #3928]
   11ffc:	f9404fe3 	ldr	x3, [sp, #152]
   12000:	f9400022 	ldr	x2, [x1]
   12004:	eb020063 	subs	x3, x3, x2
   12008:	d2800002 	mov	x2, #0x0                   	// #0
   1200c:	540003c1 	b.ne	12084 <dvms_write_header+0x194>  // b.any
   12010:	a94153f3 	ldp	x19, x20, [sp, #16]
   12014:	a8ca7bfd 	ldp	x29, x30, [sp], #160
   12018:	d65f03c0 	ret
   1201c:	97fff31d 	bl	ec90 <sox_get_globals@plt>
   12020:	b0000261 	adrp	x1, 5f000 <__trunctfdf2+0x140>
   12024:	9134e021 	add	x1, x1, #0xd38
   12028:	f9002001 	str	x1, [x0, #64]
   1202c:	97fff249 	bl	e950 <__errno_location@plt>
   12030:	b9400000 	ldr	w0, [x0]
   12034:	97fff40b 	bl	f060 <strerror@plt>
   12038:	aa0003e1 	mov	x1, x0
   1203c:	b0000260 	adrp	x0, 5f000 <__trunctfdf2+0x140>
   12040:	9135a000 	add	x0, x0, #0xd68
   12044:	97fff2f3 	bl	ec10 <lsx_report_impl@plt>
   12048:	12800000 	mov	w0, #0xffffffff            	// #-1
   1204c:	17ffffea 	b	11ff4 <dvms_write_header+0x104>
   12050:	97fff310 	bl	ec90 <sox_get_globals@plt>
   12054:	b0000261 	adrp	x1, 5f000 <__trunctfdf2+0x140>
   12058:	9134e021 	add	x1, x1, #0xd38
   1205c:	f9002001 	str	x1, [x0, #64]
   12060:	97fff23c 	bl	e950 <__errno_location@plt>
   12064:	b9400000 	ldr	w0, [x0]
   12068:	97fff3fe 	bl	f060 <strerror@plt>
   1206c:	aa0003e1 	mov	x1, x0
   12070:	b0000300 	adrp	x0, 73000 <write_encodings.2+0x1e8>
   12074:	91330000 	add	x0, x0, #0xcc0
   12078:	97fff2e6 	bl	ec10 <lsx_report_impl@plt>
   1207c:	12800000 	mov	w0, #0xffffffff            	// #-1
   12080:	17ffffdd 	b	11ff4 <dvms_write_header+0x104>
   12084:	97fff283 	bl	ea90 <__stack_chk_fail@plt>
   12088:	d503201f 	nop
   1208c:	d503201f 	nop

0000000000012090 <lsx_cvsdstartread>:
   12090:	a9be7bfd 	stp	x29, x30, [sp, #-32]!
   12094:	910003fd 	mov	x29, sp
   12098:	f9000bf3 	str	x19, [sp, #16]
   1209c:	f9416813 	ldr	x19, [x0, #720]
   120a0:	97ffff14 	bl	11cf0 <cvsdstartcommon>
   120a4:	1e2e1000 	fmov	s0, #1.000000000000000000e+00
   120a8:	d0000260 	adrp	x0, 60000 <ima_steps+0xbf0>
   120ac:	d2803002 	mov	x2, #0x180                 	// #384
   120b0:	52800001 	mov	w1, #0x0                   	// #0
   120b4:	bd400a62 	ldr	s2, [x19, #8]
   120b8:	fd401c01 	ldr	d1, [x0, #56]
   120bc:	91008260 	add	x0, x19, #0x20
   120c0:	b900127f 	str	wzr, [x19, #16]
   120c4:	1e223800 	fsub	s0, s0, s2
   120c8:	1e22c000 	fcvt	d0, s0
   120cc:	1e610800 	fmul	d0, d0, d1
   120d0:	1e624000 	fcvt	s0, d0
   120d4:	bd000e60 	str	s0, [x19, #12]
   120d8:	97fff47a 	bl	f2c0 <memset@plt>
   120dc:	528005e1 	mov	w1, #0x2f                  	// #47
   120e0:	b901a261 	str	w1, [x19, #416]
   120e4:	52800000 	mov	w0, #0x0                   	// #0
   120e8:	f9400bf3 	ldr	x19, [sp, #16]
   120ec:	a8c27bfd 	ldp	x29, x30, [sp], #32
   120f0:	d65f03c0 	ret

00000000000120f4 <lsx_cvsdstartwrite>:
   120f4:	a9be7bfd 	stp	x29, x30, [sp, #-32]!
   120f8:	910003fd 	mov	x29, sp
   120fc:	f9000bf3 	str	x19, [sp, #16]
   12100:	f9416813 	ldr	x19, [x0, #720]
   12104:	97fffefb 	bl	11cf0 <cvsdstartcommon>
   12108:	1e2e1000 	fmov	s0, #1.000000000000000000e+00
   1210c:	d0000260 	adrp	x0, 60000 <ima_steps+0xbf0>
   12110:	4f000401 	movi	v1.4s, #0x0
   12114:	91009261 	add	x1, x19, #0x24
   12118:	bd400a63 	ldr	s3, [x19, #8]
   1211c:	528001e2 	mov	w2, #0xf                   	// #15
   12120:	fd401c02 	ldr	d2, [x0, #56]
   12124:	52800080 	mov	w0, #0x4                   	// #4
   12128:	b9001260 	str	w0, [x19, #16]
   1212c:	52800000 	mov	w0, #0x0                   	// #0
   12130:	1e233800 	fsub	s0, s0, s3
   12134:	1e22c000 	fcvt	d0, s0
   12138:	1e620800 	fmul	d0, d0, d2
   1213c:	1e624000 	fcvt	s0, d0
   12140:	bd000e60 	str	s0, [x19, #12]
   12144:	ad000421 	stp	q1, q1, [x1]
   12148:	ad010421 	stp	q1, q1, [x1, #32]
   1214c:	ad020421 	stp	q1, q1, [x1, #64]
   12150:	ad030421 	stp	q1, q1, [x1, #96]
   12154:	b900227f 	str	wzr, [x19, #32]
   12158:	b900a662 	str	w2, [x19, #164]
   1215c:	f9400bf3 	ldr	x19, [sp, #16]
   12160:	a8c27bfd 	ldp	x29, x30, [sp], #32
   12164:	d65f03c0 	ret
   12168:	d503201f 	nop
   1216c:	d503201f 	nop

0000000000012170 <lsx_cvsdstopwrite>:
   12170:	a9be7bfd 	stp	x29, x30, [sp, #-32]!
   12174:	910003fd 	mov	x29, sp
   12178:	f9000bf3 	str	x19, [sp, #16]
   1217c:	f9416813 	ldr	x19, [x0, #720]
   12180:	b941ae61 	ldr	w1, [x19, #428]
   12184:	350001e1 	cbnz	w1, 121c0 <lsx_cvsdstopwrite+0x50>
   12188:	97fff2c2 	bl	ec90 <sox_get_globals@plt>
   1218c:	2d430660 	ldp	s0, s1, [x19, #24]
   12190:	b0000261 	adrp	x1, 5f000 <__trunctfdf2+0x140>
   12194:	9134e021 	add	x1, x1, #0xd38
   12198:	f9002001 	str	x1, [x0, #64]
   1219c:	b0000260 	adrp	x0, 5f000 <__trunctfdf2+0x140>
   121a0:	91360000 	add	x0, x0, #0xd80
   121a4:	1e22c000 	fcvt	d0, s0
   121a8:	1e22c021 	fcvt	d1, s1
   121ac:	97fff361 	bl	ef30 <lsx_debug_impl@plt>
   121b0:	52800000 	mov	w0, #0x0                   	// #0
   121b4:	f9400bf3 	ldr	x19, [sp, #16]
   121b8:	a8c27bfd 	ldp	x29, x30, [sp], #32
   121bc:	d65f03c0 	ret
   121c0:	39469261 	ldrb	w1, [x19, #420]
   121c4:	97fff1db 	bl	e930 <lsx_writeb@plt>
   121c8:	b941b260 	ldr	w0, [x19, #432]
   121cc:	11000400 	add	w0, w0, #0x1
   121d0:	b901b260 	str	w0, [x19, #432]
   121d4:	17ffffed 	b	12188 <lsx_cvsdstopwrite+0x18>
   121d8:	d503201f 	nop
   121dc:	d503201f 	nop

00000000000121e0 <lsx_cvsdstopread>:
   121e0:	a9be7bfd 	stp	x29, x30, [sp, #-32]!
   121e4:	910003fd 	mov	x29, sp
   121e8:	f9000bf3 	str	x19, [sp, #16]
   121ec:	f9416813 	ldr	x19, [x0, #720]
   121f0:	97fff2a8 	bl	ec90 <sox_get_globals@plt>
   121f4:	aa0003e2 	mov	x2, x0
   121f8:	b0000261 	adrp	x1, 5f000 <__trunctfdf2+0x140>
   121fc:	9134e021 	add	x1, x1, #0xd38
   12200:	b0000260 	adrp	x0, 5f000 <__trunctfdf2+0x140>
   12204:	2d430660 	ldp	s0, s1, [x19, #24]
   12208:	f9002041 	str	x1, [x2, #64]
   1220c:	9136a000 	add	x0, x0, #0xda8
   12210:	1e22c000 	fcvt	d0, s0
   12214:	1e22c021 	fcvt	d1, s1
   12218:	97fff346 	bl	ef30 <lsx_debug_impl@plt>
   1221c:	52800000 	mov	w0, #0x0                   	// #0
   12220:	f9400bf3 	ldr	x19, [sp, #16]
   12224:	a8c27bfd 	ldp	x29, x30, [sp], #32
   12228:	d65f03c0 	ret
   1222c:	d503201f 	nop

0000000000012230 <lsx_cvsdread>:
   12230:	a9b87bfd 	stp	x29, x30, [sp, #-128]!
   12234:	910003fd 	mov	x29, sp
   12238:	a90153f3 	stp	x19, x20, [sp, #16]
   1223c:	a90363f7 	stp	x23, x24, [sp, #48]
   12240:	f9416813 	ldr	x19, [x0, #720]
   12244:	b4002d82 	cbz	x2, 127f4 <lsx_cvsdread+0x5c4>
   12248:	aa0103f4 	mov	x20, x1
   1224c:	529bc441 	mov	w1, #0xde22                	// #56866
   12250:	a9025bf5 	stp	x21, x22, [sp, #32]
   12254:	aa0003f6 	mov	x22, x0
   12258:	529bf160 	mov	w0, #0xdf8b                	// #57227
   1225c:	72a7ea41 	movk	w1, #0x3f52, lsl #16
   12260:	72a7ee80 	movk	w0, #0x3f74, lsl #16
   12264:	6d062fea 	stp	d10, d11, [sp, #96]
   12268:	1e27000b 	fmov	s11, w0
   1226c:	52902f80 	mov	w0, #0x817c                	// #33148
   12270:	6d0737ec 	stp	d12, d13, [sp, #112]
   12274:	1e27002c 	fmov	s12, w1
   12278:	528b79a1 	mov	w1, #0x5bcd                	// #23501
   1227c:	72a7e921 	movk	w1, #0x3f49, lsl #16
   12280:	72a7eb20 	movk	w0, #0x3f59, lsl #16
   12284:	aa0203f5 	mov	x21, x2
   12288:	1e27002a 	fmov	s10, w1
   1228c:	d2800017 	mov	x23, #0x0                   	// #0
   12290:	f90023f9 	str	x25, [sp, #64]
   12294:	6d0527e8 	stp	d8, d9, [sp, #80]
   12298:	1e270009 	fmov	s9, w0
   1229c:	14000122 	b	12724 <lsx_cvsdread+0x4f4>
   122a0:	51000461 	sub	w1, w3, #0x1
   122a4:	1100bc63 	add	w3, w3, #0x2f
   122a8:	1e2141a0 	fneg	s0, s13
   122ac:	f240001f 	tst	x0, #0x1
   122b0:	2a0103e0 	mov	w0, w1
   122b4:	91002063 	add	x3, x3, #0x8
   122b8:	91002002 	add	x2, x0, #0x8
   122bc:	b901a261 	str	w1, [x19, #416]
   122c0:	b9401264 	ldr	w4, [x19, #16]
   122c4:	1e2d0c00 	fcsel	s0, s0, s13, eq  // eq = none
   122c8:	b9401661 	ldr	w1, [x19, #20]
   122cc:	0b010084 	add	w4, w4, w1
   122d0:	bc227a60 	str	s0, [x19, x2, lsl #2]
   122d4:	bc237a60 	str	s0, [x19, x3, lsl #2]
   122d8:	b9001264 	str	w4, [x19, #16]
   122dc:	71000c9f 	cmp	w4, #0x3
   122e0:	540021a9 	b.ls	12714 <lsx_cvsdread+0x4e4>  // b.plast
   122e4:	91008262 	add	x2, x19, #0x20
   122e8:	b941b664 	ldr	w4, [x19, #436]
   122ec:	8b000843 	add	x3, x2, x0, lsl #2
   122f0:	528bb7e1 	mov	w1, #0x5dbf                	// #23999
   122f4:	6b01009f 	cmp	w4, w1
   122f8:	5292e481 	mov	w1, #0x9724                	// #38692
   122fc:	bc607843 	ldr	s3, [x2, x0, lsl #2]
   12300:	528e1f80 	mov	w0, #0x70fc                	// #28924
   12304:	2d568866 	ldp	s6, s2, [x3, #180]
   12308:	72a75200 	movk	w0, #0x3a90, lsl #16
   1230c:	72a75fe1 	movk	w1, #0x3aff, lsl #16
   12310:	1e270000 	fmov	s0, w0
   12314:	1e270021 	fmov	s1, w1
   12318:	529f0c40 	mov	w0, #0xf862                	// #63586
   1231c:	1e222863 	fadd	s3, s3, s2
   12320:	72a77100 	movk	w0, #0x3b88, lsl #16
   12324:	1e208c21 	fcsel	s1, s1, s0, hi  // hi = pmore
   12328:	0f000408 	movi	v8.2s, #0x0
   1232c:	2d409464 	ldp	s4, s5, [x3, #4]
   12330:	1e270000 	fmov	s0, w0
   12334:	529d32c0 	mov	w0, #0xe996                	// #59798
   12338:	52900681 	mov	w1, #0x8034                	// #32820
   1233c:	72a752e0 	movk	w0, #0x3a97, lsl #16
   12340:	1e270002 	fmov	s2, w0
   12344:	528e88e0 	mov	w0, #0x7447                	// #29767
   12348:	1f012068 	fmadd	s8, s3, s1, s8
   1234c:	1e228c00 	fcsel	s0, s0, s2, hi  // hi = pmore
   12350:	1e262884 	fadd	s4, s4, s6
   12354:	72a779e0 	movk	w0, #0x3bcf, lsl #16
   12358:	1e270001 	fmov	s1, w0
   1235c:	5282adc0 	mov	w0, #0x156e                	// #5486
   12360:	bd40b066 	ldr	s6, [x3, #176]
   12364:	72a72880 	movk	w0, #0x3944, lsl #16
   12368:	1e270002 	fmov	s2, w0
   1236c:	1f002088 	fmadd	s8, s4, s0, s8
   12370:	52918ba0 	mov	w0, #0x8c5d                	// #35933
   12374:	1e228c21 	fcsel	s1, s1, s2, hi  // hi = pmore
   12378:	1e2628a5 	fadd	s5, s5, s6
   1237c:	2d419063 	ldp	s3, s4, [x3, #12]
   12380:	72b726e1 	movk	w1, #0xb937, lsl #16
   12384:	bd40ac66 	ldr	s6, [x3, #172]
   12388:	1e270022 	fmov	s2, w1
   1238c:	72a78020 	movk	w0, #0x3c01, lsl #16
   12390:	1e270000 	fmov	s0, w0
   12394:	1f0120a8 	fmadd	s8, s5, s1, s8
   12398:	528db0e0 	mov	w0, #0x6d87                	// #28039
   1239c:	1e228c00 	fcsel	s0, s0, s2, hi  // hi = pmore
   123a0:	1e262863 	fadd	s3, s3, s6
   123a4:	528dba41 	mov	w1, #0x6dd2                	// #28114
   123a8:	72a78160 	movk	w0, #0x3c0b, lsl #16
   123ac:	72a76121 	movk	w1, #0x3b09, lsl #16
   123b0:	1e270001 	fmov	s1, w0
   123b4:	1e270022 	fmov	s2, w1
   123b8:	52959c40 	mov	w0, #0xace2                	// #44258
   123bc:	1f002068 	fmadd	s8, s3, s0, s8
   123c0:	528cd541 	mov	w1, #0x66aa                	// #26282
   123c4:	2d549863 	ldp	s3, s6, [x3, #164]
   123c8:	1e228c21 	fcsel	s1, s1, s2, hi  // hi = pmore
   123cc:	bd401465 	ldr	s5, [x3, #20]
   123d0:	72a77ac1 	movk	w1, #0x3bd6, lsl #16
   123d4:	72a78100 	movk	w0, #0x3c08, lsl #16
   123d8:	1e270022 	fmov	s2, w1
   123dc:	1e262884 	fadd	s4, s4, s6
   123e0:	1e270000 	fmov	s0, w0
   123e4:	1e2328a5 	fadd	s5, s5, s3
   123e8:	5297eb21 	mov	w1, #0xbf59                	// #48985
   123ec:	1e228c00 	fcsel	s0, s0, s2, hi  // hi = pmore
   123f0:	5285c580 	mov	w0, #0x2e2c                	// #11820
   123f4:	72a78321 	movk	w1, #0x3c19, lsl #16
   123f8:	72a781c0 	movk	w0, #0x3c0e, lsl #16
   123fc:	1f012088 	fmadd	s8, s4, s1, s8
   12400:	1e270022 	fmov	s2, w1
   12404:	2d431063 	ldp	s3, s4, [x3, #24]
   12408:	1e270001 	fmov	s1, w0
   1240c:	528466c1 	mov	w1, #0x2336                	// #9014
   12410:	5298c120 	mov	w0, #0xc609                	// #50697
   12414:	1f0020a8 	fmadd	s8, s5, s0, s8
   12418:	1e228c21 	fcsel	s1, s1, s2, hi  // hi = pmore
   1241c:	2d539865 	ldp	s5, s6, [x3, #156]
   12420:	72a78061 	movk	w1, #0x3c03, lsl #16
   12424:	72a78820 	movk	w0, #0x3c41, lsl #16
   12428:	1e270022 	fmov	s2, w1
   1242c:	1e270000 	fmov	s0, w0
   12430:	5280c181 	mov	w1, #0x60c                 	// #1548
   12434:	1e262863 	fadd	s3, s3, s6
   12438:	1e252884 	fadd	s4, s4, s5
   1243c:	1e228c00 	fcsel	s0, s0, s2, hi  // hi = pmore
   12440:	5284ce00 	mov	w0, #0x2670                	// #9840
   12444:	72a794c0 	movk	w0, #0x3ca6, lsl #16
   12448:	72a77ae1 	movk	w1, #0x3bd7, lsl #16
   1244c:	1e270022 	fmov	s2, w1
   12450:	528a1061 	mov	w1, #0x5083                	// #20611
   12454:	1f012068 	fmadd	s8, s3, s1, s8
   12458:	1e270001 	fmov	s1, w0
   1245c:	2d440c65 	ldp	s5, s3, [x3, #32]
   12460:	1e228c21 	fcsel	s1, s1, s2, hi  // hi = pmore
   12464:	5289cc40 	mov	w0, #0x4e62                	// #20066
   12468:	72a78bc1 	movk	w1, #0x3c5e, lsl #16
   1246c:	1f002088 	fmadd	s8, s4, s0, s8
   12470:	1e270022 	fmov	s2, w1
   12474:	2d529864 	ldp	s4, s6, [x3, #148]
   12478:	72a7a200 	movk	w0, #0x3d10, lsl #16
   1247c:	1e270000 	fmov	s0, w0
   12480:	529b9e01 	mov	w1, #0xdcf0                	// #56560
   12484:	52832ca0 	mov	w0, #0x1965                	// #6501
   12488:	72a79f61 	movk	w1, #0x3cfb, lsl #16
   1248c:	1e2628a5 	fadd	s5, s5, s6
   12490:	1e228c00 	fcsel	s0, s0, s2, hi  // hi = pmore
   12494:	1e242863 	fadd	s3, s3, s4
   12498:	1e270022 	fmov	s2, w1
   1249c:	72a7ac40 	movk	w0, #0x3d62, lsl #16
   124a0:	529754c1 	mov	w1, #0xbaa6                	// #47782
   124a4:	72a7a801 	movk	w1, #0x3d40, lsl #16
   124a8:	b0000498 	adrp	x24, a3000 <handler.1+0x38>
   124ac:	1f0120a8 	fmadd	s8, s5, s1, s8
   124b0:	1e270001 	fmov	s1, w0
   124b4:	2d451464 	ldp	s4, s5, [x3, #40]
   124b8:	1e228c21 	fcsel	s1, s1, s2, hi  // hi = pmore
   124bc:	528ad700 	mov	w0, #0x56b8                	// #22200
   124c0:	1e270022 	fmov	s2, w1
   124c4:	1f002068 	fmadd	s8, s3, s0, s8
   124c8:	72a7b360 	movk	w0, #0x3d9b, lsl #16
   124cc:	2d519863 	ldp	s3, s6, [x3, #140]
   124d0:	1e270000 	fmov	s0, w0
   124d4:	5299f4e1 	mov	w1, #0xcfa7                	// #53159
   124d8:	52921d60 	mov	w0, #0x90eb                	// #37099
   124dc:	1e228c00 	fcsel	s0, s0, s2, hi  // hi = pmore
   124e0:	72a7b760 	movk	w0, #0x3dbb, lsl #16
   124e4:	1e262884 	fadd	s4, s4, s6
   124e8:	1e2328a5 	fadd	s5, s5, s3
   124ec:	72a7a9c1 	movk	w1, #0x3d4e, lsl #16
   124f0:	1e270022 	fmov	s2, w1
   124f4:	52833d61 	mov	w1, #0x19eb                	// #6635
   124f8:	b0000279 	adrp	x25, 5f000 <__trunctfdf2+0x140>
   124fc:	72a7a841 	movk	w1, #0x3d42, lsl #16
   12500:	9134e339 	add	x25, x25, #0xd38
   12504:	1f012088 	fmadd	s8, s4, s1, s8
   12508:	1e270001 	fmov	s1, w0
   1250c:	2d461063 	ldp	s3, s4, [x3, #48]
   12510:	1e228c21 	fcsel	s1, s1, s2, hi  // hi = pmore
   12514:	52875a40 	mov	w0, #0x3ad2                	// #15058
   12518:	1e270022 	fmov	s2, w1
   1251c:	1f0020a8 	fmadd	s8, s5, s0, s8
   12520:	72a7b940 	movk	w0, #0x3dca, lsl #16
   12524:	2d509865 	ldp	s5, s6, [x3, #132]
   12528:	1e270000 	fmov	s0, w0
   1252c:	5294e0a1 	mov	w1, #0xa705                	// #42757
   12530:	529a1880 	mov	w0, #0xd0c4                	// #53444
   12534:	1e228c00 	fcsel	s0, s0, s2, hi  // hi = pmore
   12538:	72a7b940 	movk	w0, #0x3dca, lsl #16
   1253c:	1e262863 	fadd	s3, s3, s6
   12540:	1e252884 	fadd	s4, s4, s5
   12544:	72a7afc1 	movk	w1, #0x3d7e, lsl #16
   12548:	1e270022 	fmov	s2, w1
   1254c:	528ef5e1 	mov	w1, #0x77af                	// #30639
   12550:	72a7bbe1 	movk	w1, #0x3ddf, lsl #16
   12554:	1f012068 	fmadd	s8, s3, s1, s8
   12558:	1e270001 	fmov	s1, w0
   1255c:	2d470c65 	ldp	s5, s3, [x3, #56]
   12560:	1e228c21 	fcsel	s1, s1, s2, hi  // hi = pmore
   12564:	528df1e0 	mov	w0, #0x6f8f                	// #28559
   12568:	1e270022 	fmov	s2, w1
   1256c:	1f002088 	fmadd	s8, s4, s0, s8
   12570:	72a7b9e0 	movk	w0, #0x3dcf, lsl #16
   12574:	2d4f9864 	ldp	s4, s6, [x3, #124]
   12578:	1e270000 	fmov	s0, w0
   1257c:	52843021 	mov	w1, #0x2181                	// #8577
   12580:	529c1f00 	mov	w0, #0xe0f8                	// #57592
   12584:	1e228c00 	fcsel	s0, s0, s2, hi  // hi = pmore
   12588:	72a7bea0 	movk	w0, #0x3df5, lsl #16
   1258c:	1e2628a5 	fadd	s5, s5, s6
   12590:	1e242863 	fadd	s3, s3, s4
   12594:	72a7c561 	movk	w1, #0x3e2b, lsl #16
   12598:	1e270022 	fmov	s2, w1
   1259c:	529c03c1 	mov	w1, #0xe01e                	// #57374
   125a0:	72a7c921 	movk	w1, #0x3e49, lsl #16
   125a4:	1f0120a8 	fmadd	s8, s5, s1, s8
   125a8:	1e270001 	fmov	s1, w0
   125ac:	2d481464 	ldp	s4, s5, [x3, #64]
   125b0:	1e228c21 	fcsel	s1, s1, s2, hi  // hi = pmore
   125b4:	52989480 	mov	w0, #0xc4a4                	// #50340
   125b8:	1e270022 	fmov	s2, w1
   125bc:	1f002068 	fmadd	s8, s3, s0, s8
   125c0:	72a7c5c0 	movk	w0, #0x3e2e, lsl #16
   125c4:	2d4e9863 	ldp	s3, s6, [x3, #116]
   125c8:	1e270000 	fmov	s0, w0
   125cc:	528531a1 	mov	w1, #0x298d                	// #10637
   125d0:	528a1060 	mov	w0, #0x5083                	// #20611
   125d4:	1e228c00 	fcsel	s0, s0, s2, hi  // hi = pmore
   125d8:	72a7d0c0 	movk	w0, #0x3e86, lsl #16
   125dc:	1e262884 	fadd	s4, s4, s6
   125e0:	1e2328a5 	fadd	s5, s5, s3
   125e4:	72a7c901 	movk	w1, #0x3e48, lsl #16
   125e8:	1e270022 	fmov	s2, w1
   125ec:	528db501 	mov	w1, #0x6da8                	// #28072
   125f0:	72a7cc61 	movk	w1, #0x3e63, lsl #16
   125f4:	1f012088 	fmadd	s8, s4, s1, s8
   125f8:	1e270001 	fmov	s1, w0
   125fc:	2d491063 	ldp	s3, s4, [x3, #72]
   12600:	1e228c21 	fcsel	s1, s1, s2, hi  // hi = pmore
   12604:	52974c40 	mov	w0, #0xba62                	// #47714
   12608:	1e270022 	fmov	s2, w1
   1260c:	1f0020a8 	fmadd	s8, s5, s0, s8
   12610:	72a7d900 	movk	w0, #0x3ec8, lsl #16
   12614:	2d4d9865 	ldp	s5, s6, [x3, #108]
   12618:	1e270000 	fmov	s0, w0
   1261c:	52942461 	mov	w1, #0xa123                	// #41251
   12620:	529ae820 	mov	w0, #0xd741                	// #55105
   12624:	1e228c00 	fcsel	s0, s0, s2, hi  // hi = pmore
   12628:	72a7e140 	movk	w0, #0x3f0a, lsl #16
   1262c:	1e262863 	fadd	s3, s3, s6
   12630:	72a7d6a1 	movk	w1, #0x3eb5, lsl #16
   12634:	1e270022 	fmov	s2, w1
   12638:	1e252884 	fadd	s4, s4, s5
   1263c:	528c83e1 	mov	w1, #0x641f                	// #25631
   12640:	72a7e321 	movk	w1, #0x3f19, lsl #16
   12644:	1f012068 	fmadd	s8, s3, s1, s8
   12648:	1e270001 	fmov	s1, w0
   1264c:	2d4a0c65 	ldp	s5, s3, [x3, #80]
   12650:	1e228c21 	fcsel	s1, s1, s2, hi  // hi = pmore
   12654:	2d4c9862 	ldp	s2, s6, [x3, #100]
   12658:	1f002088 	fmadd	s8, s4, s0, s8
   1265c:	52875360 	mov	w0, #0x3a9b                	// #15003
   12660:	1e270024 	fmov	s4, w1
   12664:	72a7e5e0 	movk	w0, #0x3f2f, lsl #16
   12668:	1e270000 	fmov	s0, w0
   1266c:	1e2628a5 	fadd	s5, s5, s6
   12670:	1e222863 	fadd	s3, s3, s2
   12674:	1e248c00 	fcsel	s0, s0, s4, hi  // hi = pmore
   12678:	bd405862 	ldr	s2, [x3, #88]
   1267c:	bd406066 	ldr	s6, [x3, #96]
   12680:	bd405c64 	ldr	s4, [x3, #92]
   12684:	1f0120a8 	fmadd	s8, s5, s1, s8
   12688:	1e298d45 	fcsel	s5, s10, s9, hi  // hi = pmore
   1268c:	1e2b8d81 	fcsel	s1, s12, s11, hi  // hi = pmore
   12690:	1f002068 	fmadd	s8, s3, s0, s8
   12694:	1e262840 	fadd	s0, s2, s6
   12698:	1f052008 	fmadd	s8, s0, s5, s8
   1269c:	1f012088 	fmadd	s8, s4, s1, s8
   126a0:	97fff17c 	bl	ec90 <sox_get_globals@plt>
   126a4:	aa0003e2 	mov	x2, x0
   126a8:	1e22c1a0 	fcvt	d0, s13
   126ac:	b943df01 	ldr	w1, [x24, #988]
   126b0:	b0000260 	adrp	x0, 5f000 <__trunctfdf2+0x140>
   126b4:	91374000 	add	x0, x0, #0xdd0
   126b8:	f9002059 	str	x25, [x2, #64]
   126bc:	97ffefdd 	bl	e630 <lsx_debug_more_impl@plt>
   126c0:	97fff174 	bl	ec90 <sox_get_globals@plt>
   126c4:	aa0003e2 	mov	x2, x0
   126c8:	1e22c100 	fcvt	d0, s8
   126cc:	b943df01 	ldr	w1, [x24, #988]
   126d0:	b0000260 	adrp	x0, 5f000 <__trunctfdf2+0x140>
   126d4:	91378000 	add	x0, x0, #0xde0
   126d8:	f9002059 	str	x25, [x2, #64]
   126dc:	97ffefd5 	bl	e630 <lsx_debug_more_impl@plt>
   126e0:	bd401e60 	ldr	s0, [x19, #28]
   126e4:	b943df00 	ldr	w0, [x24, #988]
   126e8:	1e282010 	fcmpe	s0, s8
   126ec:	11000400 	add	w0, w0, #0x1
   126f0:	b903df00 	str	w0, [x24, #988]
   126f4:	54000684 	b.mi	127c4 <lsx_cvsdread+0x594>  // b.first
   126f8:	bd401a60 	ldr	s0, [x19, #24]
   126fc:	1e282010 	fcmpe	s0, s8
   12700:	540005ec 	b.gt	127bc <lsx_cvsdread+0x58c>
   12704:	1e188500 	fcvtzs	w0, s8, #31
   12708:	910006f7 	add	x23, x23, #0x1
   1270c:	b8004680 	str	w0, [x20], #4
   12710:	b9401264 	ldr	w4, [x19, #16]
   12714:	12000484 	and	w4, w4, #0x3
   12718:	b9001264 	str	w4, [x19, #16]
   1271c:	eb1502ff 	cmp	x23, x21
   12720:	54000562 	b.cs	127cc <lsx_cvsdread+0x59c>  // b.hs, b.nlast
   12724:	b941ae61 	ldr	w1, [x19, #428]
   12728:	34000361 	cbz	w1, 12794 <lsx_cvsdread+0x564>
   1272c:	b941aa62 	ldr	w2, [x19, #424]
   12730:	51000421 	sub	w1, w1, #0x1
   12734:	531f7844 	lsl	w4, w2, #1
   12738:	2d40826d 	ldp	s13, s0, [x19, #4]
   1273c:	b901aa64 	str	w4, [x19, #424]
   12740:	39469265 	ldrb	w5, [x19, #420]
   12744:	d2801023 	mov	x3, #0x81                  	// #129
   12748:	b9400260 	ldr	w0, [x19]
   1274c:	1e2009ad 	fmul	s13, s13, s0
   12750:	6a0200bf 	tst	w5, w2
   12754:	1a9f07e2 	cset	w2, ne  // ne = any
   12758:	b901ae61 	str	w1, [x19, #428]
   1275c:	2a000440 	orr	w0, w2, w0, lsl #1
   12760:	12000801 	and	w1, w0, #0x7
   12764:	b9000261 	str	w1, [x19]
   12768:	bd00066d 	str	s13, [x19, #4]
   1276c:	9ac12461 	lsr	x1, x3, x1
   12770:	36000081 	tbz	w1, #0, 12780 <lsx_cvsdread+0x550>
   12774:	bd400e60 	ldr	s0, [x19, #12]
   12778:	1e2029ad 	fadd	s13, s13, s0
   1277c:	bd00066d 	str	s13, [x19, #4]
   12780:	b941a263 	ldr	w3, [x19, #416]
   12784:	35ffd8e3 	cbnz	w3, 122a0 <lsx_cvsdread+0x70>
   12788:	d2800be3 	mov	x3, #0x5f                  	// #95
   1278c:	528005e1 	mov	w1, #0x2f                  	// #47
   12790:	17fffec6 	b	122a8 <lsx_cvsdread+0x78>
   12794:	d2800022 	mov	x2, #0x1                   	// #1
   12798:	91069261 	add	x1, x19, #0x1a4
   1279c:	aa1603e0 	mov	x0, x22
   127a0:	97fff18c 	bl	edd0 <lsx_read_b_buf@plt>
   127a4:	aa0003e2 	mov	x2, x0
   127a8:	f100041f 	cmp	x0, #0x1
   127ac:	54000101 	b.ne	127cc <lsx_cvsdread+0x59c>  // b.any
   127b0:	52800044 	mov	w4, #0x2                   	// #2
   127b4:	528000e1 	mov	w1, #0x7                   	// #7
   127b8:	17ffffe0 	b	12738 <lsx_cvsdread+0x508>
   127bc:	bd001a68 	str	s8, [x19, #24]
   127c0:	17ffffd1 	b	12704 <lsx_cvsdread+0x4d4>
   127c4:	bd001e68 	str	s8, [x19, #28]
   127c8:	17ffffcc 	b	126f8 <lsx_cvsdread+0x4c8>
   127cc:	a9425bf5 	ldp	x21, x22, [sp, #32]
   127d0:	f94023f9 	ldr	x25, [sp, #64]
   127d4:	6d4527e8 	ldp	d8, d9, [sp, #80]
   127d8:	6d462fea 	ldp	d10, d11, [sp, #96]
   127dc:	6d4737ec 	ldp	d12, d13, [sp, #112]
   127e0:	aa1703e0 	mov	x0, x23
   127e4:	a94153f3 	ldp	x19, x20, [sp, #16]
   127e8:	a94363f7 	ldp	x23, x24, [sp, #48]
   127ec:	a8c87bfd 	ldp	x29, x30, [sp], #128
   127f0:	d65f03c0 	ret
   127f4:	d2800017 	mov	x23, #0x0                   	// #0
   127f8:	17fffffa 	b	127e0 <lsx_cvsdread+0x5b0>
   127fc:	d503201f 	nop

0000000000012800 <lsx_cvsdwrite>:
   12800:	a9b97bfd 	stp	x29, x30, [sp, #-112]!
   12804:	910003fd 	mov	x29, sp
   12808:	a90153f3 	stp	x19, x20, [sp, #16]
   1280c:	aa0103f4 	mov	x20, x1
   12810:	f9416813 	ldr	x19, [x0, #720]
   12814:	a90363f7 	stp	x23, x24, [sp, #48]
   12818:	aa0003f8 	mov	x24, x0
   1281c:	a9025bf5 	stp	x21, x22, [sp, #32]
   12820:	f0000456 	adrp	x22, 9d000 <__FRAME_END__+0x18ddc>
   12824:	b9401260 	ldr	w0, [x19, #16]
   12828:	9113e2d6 	add	x22, x22, #0x4f8
   1282c:	a9046bf9 	stp	x25, x26, [sp, #64]
   12830:	aa0203f7 	mov	x23, x2
   12834:	f9002bfb 	str	x27, [sp, #80]
   12838:	910042d9 	add	x25, x22, #0x10
   1283c:	6d0627e8 	stp	d8, d9, [sp, #96]
   12840:	d2800015 	mov	x21, #0x0                   	// #0
   12844:	0f016609 	movi	v9.2s, #0x30, lsl #24
   12848:	71000c1f 	cmp	w0, #0x3
   1284c:	54000e88 	b.hi	12a1c <lsx_cvsdwrite+0x21c>  // b.pmore
   12850:	b940a664 	ldr	w4, [x19, #164]
   12854:	12000402 	and	w2, w0, #0x3
   12858:	b941b665 	ldr	w5, [x19, #436]
   1285c:	91009263 	add	x3, x19, #0x24
   12860:	b9001262 	str	w2, [x19, #16]
   12864:	528bb7e1 	mov	w1, #0x5dbf                	// #23999
   12868:	d37ef484 	lsl	x4, x4, #2
   1286c:	8b040063 	add	x3, x3, x4
   12870:	6b0100bf 	cmp	w5, w1
   12874:	54001068 	b.hi	12a80 <lsx_cvsdwrite+0x280>  // b.pmore
   12878:	d3410400 	ubfx	x0, x0, #1, #1
   1287c:	f8607ac0 	ldr	x0, [x22, x0, lsl #3]
   12880:	0f000408 	movi	v8.2s, #0x0
   12884:	2d400800 	ldp	s0, s2, [x0]
   12888:	d2801021 	mov	x1, #0x81                  	// #129
   1288c:	2d400c61 	ldp	s1, s3, [x3]
   12890:	2d419810 	ldp	s16, s6, [x0, #12]
   12894:	1f002028 	fmadd	s8, s1, s0, s8
   12898:	bd400800 	ldr	s0, [x0, #8]
   1289c:	bd400861 	ldr	s1, [x3, #8]
   128a0:	2d419c71 	ldp	s17, s7, [x3, #12]
   128a4:	1f022068 	fmadd	s8, s3, s2, s8
   128a8:	bd401404 	ldr	s4, [x0, #20]
   128ac:	bd401465 	ldr	s5, [x3, #20]
   128b0:	bd401802 	ldr	s2, [x0, #24]
   128b4:	bd401863 	ldr	s3, [x3, #24]
   128b8:	1f002028 	fmadd	s8, s1, s0, s8
   128bc:	bd401c00 	ldr	s0, [x0, #28]
   128c0:	bd401c61 	ldr	s1, [x3, #28]
   128c4:	2d445819 	ldp	s25, s22, [x0, #32]
   128c8:	1f102228 	fmadd	s8, s17, s16, s8
   128cc:	2d445c7a 	ldp	s26, s23, [x3, #32]
   128d0:	2d454814 	ldp	s20, s18, [x0, #40]
   128d4:	1f0620e8 	fmadd	s8, s7, s6, s8
   128d8:	2d454c75 	ldp	s21, s19, [x3, #40]
   128dc:	2d461810 	ldp	s16, s6, [x0, #48]
   128e0:	1f0420a8 	fmadd	s8, s5, s4, s8
   128e4:	2d461c71 	ldp	s17, s7, [x3, #48]
   128e8:	1f022068 	fmadd	s8, s3, s2, s8
   128ec:	2d470804 	ldp	s4, s2, [x0, #56]
   128f0:	2d470c65 	ldp	s5, s3, [x3, #56]
   128f4:	1f002028 	fmadd	s8, s1, s0, s8
   128f8:	bd402261 	ldr	s1, [x19, #32]
   128fc:	2d40e260 	ldp	s0, s24, [x19, #4]
   12900:	1f192348 	fmadd	s8, s26, s25, s8
   12904:	b9400260 	ldr	w0, [x19]
   12908:	1e380800 	fmul	s0, s0, s24
   1290c:	1f1622e8 	fmadd	s8, s23, s22, s8
   12910:	bd000660 	str	s0, [x19, #4]
   12914:	1f1422a8 	fmadd	s8, s21, s20, s8
   12918:	1f122268 	fmadd	s8, s19, s18, s8
   1291c:	1f102228 	fmadd	s8, s17, s16, s8
   12920:	1f0620e8 	fmadd	s8, s7, s6, s8
   12924:	1f0420a8 	fmadd	s8, s5, s4, s8
   12928:	1f022068 	fmadd	s8, s3, s2, s8
   1292c:	1e282030 	fcmpe	s1, s8
   12930:	1a9f57e3 	cset	w3, mi  // mi = first
   12934:	2a000460 	orr	w0, w3, w0, lsl #1
   12938:	12000803 	and	w3, w0, #0x7
   1293c:	b9000263 	str	w3, [x19]
   12940:	9ac32421 	lsr	x1, x1, x3
   12944:	36000081 	tbz	w1, #0, 12954 <lsx_cvsdwrite+0x154>
   12948:	bd400e62 	ldr	s2, [x19, #12]
   1294c:	1e222800 	fadd	s0, s0, s2
   12950:	bd000660 	str	s0, [x19, #4]
   12954:	bd401e62 	ldr	s2, [x19, #28]
   12958:	1e202050 	fcmpe	s2, s0
   1295c:	54000be4 	b.mi	12ad8 <lsx_cvsdwrite+0x2d8>  // b.first
   12960:	bd401a62 	ldr	s2, [x19, #24]
   12964:	1e202050 	fcmpe	s2, s0
   12968:	5400090c 	b.gt	12a88 <lsx_cvsdwrite+0x288>
   1296c:	36000920 	tbz	w0, #0, 12a90 <lsx_cvsdwrite+0x290>
   12970:	39469261 	ldrb	w1, [x19, #420]
   12974:	1e202820 	fadd	s0, s1, s0
   12978:	b941aa60 	ldr	w0, [x19, #424]
   1297c:	2a010000 	orr	w0, w0, w1
   12980:	39069260 	strb	w0, [x19, #420]
   12984:	b941ae60 	ldr	w0, [x19, #428]
   12988:	bd002260 	str	s0, [x19, #32]
   1298c:	11000400 	add	w0, w0, #0x1
   12990:	b901ae60 	str	w0, [x19, #428]
   12994:	71001c1f 	cmp	w0, #0x7
   12998:	540008a8 	b.hi	12aac <lsx_cvsdwrite+0x2ac>  // b.pmore
   1299c:	b941aa60 	ldr	w0, [x19, #424]
   129a0:	531f7800 	lsl	w0, w0, #1
   129a4:	b901aa60 	str	w0, [x19, #424]
   129a8:	b9401660 	ldr	w0, [x19, #20]
   129ac:	b000049a 	adrp	x26, a3000 <handler.1+0x38>
   129b0:	b000027b 	adrp	x27, 5f000 <__trunctfdf2+0x140>
   129b4:	9134e37b 	add	x27, x27, #0xd38
   129b8:	0b020000 	add	w0, w0, w2
   129bc:	b9001260 	str	w0, [x19, #16]
   129c0:	97fff0b4 	bl	ec90 <sox_get_globals@plt>
   129c4:	aa0003e2 	mov	x2, x0
   129c8:	1e22c100 	fcvt	d0, s8
   129cc:	b943df41 	ldr	w1, [x26, #988]
   129d0:	b0000260 	adrp	x0, 5f000 <__trunctfdf2+0x140>
   129d4:	91374000 	add	x0, x0, #0xdd0
   129d8:	f900205b 	str	x27, [x2, #64]
   129dc:	97ffef15 	bl	e630 <lsx_debug_more_impl@plt>
   129e0:	97fff0ac 	bl	ec90 <sox_get_globals@plt>
   129e4:	aa0003e2 	mov	x2, x0
   129e8:	bd402260 	ldr	s0, [x19, #32]
   129ec:	b0000260 	adrp	x0, 5f000 <__trunctfdf2+0x140>
   129f0:	b943df41 	ldr	w1, [x26, #988]
   129f4:	91378000 	add	x0, x0, #0xde0
   129f8:	f900205b 	str	x27, [x2, #64]
   129fc:	1e22c000 	fcvt	d0, s0
   12a00:	97ffef0c 	bl	e630 <lsx_debug_more_impl@plt>
   12a04:	b943df40 	ldr	w0, [x26, #988]
   12a08:	11000400 	add	w0, w0, #0x1
   12a0c:	b903df40 	str	w0, [x26, #988]
   12a10:	b9401260 	ldr	w0, [x19, #16]
   12a14:	71000c1f 	cmp	w0, #0x3
   12a18:	54fff1c9 	b.ls	12850 <lsx_cvsdwrite+0x50>  // b.plast
   12a1c:	eb1702bf 	cmp	x21, x23
   12a20:	540006a2 	b.cs	12af4 <lsx_cvsdwrite+0x2f4>  // b.hs, b.nlast
   12a24:	b940a661 	ldr	w1, [x19, #164]
   12a28:	340005c1 	cbz	w1, 12ae0 <lsx_cvsdwrite+0x2e0>
   12a2c:	51000422 	sub	w2, w1, #0x1
   12a30:	51000423 	sub	w3, w1, #0x1
   12a34:	11003c21 	add	w1, w1, #0xf
   12a38:	d37ef444 	lsl	x4, x2, #2
   12a3c:	b900a663 	str	w3, [x19, #164]
   12a40:	8b214a61 	add	x1, x19, w1, uxtw #2
   12a44:	8b020a62 	add	x2, x19, x2, lsl #2
   12a48:	b941b665 	ldr	w5, [x19, #436]
   12a4c:	bc404680 	ldr	s0, [x20], #4
   12a50:	91009263 	add	x3, x19, #0x24
   12a54:	910006b5 	add	x21, x21, #0x1
   12a58:	8b040063 	add	x3, x3, x4
   12a5c:	5e21d800 	scvtf	s0, s0
   12a60:	1e290800 	fmul	s0, s0, s9
   12a64:	bd002420 	str	s0, [x1, #36]
   12a68:	528bb7e1 	mov	w1, #0x5dbf                	// #23999
   12a6c:	bd002440 	str	s0, [x2, #36]
   12a70:	12000402 	and	w2, w0, #0x3
   12a74:	b9001262 	str	w2, [x19, #16]
   12a78:	6b0100bf 	cmp	w5, w1
   12a7c:	54ffefe9 	b.ls	12878 <lsx_cvsdwrite+0x78>  // b.plast
   12a80:	f8625b20 	ldr	x0, [x25, w2, uxtw #3]
   12a84:	17ffff7f 	b	12880 <lsx_cvsdwrite+0x80>
   12a88:	bd001a60 	str	s0, [x19, #24]
   12a8c:	3707f720 	tbnz	w0, #0, 12970 <lsx_cvsdwrite+0x170>
   12a90:	1e203821 	fsub	s1, s1, s0
   12a94:	b941ae60 	ldr	w0, [x19, #428]
   12a98:	11000400 	add	w0, w0, #0x1
   12a9c:	b901ae60 	str	w0, [x19, #428]
   12aa0:	bd002261 	str	s1, [x19, #32]
   12aa4:	71001c1f 	cmp	w0, #0x7
   12aa8:	54fff7a9 	b.ls	1299c <lsx_cvsdwrite+0x19c>  // b.plast
   12aac:	39469261 	ldrb	w1, [x19, #420]
   12ab0:	aa1803e0 	mov	x0, x24
   12ab4:	97ffef9f 	bl	e930 <lsx_writeb@plt>
   12ab8:	3906927f 	strb	wzr, [x19, #420]
   12abc:	b941b260 	ldr	w0, [x19, #432]
   12ac0:	d2800021 	mov	x1, #0x1                   	// #1
   12ac4:	b9401262 	ldr	w2, [x19, #16]
   12ac8:	11000400 	add	w0, w0, #0x1
   12acc:	f900d661 	str	x1, [x19, #424]
   12ad0:	b901b260 	str	w0, [x19, #432]
   12ad4:	17ffffb5 	b	129a8 <lsx_cvsdwrite+0x1a8>
   12ad8:	bd001e60 	str	s0, [x19, #28]
   12adc:	17ffffa1 	b	12960 <lsx_cvsdwrite+0x160>
   12ae0:	d2800784 	mov	x4, #0x3c                  	// #60
   12ae4:	528003e1 	mov	w1, #0x1f                  	// #31
   12ae8:	528001e3 	mov	w3, #0xf                   	// #15
   12aec:	d28001e2 	mov	x2, #0xf                   	// #15
   12af0:	17ffffd3 	b	12a3c <lsx_cvsdwrite+0x23c>
   12af4:	aa1503e0 	mov	x0, x21
   12af8:	a94153f3 	ldp	x19, x20, [sp, #16]
   12afc:	a9425bf5 	ldp	x21, x22, [sp, #32]
   12b00:	a94363f7 	ldp	x23, x24, [sp, #48]
   12b04:	a9446bf9 	ldp	x25, x26, [sp, #64]
   12b08:	f9402bfb 	ldr	x27, [sp, #80]
   12b0c:	6d4627e8 	ldp	d8, d9, [sp, #96]
   12b10:	a8c77bfd 	ldp	x29, x30, [sp], #112
   12b14:	d65f03c0 	ret
   12b18:	d503201f 	nop
   12b1c:	d503201f 	nop

0000000000012b20 <lsx_dvmsstartread>:
   12b20:	a9aa7bfd 	stp	x29, x30, [sp, #-352]!
   12b24:	b0000463 	adrp	x3, 9f000 <handler.1+0x60>
   12b28:	d2800f02 	mov	x2, #0x78                  	// #120
   12b2c:	910003fd 	mov	x29, sp
   12b30:	f947ac63 	ldr	x3, [x3, #3928]
   12b34:	a90153f3 	stp	x19, x20, [sp, #16]
   12b38:	910383f3 	add	x19, sp, #0xe0
   12b3c:	f9400064 	ldr	x4, [x3]
   12b40:	f900afe4 	str	x4, [sp, #344]
   12b44:	d2800004 	mov	x4, #0x0                   	// #0
   12b48:	aa0003f4 	mov	x20, x0
   12b4c:	aa1303e1 	mov	x1, x19
   12b50:	97ffefac 	bl	ea00 <lsx_readbuf@plt>
   12b54:	f101e01f 	cmp	x0, #0x78
   12b58:	540017a1 	b.ne	12e4c <lsx_dvmsstartread+0x32c>  // b.any
   12b5c:	aa1303e3 	mov	x3, x19
   12b60:	910557e5 	add	x5, sp, #0x155
   12b64:	a9025bf5 	stp	x21, x22, [sp, #32]
   12b68:	52800016 	mov	w22, #0x0                   	// #0
   12b6c:	d503201f 	nop
   12b70:	38401464 	ldrb	w4, [x3], #1
   12b74:	0b0402d6 	add	w22, w22, w4
   12b78:	eb05007f 	cmp	x3, x5
   12b7c:	54ffffa1 	b.ne	12b70 <lsx_dvmsstartread+0x50>  // b.any
   12b80:	91045be3 	add	x3, sp, #0x116
   12b84:	91081be2 	add	x2, sp, #0x206
   12b88:	7941dfe0 	ldrh	w0, [sp, #238]
   12b8c:	910123f5 	add	x21, sp, #0x48
   12b90:	910263e1 	add	x1, sp, #0x98
   12b94:	b9005be0 	str	w0, [sp, #88]
   12b98:	ad400c62 	ldp	q2, q3, [x3]
   12b9c:	7941e3e0 	ldrh	w0, [sp, #240]
   12ba0:	f9400264 	ldr	x4, [x19]
   12ba4:	f90027e4 	str	x4, [sp, #72]
   12ba8:	ad410460 	ldp	q0, q1, [x3, #32]
   12bac:	b9005fe0 	str	w0, [sp, #92]
   12bb0:	7941efeb 	ldrh	w11, [sp, #246]
   12bb4:	7941f3ea 	ldrh	w10, [sp, #248]
   12bb8:	7941ffe8 	ldrh	w8, [sp, #254]
   12bbc:	794203e7 	ldrh	w7, [sp, #256]
   12bc0:	794207e6 	ldrh	w6, [sp, #258]
   12bc4:	79420be3 	ldrh	w3, [sp, #260]
   12bc8:	b84f23ec 	ldur	w12, [sp, #242]
   12bcc:	b84fa3e9 	ldur	w9, [sp, #250]
   12bd0:	a9701444 	ldp	x4, x5, [x2, #-256]
   12bd4:	f90033ec 	str	x12, [sp, #96]
   12bd8:	f8406260 	ldur	x0, [x19, #6]
   12bdc:	f80062a0 	stur	x0, [x21, #6]
   12be0:	290d2beb 	stp	w11, w10, [sp, #104]
   12be4:	f9003be9 	str	x9, [sp, #112]
   12be8:	290f1fe8 	stp	w8, w7, [sp, #120]
   12bec:	29100fe6 	stp	w6, w3, [sp, #128]
   12bf0:	a90897e4 	stp	x4, x5, [sp, #136]
   12bf4:	ad000c22 	stp	q2, q3, [x1]
   12bf8:	ad010420 	stp	q0, q1, [x1, #32]
   12bfc:	7942aff3 	ldrh	w19, [sp, #342]
   12c00:	b900dbf3 	str	w19, [sp, #216]
   12c04:	6b1302df 	cmp	w22, w19
   12c08:	540010e1 	b.ne	12e24 <lsx_dvmsstartread+0x304>  // b.any
   12c0c:	fd001be8 	str	d8, [sp, #48]
   12c10:	97fff020 	bl	ec90 <sox_get_globals@plt>
   12c14:	aa0003e2 	mov	x2, x0
   12c18:	b0000273 	adrp	x19, 5f000 <__trunctfdf2+0x140>
   12c1c:	f9400281 	ldr	x1, [x20]
   12c20:	9134e273 	add	x19, x19, #0xd38
   12c24:	b0000260 	adrp	x0, 5f000 <__trunctfdf2+0x140>
   12c28:	9138a000 	add	x0, x0, #0xe28
   12c2c:	f9002053 	str	x19, [x2, #64]
   12c30:	97fff0c0 	bl	ef30 <lsx_debug_impl@plt>
   12c34:	97fff017 	bl	ec90 <sox_get_globals@plt>
   12c38:	aa0003e2 	mov	x2, x0
   12c3c:	aa1503e1 	mov	x1, x21
   12c40:	b0000260 	adrp	x0, 5f000 <__trunctfdf2+0x140>
   12c44:	91394000 	add	x0, x0, #0xe50
   12c48:	f9002053 	str	x19, [x2, #64]
   12c4c:	97fff0b9 	bl	ef30 <lsx_debug_impl@plt>
   12c50:	97fff010 	bl	ec90 <sox_get_globals@plt>
   12c54:	aa0003e2 	mov	x2, x0
   12c58:	b9405be1 	ldr	w1, [sp, #88]
   12c5c:	b0000260 	adrp	x0, 5f000 <__trunctfdf2+0x140>
   12c60:	9139a000 	add	x0, x0, #0xe68
   12c64:	f9002053 	str	x19, [x2, #64]
   12c68:	97fff0b2 	bl	ef30 <lsx_debug_impl@plt>
   12c6c:	97fff009 	bl	ec90 <sox_get_globals@plt>
   12c70:	aa0003e2 	mov	x2, x0
   12c74:	b9405fe1 	ldr	w1, [sp, #92]
   12c78:	b0000260 	adrp	x0, 5f000 <__trunctfdf2+0x140>
   12c7c:	913a0000 	add	x0, x0, #0xe80
   12c80:	f9002053 	str	x19, [x2, #64]
   12c84:	97fff0ab 	bl	ef30 <lsx_debug_impl@plt>
   12c88:	97fff002 	bl	ec90 <sox_get_globals@plt>
   12c8c:	aa0003e1 	mov	x1, x0
   12c90:	910183e0 	add	x0, sp, #0x60
   12c94:	f9002033 	str	x19, [x1, #64]
   12c98:	97ffeeae 	bl	e750 <ctime@plt>
   12c9c:	aa0003e1 	mov	x1, x0
   12ca0:	b0000260 	adrp	x0, 5f000 <__trunctfdf2+0x140>
   12ca4:	913a6000 	add	x0, x0, #0xe98
   12ca8:	97fff0a2 	bl	ef30 <lsx_debug_impl@plt>
   12cac:	97ffeff9 	bl	ec90 <sox_get_globals@plt>
   12cb0:	aa0003e2 	mov	x2, x0
   12cb4:	b9406be1 	ldr	w1, [sp, #104]
   12cb8:	b0000260 	adrp	x0, 5f000 <__trunctfdf2+0x140>
   12cbc:	913aa000 	add	x0, x0, #0xea8
   12cc0:	f9002053 	str	x19, [x2, #64]
   12cc4:	97fff09b 	bl	ef30 <lsx_debug_impl@plt>
   12cc8:	97ffeff2 	bl	ec90 <sox_get_globals@plt>
   12ccc:	aa0003e2 	mov	x2, x0
   12cd0:	b9406fe1 	ldr	w1, [sp, #108]
   12cd4:	b0000260 	adrp	x0, 5f000 <__trunctfdf2+0x140>
   12cd8:	913ae000 	add	x0, x0, #0xeb8
   12cdc:	f9002053 	str	x19, [x2, #64]
   12ce0:	97fff094 	bl	ef30 <lsx_debug_impl@plt>
   12ce4:	97ffefeb 	bl	ec90 <sox_get_globals@plt>
   12ce8:	aa0003e2 	mov	x2, x0
   12cec:	f9403be1 	ldr	x1, [sp, #112]
   12cf0:	b0000260 	adrp	x0, 5f000 <__trunctfdf2+0x140>
   12cf4:	913b2000 	add	x0, x0, #0xec8
   12cf8:	f9002053 	str	x19, [x2, #64]
   12cfc:	97fff08d 	bl	ef30 <lsx_debug_impl@plt>
   12d00:	97ffefe4 	bl	ec90 <sox_get_globals@plt>
   12d04:	aa0003e2 	mov	x2, x0
   12d08:	b9407be1 	ldr	w1, [sp, #120]
   12d0c:	b0000260 	adrp	x0, 5f000 <__trunctfdf2+0x140>
   12d10:	913b6000 	add	x0, x0, #0xed8
   12d14:	f9002053 	str	x19, [x2, #64]
   12d18:	97fff086 	bl	ef30 <lsx_debug_impl@plt>
   12d1c:	97ffefdd 	bl	ec90 <sox_get_globals@plt>
   12d20:	aa0003e2 	mov	x2, x0
   12d24:	b9407fe1 	ldr	w1, [sp, #124]
   12d28:	b0000260 	adrp	x0, 5f000 <__trunctfdf2+0x140>
   12d2c:	913ba000 	add	x0, x0, #0xee8
   12d30:	f9002053 	str	x19, [x2, #64]
   12d34:	97fff07f 	bl	ef30 <lsx_debug_impl@plt>
   12d38:	97ffefd6 	bl	ec90 <sox_get_globals@plt>
   12d3c:	aa0003e2 	mov	x2, x0
   12d40:	b94083e1 	ldr	w1, [sp, #128]
   12d44:	b0000260 	adrp	x0, 5f000 <__trunctfdf2+0x140>
   12d48:	913be000 	add	x0, x0, #0xef8
   12d4c:	f9002053 	str	x19, [x2, #64]
   12d50:	97fff078 	bl	ef30 <lsx_debug_impl@plt>
   12d54:	97ffefcf 	bl	ec90 <sox_get_globals@plt>
   12d58:	aa0003e2 	mov	x2, x0
   12d5c:	b94087e1 	ldr	w1, [sp, #132]
   12d60:	b0000260 	adrp	x0, 5f000 <__trunctfdf2+0x140>
   12d64:	913c2000 	add	x0, x0, #0xf08
   12d68:	f9002053 	str	x19, [x2, #64]
   12d6c:	97fff071 	bl	ef30 <lsx_debug_impl@plt>
   12d70:	97ffefc8 	bl	ec90 <sox_get_globals@plt>
   12d74:	aa0003e2 	mov	x2, x0
   12d78:	910223e1 	add	x1, sp, #0x88
   12d7c:	b0000260 	adrp	x0, 5f000 <__trunctfdf2+0x140>
   12d80:	913c6000 	add	x0, x0, #0xf18
   12d84:	f9002053 	str	x19, [x2, #64]
   12d88:	97fff06a 	bl	ef30 <lsx_debug_impl@plt>
   12d8c:	b9407bf5 	ldr	w21, [sp, #120]
   12d90:	d2c80001 	mov	x1, #0x400000000000        	// #70368744177664
   12d94:	d2c80000 	mov	x0, #0x400000000000        	// #70368744177664
   12d98:	7103c2bf 	cmp	w21, #0xf0
   12d9c:	f2e819e1 	movk	x1, #0x40cf, lsl #48
   12da0:	f2e81be0 	movk	x0, #0x40df, lsl #48
   12da4:	9e670028 	fmov	d8, x1
   12da8:	9e670000 	fmov	d0, x0
   12dac:	1e603d08 	fcsel	d8, d8, d0, cc  // cc = lo, ul, last
   12db0:	fd000688 	str	d8, [x20, #8]
   12db4:	97ffefb7 	bl	ec90 <sox_get_globals@plt>
   12db8:	52800c82 	mov	w2, #0x64                  	// #100
   12dbc:	d2e80b21 	mov	x1, #0x4059000000000000    	// #4636737291354636288
   12dc0:	9e670022 	fmov	d2, x1
   12dc4:	1e604100 	fmov	d0, d8
   12dc8:	1b027ea1 	mul	w1, w21, w2
   12dcc:	f9002013 	str	x19, [x0, #64]
   12dd0:	b0000260 	adrp	x0, 5f000 <__trunctfdf2+0x140>
   12dd4:	913d4000 	add	x0, x0, #0xf50
   12dd8:	1e630021 	ucvtf	d1, w1
   12ddc:	1e613901 	fsub	d1, d8, d1
   12de0:	1e620821 	fmul	d1, d1, d2
   12de4:	1e681821 	fdiv	d1, d1, d8
   12de8:	97fff052 	bl	ef30 <lsx_debug_impl@plt>
   12dec:	aa1403e0 	mov	x0, x20
   12df0:	97fffca8 	bl	12090 <lsx_cvsdstartread>
   12df4:	a9425bf5 	ldp	x21, x22, [sp, #32]
   12df8:	fd401be8 	ldr	d8, [sp, #48]
   12dfc:	b0000461 	adrp	x1, 9f000 <handler.1+0x60>
   12e00:	f947ac21 	ldr	x1, [x1, #3928]
   12e04:	f940afe3 	ldr	x3, [sp, #344]
   12e08:	f9400022 	ldr	x2, [x1]
   12e0c:	eb020063 	subs	x3, x3, x2
   12e10:	d2800002 	mov	x2, #0x0                   	// #0
   12e14:	540002a1 	b.ne	12e68 <lsx_dvmsstartread+0x348>  // b.any
   12e18:	a94153f3 	ldp	x19, x20, [sp, #16]
   12e1c:	a8d67bfd 	ldp	x29, x30, [sp], #352
   12e20:	d65f03c0 	ret
   12e24:	97ffef9b 	bl	ec90 <sox_get_globals@plt>
   12e28:	b0000263 	adrp	x3, 5f000 <__trunctfdf2+0x140>
   12e2c:	9134e063 	add	x3, x3, #0xd38
   12e30:	f9002003 	str	x3, [x0, #64]
   12e34:	2a1603e2 	mov	w2, w22
   12e38:	2a1303e1 	mov	w1, w19
   12e3c:	b0000260 	adrp	x0, 5f000 <__trunctfdf2+0x140>
   12e40:	9137c000 	add	x0, x0, #0xdf0
   12e44:	97ffef73 	bl	ec10 <lsx_report_impl@plt>
   12e48:	a9425bf5 	ldp	x21, x22, [sp, #32]
   12e4c:	aa1403e0 	mov	x0, x20
   12e50:	b0000262 	adrp	x2, 5f000 <__trunctfdf2+0x140>
   12e54:	5280fa01 	mov	w1, #0x7d0                 	// #2000
   12e58:	913cc042 	add	x2, x2, #0xf30
   12e5c:	97ffef65 	bl	ebf0 <lsx_fail_errno@plt>
   12e60:	12800000 	mov	w0, #0xffffffff            	// #-1
   12e64:	17ffffe6 	b	12dfc <lsx_dvmsstartread+0x2dc>
   12e68:	a9025bf5 	stp	x21, x22, [sp, #32]
   12e6c:	fd001be8 	str	d8, [sp, #48]
   12e70:	97ffef08 	bl	ea90 <__stack_chk_fail@plt>

0000000000012e74 <lsx_dvmsstartwrite>:
   12e74:	a9b47bfd 	stp	x29, x30, [sp, #-192]!
   12e78:	b0000461 	adrp	x1, 9f000 <handler.1+0x60>
   12e7c:	910003fd 	mov	x29, sp
   12e80:	f947ac21 	ldr	x1, [x1, #3928]
   12e84:	a90153f3 	stp	x19, x20, [sp, #16]
   12e88:	aa0003f4 	mov	x20, x0
   12e8c:	f9400022 	ldr	x2, [x1]
   12e90:	f9005fe2 	str	x2, [sp, #184]
   12e94:	d2800002 	mov	x2, #0x0                   	// #0
   12e98:	97fffc97 	bl	120f4 <lsx_cvsdstartwrite>
   12e9c:	2a0003f3 	mov	w19, w0
   12ea0:	34000180 	cbz	w0, 12ed0 <lsx_dvmsstartwrite+0x5c>
   12ea4:	b0000460 	adrp	x0, 9f000 <handler.1+0x60>
   12ea8:	f947ac00 	ldr	x0, [x0, #3928]
   12eac:	f9405fe2 	ldr	x2, [sp, #184]
   12eb0:	f9400001 	ldr	x1, [x0]
   12eb4:	eb010042 	subs	x2, x2, x1
   12eb8:	d2800001 	mov	x1, #0x0                   	// #0
   12ebc:	540003e1 	b.ne	12f38 <lsx_dvmsstartwrite+0xc4>  // b.any
   12ec0:	2a1303e0 	mov	w0, w19
   12ec4:	a94153f3 	ldp	x19, x20, [sp, #16]
   12ec8:	a8cc7bfd 	ldp	x29, x30, [sp], #192
   12ecc:	d65f03c0 	ret
   12ed0:	910083f3 	add	x19, sp, #0x20
   12ed4:	aa1403e0 	mov	x0, x20
   12ed8:	aa1303e1 	mov	x1, x19
   12edc:	97fffbc5 	bl	11df0 <make_dvms_hdr>
   12ee0:	aa1303e1 	mov	x1, x19
   12ee4:	aa1403e0 	mov	x0, x20
   12ee8:	97fffc02 	bl	11ef0 <dvms_write_header>
   12eec:	2a0003f3 	mov	w19, w0
   12ef0:	35000180 	cbnz	w0, 12f20 <lsx_dvmsstartwrite+0xac>
   12ef4:	b9412280 	ldr	w0, [x20, #288]
   12ef8:	35fffd60 	cbnz	w0, 12ea4 <lsx_dvmsstartwrite+0x30>
   12efc:	97ffef65 	bl	ec90 <sox_get_globals@plt>
   12f00:	aa0003e2 	mov	x2, x0
   12f04:	b0000261 	adrp	x1, 5f000 <__trunctfdf2+0x140>
   12f08:	9134e021 	add	x1, x1, #0xd38
   12f0c:	b0000260 	adrp	x0, 5f000 <__trunctfdf2+0x140>
   12f10:	913e8000 	add	x0, x0, #0xfa0
   12f14:	f9002041 	str	x1, [x2, #64]
   12f18:	97ffef4a 	bl	ec40 <lsx_warn_impl@plt>
   12f1c:	17ffffe2 	b	12ea4 <lsx_dvmsstartwrite+0x30>
   12f20:	aa1403e0 	mov	x0, x20
   12f24:	2a1303e1 	mov	w1, w19
   12f28:	b0000262 	adrp	x2, 5f000 <__trunctfdf2+0x140>
   12f2c:	913e0042 	add	x2, x2, #0xf80
   12f30:	97ffef30 	bl	ebf0 <lsx_fail_errno@plt>
   12f34:	17ffffdc 	b	12ea4 <lsx_dvmsstartwrite+0x30>
   12f38:	97ffeed6 	bl	ea90 <__stack_chk_fail@plt>
   12f3c:	d503201f 	nop

0000000000012f40 <lsx_dvmsstopwrite>:
   12f40:	a9b47bfd 	stp	x29, x30, [sp, #-192]!
   12f44:	b0000461 	adrp	x1, 9f000 <handler.1+0x60>
   12f48:	910003fd 	mov	x29, sp
   12f4c:	f947ac21 	ldr	x1, [x1, #3928]
   12f50:	a90153f3 	stp	x19, x20, [sp, #16]
   12f54:	aa0003f3 	mov	x19, x0
   12f58:	f9400022 	ldr	x2, [x1]
   12f5c:	f9005fe2 	str	x2, [sp, #184]
   12f60:	d2800002 	mov	x2, #0x0                   	// #0
   12f64:	97fffc83 	bl	12170 <lsx_cvsdstopwrite>
   12f68:	b9412260 	ldr	w0, [x19, #288]
   12f6c:	34000400 	cbz	w0, 12fec <lsx_dvmsstopwrite+0xac>
   12f70:	aa1303e0 	mov	x0, x19
   12f74:	52800002 	mov	w2, #0x0                   	// #0
   12f78:	d2800001 	mov	x1, #0x0                   	// #0
   12f7c:	97ffef39 	bl	ec60 <lsx_seeki@plt>
   12f80:	35000480 	cbnz	w0, 13010 <lsx_dvmsstopwrite+0xd0>
   12f84:	910083f4 	add	x20, sp, #0x20
   12f88:	aa1303e0 	mov	x0, x19
   12f8c:	aa1403e1 	mov	x1, x20
   12f90:	97fffb98 	bl	11df0 <make_dvms_hdr>
   12f94:	aa1403e1 	mov	x1, x20
   12f98:	aa1303e0 	mov	x0, x19
   12f9c:	97fffbd5 	bl	11ef0 <dvms_write_header>
   12fa0:	2a0003f4 	mov	w20, w0
   12fa4:	35000180 	cbnz	w0, 12fd4 <lsx_dvmsstopwrite+0x94>
   12fa8:	b0000460 	adrp	x0, 9f000 <handler.1+0x60>
   12fac:	f947ac00 	ldr	x0, [x0, #3928]
   12fb0:	f9405fe2 	ldr	x2, [sp, #184]
   12fb4:	f9400001 	ldr	x1, [x0]
   12fb8:	eb010042 	subs	x2, x2, x1
   12fbc:	d2800001 	mov	x1, #0x0                   	// #0
   12fc0:	540003a1 	b.ne	13034 <lsx_dvmsstopwrite+0xf4>  // b.any
   12fc4:	2a1403e0 	mov	w0, w20
   12fc8:	a94153f3 	ldp	x19, x20, [sp, #16]
   12fcc:	a8cc7bfd 	ldp	x29, x30, [sp], #192
   12fd0:	d65f03c0 	ret
   12fd4:	aa1303e0 	mov	x0, x19
   12fd8:	2a1403e1 	mov	w1, w20
   12fdc:	b0000262 	adrp	x2, 5f000 <__trunctfdf2+0x140>
   12fe0:	913e0042 	add	x2, x2, #0xf80
   12fe4:	97ffef03 	bl	ebf0 <lsx_fail_errno@plt>
   12fe8:	17fffff0 	b	12fa8 <lsx_dvmsstopwrite+0x68>
   12fec:	97ffef29 	bl	ec90 <sox_get_globals@plt>
   12ff0:	12800014 	mov	w20, #0xffffffff            	// #-1
   12ff4:	b0000261 	adrp	x1, 5f000 <__trunctfdf2+0x140>
   12ff8:	9134e021 	add	x1, x1, #0xd38
   12ffc:	b0000262 	adrp	x2, 5f000 <__trunctfdf2+0x140>
   13000:	f9002001 	str	x1, [x0, #64]
   13004:	913fa040 	add	x0, x2, #0xfe8
   13008:	97ffef0e 	bl	ec40 <lsx_warn_impl@plt>
   1300c:	17ffffe7 	b	12fa8 <lsx_dvmsstopwrite+0x68>
   13010:	97ffee50 	bl	e950 <__errno_location@plt>
   13014:	aa0003e1 	mov	x1, x0
   13018:	b0000262 	adrp	x2, 60000 <ima_steps+0xbf0>
   1301c:	aa1303e0 	mov	x0, x19
   13020:	91000042 	add	x2, x2, #0x0
   13024:	12800014 	mov	w20, #0xffffffff            	// #-1
   13028:	b9400021 	ldr	w1, [x1]
   1302c:	97ffeef1 	bl	ebf0 <lsx_fail_errno@plt>
   13030:	17ffffde 	b	12fa8 <lsx_dvmsstopwrite+0x68>
   13034:	97ffee97 	bl	ea90 <__stack_chk_fail@plt>
   13038:	d503201f 	nop
   1303c:	d503201f 	nop

0000000000013040 <lsx_g721_encoder>:
   13040:	a9bb7bfd 	stp	x29, x30, [sp, #-80]!
   13044:	910003fd 	mov	x29, sp
   13048:	a90153f3 	stp	x19, x20, [sp, #16]
   1304c:	a9025bf5 	stp	x21, x22, [sp, #32]
   13050:	aa0203f6 	mov	x22, x2
   13054:	7100083f 	cmp	w1, #0x2
   13058:	54000160 	b.eq	13084 <lsx_g721_encoder+0x44>  // b.none
   1305c:	71000c3f 	cmp	w1, #0x3
   13060:	54000a00 	b.eq	131a0 <lsx_g721_encoder+0x160>  // b.none
   13064:	12800013 	mov	w19, #0xffffffff            	// #-1
   13068:	7100043f 	cmp	w1, #0x1
   1306c:	540008c0 	b.eq	13184 <lsx_g721_encoder+0x144>  // b.none
   13070:	2a1303e0 	mov	w0, w19
   13074:	a94153f3 	ldp	x19, x20, [sp, #16]
   13078:	a9425bf5 	ldp	x21, x22, [sp, #32]
   1307c:	a8c57bfd 	ldp	x29, x30, [sp], #80
   13080:	d65f03c0 	ret
   13084:	90000461 	adrp	x1, 9f000 <handler.1+0x60>
   13088:	a90363f7 	stp	x23, x24, [sp, #48]
   1308c:	f947e821 	ldr	x1, [x1, #4048]
   13090:	f90023f9 	str	x25, [sp, #64]
   13094:	78e0d833 	ldrsh	w19, [x1, w0, sxtw #1]
   13098:	13027e73 	asr	w19, w19, #2
   1309c:	aa1603e0 	mov	x0, x22
   130a0:	94000288 	bl	13ac0 <lsx_g72x_predictor_zero>
   130a4:	2a0003f9 	mov	w25, w0
   130a8:	aa1603e0 	mov	x0, x22
   130ac:	94000299 	bl	13b10 <lsx_g72x_predictor_pole>
   130b0:	f0000294 	adrp	x20, 66000 <lsx_13linear2alaw+0x1c40>
   130b4:	13003f35 	sxth	w21, w25
   130b8:	91170298 	add	x24, x20, #0x5c0
   130bc:	0b0002b5 	add	w21, w21, w0
   130c0:	aa1603e0 	mov	x0, x22
   130c4:	940002a3 	bl	13b50 <lsx_g72x_step_size>
   130c8:	13003c17 	sxth	w23, w0
   130cc:	d34142b5 	ubfx	x21, x21, #1, #16
   130d0:	528000e3 	mov	w3, #0x7                   	// #7
   130d4:	4b150273 	sub	w19, w19, w21
   130d8:	aa1803e2 	mov	x2, x24
   130dc:	2a1703e1 	mov	w1, w23
   130e0:	93413f39 	sbfx	x25, x25, #1, #15
   130e4:	13003e60 	sxth	w0, w19
   130e8:	940002ae 	bl	13ba0 <lsx_g72x_quantize>
   130ec:	2a0003e3 	mov	w3, w0
   130f0:	91004304 	add	x4, x24, #0x10
   130f4:	2a1703e2 	mov	w2, w23
   130f8:	121d0000 	and	w0, w0, #0x8
   130fc:	93403c78 	sxth	x24, w3
   13100:	13003c73 	sxth	w19, w3
   13104:	78f87881 	ldrsh	w1, [x4, x24, lsl #1]
   13108:	940002da 	bl	13c70 <lsx_g72x_reconstruct>
   1310c:	13003c04 	sxth	w4, w0
   13110:	37780300 	tbnz	w0, #15, 13170 <lsx_g721_encoder+0x130>
   13114:	0b0002a5 	add	w5, w21, w0
   13118:	12003ca6 	and	w6, w5, #0xffff
   1311c:	13003ca5 	sxth	w5, w5
   13120:	91170294 	add	x20, x20, #0x5c0
   13124:	4b150323 	sub	w3, w25, w21
   13128:	9100c280 	add	x0, x20, #0x30
   1312c:	91014294 	add	x20, x20, #0x50
   13130:	0b0300c6 	add	w6, w6, w3
   13134:	aa1603e7 	mov	x7, x22
   13138:	2a1703e1 	mov	w1, w23
   1313c:	78f87803 	ldrsh	w3, [x0, x24, lsl #1]
   13140:	13003cc6 	sxth	w6, w6
   13144:	78f87a82 	ldrsh	w2, [x20, x24, lsl #1]
   13148:	52800080 	mov	w0, #0x4                   	// #4
   1314c:	531b6842 	lsl	w2, w2, #5
   13150:	940002dc 	bl	13cc0 <lsx_g72x_update>
   13154:	2a1303e0 	mov	w0, w19
   13158:	a94153f3 	ldp	x19, x20, [sp, #16]
   1315c:	a9425bf5 	ldp	x21, x22, [sp, #32]
   13160:	a94363f7 	ldp	x23, x24, [sp, #48]
   13164:	f94023f9 	ldr	x25, [sp, #64]
   13168:	a8c57bfd 	ldp	x29, x30, [sp], #80
   1316c:	d65f03c0 	ret
   13170:	12003405 	and	w5, w0, #0x3fff
   13174:	4b0502a5 	sub	w5, w21, w5
   13178:	12003ca6 	and	w6, w5, #0xffff
   1317c:	13003ca5 	sxth	w5, w5
   13180:	17ffffe8 	b	13120 <lsx_g721_encoder+0xe0>
   13184:	90000461 	adrp	x1, 9f000 <handler.1+0x60>
   13188:	a90363f7 	stp	x23, x24, [sp, #48]
   1318c:	f947b421 	ldr	x1, [x1, #3944]
   13190:	f90023f9 	str	x25, [sp, #64]
   13194:	78e0d833 	ldrsh	w19, [x1, w0, sxtw #1]
   13198:	13027e73 	asr	w19, w19, #2
   1319c:	17ffffc0 	b	1309c <lsx_g721_encoder+0x5c>
   131a0:	13027c13 	asr	w19, w0, #2
   131a4:	a90363f7 	stp	x23, x24, [sp, #48]
   131a8:	f90023f9 	str	x25, [sp, #64]
   131ac:	17ffffbc 	b	1309c <lsx_g721_encoder+0x5c>

00000000000131b0 <lsx_g721_decoder>:
   131b0:	a9ba7bfd 	stp	x29, x30, [sp, #-96]!
   131b4:	910003fd 	mov	x29, sp
   131b8:	a90153f3 	stp	x19, x20, [sp, #16]
   131bc:	a9025bf5 	stp	x21, x22, [sp, #32]
   131c0:	aa0203f5 	mov	x21, x2
   131c4:	f0000296 	adrp	x22, 66000 <lsx_13linear2alaw+0x1c40>
   131c8:	a90363f7 	stp	x23, x24, [sp, #48]
   131cc:	a9046bf9 	stp	x25, x26, [sp, #64]
   131d0:	2a0103f9 	mov	w25, w1
   131d4:	f9002bfb 	str	x27, [sp, #80]
   131d8:	2a0003fb 	mov	w27, w0
   131dc:	aa0203e0 	mov	x0, x2
   131e0:	94000238 	bl	13ac0 <lsx_g72x_predictor_zero>
   131e4:	2a0003f3 	mov	w19, w0
   131e8:	aa1503e0 	mov	x0, x21
   131ec:	94000249 	bl	13b10 <lsx_g72x_predictor_pole>
   131f0:	0b130014 	add	w20, w0, w19
   131f4:	aa1503e0 	mov	x0, x21
   131f8:	94000256 	bl	13b50 <lsx_g72x_step_size>
   131fc:	911702c1 	add	x1, x22, #0x5c0
   13200:	12000f77 	and	w23, w27, #0xf
   13204:	91004021 	add	x1, x1, #0x10
   13208:	2a0003fa 	mov	w26, w0
   1320c:	93413e78 	sbfx	x24, x19, #1, #15
   13210:	121d0360 	and	w0, w27, #0x8
   13214:	13003f5a 	sxth	w26, w26
   13218:	93413e94 	sbfx	x20, x20, #1, #15
   1321c:	78f7d821 	ldrsh	w1, [x1, w23, sxtw #1]
   13220:	2a1a03e2 	mov	w2, w26
   13224:	93407efb 	sxtw	x27, w23
   13228:	94000292 	bl	13c70 <lsx_g72x_reconstruct>
   1322c:	13003c04 	sxth	w4, w0
   13230:	37780420 	tbnz	w0, #15, 132b4 <lsx_g721_decoder+0x104>
   13234:	0b342013 	add	w19, w0, w20, uxth
   13238:	12003e80 	and	w0, w20, #0xffff
   1323c:	12003e66 	and	w6, w19, #0xffff
   13240:	13003e73 	sxth	w19, w19
   13244:	911702d6 	add	x22, x22, #0x5c0
   13248:	0b1800c6 	add	w6, w6, w24
   1324c:	9100c2c2 	add	x2, x22, #0x30
   13250:	910142c1 	add	x1, x22, #0x50
   13254:	4b0000c6 	sub	w6, w6, w0
   13258:	aa1503e7 	mov	x7, x21
   1325c:	2a1303e5 	mov	w5, w19
   13260:	52800080 	mov	w0, #0x4                   	// #4
   13264:	78fb7843 	ldrsh	w3, [x2, x27, lsl #1]
   13268:	13003cc6 	sxth	w6, w6
   1326c:	78fb7822 	ldrsh	w2, [x1, x27, lsl #1]
   13270:	2a1a03e1 	mov	w1, w26
   13274:	531b6842 	lsl	w2, w2, #5
   13278:	94000292 	bl	13cc0 <lsx_g72x_update>
   1327c:	71000b3f 	cmp	w25, #0x2
   13280:	54000500 	b.eq	13320 <lsx_g721_decoder+0x170>  // b.none
   13284:	71000f3f 	cmp	w25, #0x3
   13288:	540003c0 	b.eq	13300 <lsx_g721_decoder+0x150>  // b.none
   1328c:	12800000 	mov	w0, #0xffffffff            	// #-1
   13290:	7100073f 	cmp	w25, #0x1
   13294:	540001c0 	b.eq	132cc <lsx_g721_decoder+0x11c>  // b.none
   13298:	a94153f3 	ldp	x19, x20, [sp, #16]
   1329c:	a9425bf5 	ldp	x21, x22, [sp, #32]
   132a0:	a94363f7 	ldp	x23, x24, [sp, #48]
   132a4:	a9446bf9 	ldp	x25, x26, [sp, #64]
   132a8:	f9402bfb 	ldr	x27, [sp, #80]
   132ac:	a8c67bfd 	ldp	x29, x30, [sp], #96
   132b0:	d65f03c0 	ret
   132b4:	12003413 	and	w19, w0, #0x3fff
   132b8:	12003e80 	and	w0, w20, #0xffff
   132bc:	4b130013 	sub	w19, w0, w19
   132c0:	12003e66 	and	w6, w19, #0xffff
   132c4:	13003e73 	sxth	w19, w19
   132c8:	17ffffdf 	b	13244 <lsx_g721_decoder+0x94>
   132cc:	aa1603e5 	mov	x5, x22
   132d0:	2a1703e3 	mov	w3, w23
   132d4:	2a1a03e2 	mov	w2, w26
   132d8:	2a1403e1 	mov	w1, w20
   132dc:	2a1303e0 	mov	w0, w19
   132e0:	52800104 	mov	w4, #0x8                   	// #8
   132e4:	a94153f3 	ldp	x19, x20, [sp, #16]
   132e8:	a9425bf5 	ldp	x21, x22, [sp, #32]
   132ec:	a94363f7 	ldp	x23, x24, [sp, #48]
   132f0:	a9446bf9 	ldp	x25, x26, [sp, #64]
   132f4:	f9402bfb 	ldr	x27, [sp, #80]
   132f8:	a8c67bfd 	ldp	x29, x30, [sp], #96
   132fc:	1400040d 	b	14330 <lsx_g72x_tandem_adjust_ulaw>
   13300:	531e7660 	lsl	w0, w19, #2
   13304:	a94153f3 	ldp	x19, x20, [sp, #16]
   13308:	a9425bf5 	ldp	x21, x22, [sp, #32]
   1330c:	a94363f7 	ldp	x23, x24, [sp, #48]
   13310:	a9446bf9 	ldp	x25, x26, [sp, #64]
   13314:	f9402bfb 	ldr	x27, [sp, #80]
   13318:	a8c67bfd 	ldp	x29, x30, [sp], #96
   1331c:	d65f03c0 	ret
   13320:	aa1603e5 	mov	x5, x22
   13324:	2a1703e3 	mov	w3, w23
   13328:	2a1a03e2 	mov	w2, w26
   1332c:	2a1403e1 	mov	w1, w20
   13330:	2a1303e0 	mov	w0, w19
   13334:	52800104 	mov	w4, #0x8                   	// #8
   13338:	a94153f3 	ldp	x19, x20, [sp, #16]
   1333c:	a9425bf5 	ldp	x21, x22, [sp, #32]
   13340:	a94363f7 	ldp	x23, x24, [sp, #48]
   13344:	a9446bf9 	ldp	x25, x26, [sp, #64]
   13348:	f9402bfb 	ldr	x27, [sp, #80]
   1334c:	a8c67bfd 	ldp	x29, x30, [sp], #96
   13350:	140003a4 	b	141e0 <lsx_g72x_tandem_adjust_alaw>
   13354:	d503201f 	nop
   13358:	d503201f 	nop
   1335c:	d503201f 	nop

0000000000013360 <lsx_g723_24_encoder>:
   13360:	a9bb7bfd 	stp	x29, x30, [sp, #-80]!
   13364:	910003fd 	mov	x29, sp
   13368:	a90153f3 	stp	x19, x20, [sp, #16]
   1336c:	a9025bf5 	stp	x21, x22, [sp, #32]
   13370:	aa0203f5 	mov	x21, x2
   13374:	a90363f7 	stp	x23, x24, [sp, #48]
   13378:	7100083f 	cmp	w1, #0x2
   1337c:	54000180 	b.eq	133ac <lsx_g723_24_encoder+0x4c>  // b.none
   13380:	71000c3f 	cmp	w1, #0x3
   13384:	540009c0 	b.eq	134bc <lsx_g723_24_encoder+0x15c>  // b.none
   13388:	12800017 	mov	w23, #0xffffffff            	// #-1
   1338c:	7100043f 	cmp	w1, #0x1
   13390:	540008a0 	b.eq	134a4 <lsx_g723_24_encoder+0x144>  // b.none
   13394:	2a1703e0 	mov	w0, w23
   13398:	a94153f3 	ldp	x19, x20, [sp, #16]
   1339c:	a9425bf5 	ldp	x21, x22, [sp, #32]
   133a0:	a94363f7 	ldp	x23, x24, [sp, #48]
   133a4:	a8c57bfd 	ldp	x29, x30, [sp], #80
   133a8:	d65f03c0 	ret
   133ac:	90000461 	adrp	x1, 9f000 <handler.1+0x60>
   133b0:	f90023f9 	str	x25, [sp, #64]
   133b4:	f947e821 	ldr	x1, [x1, #4048]
   133b8:	78e0d833 	ldrsh	w19, [x1, w0, sxtw #1]
   133bc:	13027e73 	asr	w19, w19, #2
   133c0:	aa1503e0 	mov	x0, x21
   133c4:	940001bf 	bl	13ac0 <lsx_g72x_predictor_zero>
   133c8:	2a0003f6 	mov	w22, w0
   133cc:	aa1503e0 	mov	x0, x21
   133d0:	940001d0 	bl	13b10 <lsx_g72x_predictor_pole>
   133d4:	2a0003f4 	mov	w20, w0
   133d8:	0b160294 	add	w20, w20, w22
   133dc:	aa1503e0 	mov	x0, x21
   133e0:	940001dc 	bl	13b50 <lsx_g72x_step_size>
   133e4:	f0000299 	adrp	x25, 66000 <lsx_13linear2alaw+0x1c40>
   133e8:	93413e94 	sbfx	x20, x20, #1, #15
   133ec:	9118c337 	add	x23, x25, #0x630
   133f0:	12003e94 	and	w20, w20, #0xffff
   133f4:	13003c18 	sxth	w24, w0
   133f8:	4b140273 	sub	w19, w19, w20
   133fc:	52800063 	mov	w3, #0x3                   	// #3
   13400:	aa1703e2 	mov	x2, x23
   13404:	2a1803e1 	mov	w1, w24
   13408:	13003e60 	sxth	w0, w19
   1340c:	940001e5 	bl	13ba0 <lsx_g72x_quantize>
   13410:	2a0003e3 	mov	w3, w0
   13414:	2a1803e2 	mov	w2, w24
   13418:	121e0000 	and	w0, w0, #0x4
   1341c:	93413ed6 	sbfx	x22, x22, #1, #15
   13420:	8b23a6e4 	add	x4, x23, w3, sxth #1
   13424:	93403c73 	sxth	x19, w3
   13428:	13003c77 	sxth	w23, w3
   1342c:	79c01081 	ldrsh	w1, [x4, #8]
   13430:	94000210 	bl	13c70 <lsx_g72x_reconstruct>
   13434:	13003c04 	sxth	w4, w0
   13438:	377802c0 	tbnz	w0, #15, 13490 <lsx_g723_24_encoder+0x130>
   1343c:	0b000285 	add	w5, w20, w0
   13440:	12003ca6 	and	w6, w5, #0xffff
   13444:	13003ca5 	sxth	w5, w5
   13448:	9118c323 	add	x3, x25, #0x630
   1344c:	4b1402d6 	sub	w22, w22, w20
   13450:	8b130468 	add	x8, x3, x19, lsl #1
   13454:	0b1600c6 	add	w6, w6, w22
   13458:	aa1503e7 	mov	x7, x21
   1345c:	2a1803e1 	mov	w1, w24
   13460:	13003cc6 	sxth	w6, w6
   13464:	52800060 	mov	w0, #0x3                   	// #3
   13468:	79c03103 	ldrsh	w3, [x8, #24]
   1346c:	79c05102 	ldrsh	w2, [x8, #40]
   13470:	94000214 	bl	13cc0 <lsx_g72x_update>
   13474:	2a1703e0 	mov	w0, w23
   13478:	a94153f3 	ldp	x19, x20, [sp, #16]
   1347c:	a9425bf5 	ldp	x21, x22, [sp, #32]
   13480:	a94363f7 	ldp	x23, x24, [sp, #48]
   13484:	f94023f9 	ldr	x25, [sp, #64]
   13488:	a8c57bfd 	ldp	x29, x30, [sp], #80
   1348c:	d65f03c0 	ret
   13490:	12003405 	and	w5, w0, #0x3fff
   13494:	4b050285 	sub	w5, w20, w5
   13498:	12003ca6 	and	w6, w5, #0xffff
   1349c:	13003ca5 	sxth	w5, w5
   134a0:	17ffffea 	b	13448 <lsx_g723_24_encoder+0xe8>
   134a4:	90000461 	adrp	x1, 9f000 <handler.1+0x60>
   134a8:	f90023f9 	str	x25, [sp, #64]
   134ac:	f947b421 	ldr	x1, [x1, #3944]
   134b0:	78e0d833 	ldrsh	w19, [x1, w0, sxtw #1]
   134b4:	13027e73 	asr	w19, w19, #2
   134b8:	17ffffc2 	b	133c0 <lsx_g723_24_encoder+0x60>
   134bc:	13027c13 	asr	w19, w0, #2
   134c0:	f90023f9 	str	x25, [sp, #64]
   134c4:	17ffffbf 	b	133c0 <lsx_g723_24_encoder+0x60>
   134c8:	d503201f 	nop
   134cc:	d503201f 	nop

00000000000134d0 <lsx_g723_24_decoder>:
   134d0:	a9ba7bfd 	stp	x29, x30, [sp, #-96]!
   134d4:	910003fd 	mov	x29, sp
   134d8:	a90153f3 	stp	x19, x20, [sp, #16]
   134dc:	a9025bf5 	stp	x21, x22, [sp, #32]
   134e0:	aa0203f5 	mov	x21, x2
   134e4:	f0000296 	adrp	x22, 66000 <lsx_13linear2alaw+0x1c40>
   134e8:	a90363f7 	stp	x23, x24, [sp, #48]
   134ec:	a9046bf9 	stp	x25, x26, [sp, #64]
   134f0:	2a0103f9 	mov	w25, w1
   134f4:	f9002bfb 	str	x27, [sp, #80]
   134f8:	2a0003fb 	mov	w27, w0
   134fc:	aa0203e0 	mov	x0, x2
   13500:	94000170 	bl	13ac0 <lsx_g72x_predictor_zero>
   13504:	2a0003f3 	mov	w19, w0
   13508:	aa1503e0 	mov	x0, x21
   1350c:	94000181 	bl	13b10 <lsx_g72x_predictor_pole>
   13510:	12000b77 	and	w23, w27, #0x7
   13514:	0b130014 	add	w20, w0, w19
   13518:	aa1503e0 	mov	x0, x21
   1351c:	9400018d 	bl	13b50 <lsx_g72x_step_size>
   13520:	2a0003fa 	mov	w26, w0
   13524:	9118c2c1 	add	x1, x22, #0x630
   13528:	121e0360 	and	w0, w27, #0x4
