
./.libs/sox:     file format elf64-littleaarch64


Disassembly of section .init:

00000000004022b0 <_init>:
  4022b0:	d503233f 	paciasp
  4022b4:	a9bf7bfd 	stp	x29, x30, [sp, #-16]!
  4022b8:	910003fd 	mov	x29, sp
  4022bc:	94000aa3 	bl	404d48 <call_weak_fn>
  4022c0:	a8c17bfd 	ldp	x29, x30, [sp], #16
  4022c4:	d50323bf 	autiasp
  4022c8:	d65f03c0 	ret

Disassembly of section .plt:

00000000004022d0 <.plt>:
  4022d0:	a9bf7bf0 	stp	x16, x30, [sp, #-16]!
  4022d4:	b00000f0 	adrp	x16, 41f000 <__FRAME_END__+0x11414>
  4022d8:	f947fe11 	ldr	x17, [x16, #4088]
  4022dc:	913fe210 	add	x16, x16, #0xff8
  4022e0:	d61f0220 	br	x17
  4022e4:	d503201f 	nop
  4022e8:	d503201f 	nop
  4022ec:	d503201f 	nop

00000000004022f0 <fputs@plt>:
  4022f0:	d00000f0 	adrp	x16, 420000 <fputs@GLIBC_2.17>
  4022f4:	f9400211 	ldr	x17, [x16]
  4022f8:	91000210 	add	x16, x16, #0x0
  4022fc:	d61f0220 	br	x17

0000000000402300 <memcpy@plt>:
  402300:	d00000f0 	adrp	x16, 420000 <fputs@GLIBC_2.17>
  402304:	f9400611 	ldr	x17, [x16, #8]
  402308:	91002210 	add	x16, x16, #0x8
  40230c:	d61f0220 	br	x17

0000000000402310 <select@plt>:
  402310:	d00000f0 	adrp	x16, 420000 <fputs@GLIBC_2.17>
  402314:	f9400a11 	ldr	x17, [x16, #16]
  402318:	91004210 	add	x16, x16, #0x10
  40231c:	d61f0220 	br	x17

0000000000402320 <lsx_realloc_array@plt>:
  402320:	d00000f0 	adrp	x16, 420000 <fputs@GLIBC_2.17>
  402324:	f9400e11 	ldr	x17, [x16, #24]
  402328:	91006210 	add	x16, x16, #0x18
  40232c:	d61f0220 	br	x17

0000000000402330 <sox_read@plt>:
  402330:	d00000f0 	adrp	x16, 420000 <fputs@GLIBC_2.17>
  402334:	f9401211 	ldr	x17, [x16, #32]
  402338:	91008210 	add	x16, x16, #0x20
  40233c:	d61f0220 	br	x17

0000000000402340 <lsx_getopt_init@plt>:
  402340:	d00000f0 	adrp	x16, 420000 <fputs@GLIBC_2.17>
  402344:	f9401611 	ldr	x17, [x16, #40]
  402348:	9100a210 	add	x16, x16, #0x28
  40234c:	d61f0220 	br	x17

0000000000402350 <lsx_realloc@plt>:
  402350:	d00000f0 	adrp	x16, 420000 <fputs@GLIBC_2.17>
  402354:	f9401a11 	ldr	x17, [x16, #48]
  402358:	9100c210 	add	x16, x16, #0x30
  40235c:	d61f0220 	br	x17

0000000000402360 <puts@plt>:
  402360:	d00000f0 	adrp	x16, 420000 <fputs@GLIBC_2.17>
  402364:	f9401e11 	ldr	x17, [x16, #56]
  402368:	9100e210 	add	x16, x16, #0x38
  40236c:	d61f0220 	br	x17

0000000000402370 <sox_open_write@plt>:
  402370:	d00000f0 	adrp	x16, 420000 <fputs@GLIBC_2.17>
  402374:	f9402211 	ldr	x17, [x16, #64]
  402378:	91010210 	add	x16, x16, #0x40
  40237c:	d61f0220 	br	x17

0000000000402380 <sox_delete_effects_chain@plt>:
  402380:	d00000f0 	adrp	x16, 420000 <fputs@GLIBC_2.17>
  402384:	f9402611 	ldr	x17, [x16, #72]
  402388:	91012210 	add	x16, x16, #0x48
  40238c:	d61f0220 	br	x17

0000000000402390 <lsx_getopt@plt>:
  402390:	d00000f0 	adrp	x16, 420000 <fputs@GLIBC_2.17>
  402394:	f9402a11 	ldr	x17, [x16, #80]
  402398:	91014210 	add	x16, x16, #0x50
  40239c:	d61f0220 	br	x17

00000000004023a0 <lsx_find_enum_text@plt>:
  4023a0:	d00000f0 	adrp	x16, 420000 <fputs@GLIBC_2.17>
  4023a4:	f9402e11 	ldr	x17, [x16, #88]
  4023a8:	91016210 	add	x16, x16, #0x58
  4023ac:	d61f0220 	br	x17

00000000004023b0 <sox_get_format_fns@plt>:
  4023b0:	d00000f0 	adrp	x16, 420000 <fputs@GLIBC_2.17>
  4023b4:	f9403211 	ldr	x17, [x16, #96]
  4023b8:	91018210 	add	x16, x16, #0x60
  4023bc:	d61f0220 	br	x17

00000000004023c0 <strlen@plt>:
  4023c0:	d00000f0 	adrp	x16, 420000 <fputs@GLIBC_2.17>
  4023c4:	f9403611 	ldr	x17, [x16, #104]
  4023c8:	9101a210 	add	x16, x16, #0x68
  4023cc:	d61f0220 	br	x17

00000000004023d0 <fprintf@plt>:
  4023d0:	d00000f0 	adrp	x16, 420000 <fputs@GLIBC_2.17>
  4023d4:	f9403a11 	ldr	x17, [x16, #112]
  4023d8:	9101c210 	add	x16, x16, #0x70
  4023dc:	d61f0220 	br	x17

00000000004023e0 <uname@plt>:
  4023e0:	d00000f0 	adrp	x16, 420000 <fputs@GLIBC_2.17>
  4023e4:	f9403e11 	ldr	x17, [x16, #120]
  4023e8:	9101e210 	add	x16, x16, #0x78
  4023ec:	d61f0220 	br	x17

00000000004023f0 <sox_copy_comments@plt>:
  4023f0:	d00000f0 	adrp	x16, 420000 <fputs@GLIBC_2.17>
  4023f4:	f9404211 	ldr	x17, [x16, #128]
  4023f8:	91020210 	add	x16, x16, #0x80
  4023fc:	d61f0220 	br	x17

0000000000402400 <__stack_chk_fail@plt>:
  402400:	d00000f0 	adrp	x16, 420000 <fputs@GLIBC_2.17>
  402404:	f9404611 	ldr	x17, [x16, #136]
  402408:	91022210 	add	x16, x16, #0x88
  40240c:	d61f0220 	br	x17

0000000000402410 <fileno@plt>:
  402410:	d00000f0 	adrp	x16, 420000 <fputs@GLIBC_2.17>
  402414:	f9404a11 	ldr	x17, [x16, #144]
  402418:	91024210 	add	x16, x16, #0x90
  40241c:	d61f0220 	br	x17

0000000000402420 <putc@plt>:
  402420:	d00000f0 	adrp	x16, 420000 <fputs@GLIBC_2.17>
  402424:	f9404e11 	ldr	x17, [x16, #152]
  402428:	91026210 	add	x16, x16, #0x98
  40242c:	d61f0220 	br	x17

0000000000402430 <sox_add_effect@plt>:
  402430:	d00000f0 	adrp	x16, 420000 <fputs@GLIBC_2.17>
  402434:	f9405211 	ldr	x17, [x16, #160]
  402438:	91028210 	add	x16, x16, #0xa0
  40243c:	d61f0220 	br	x17

0000000000402440 <lsx_fail_impl@plt>:
  402440:	d00000f0 	adrp	x16, 420000 <fputs@GLIBC_2.17>
  402444:	f9405611 	ldr	x17, [x16, #168]
  402448:	9102a210 	add	x16, x16, #0xa8
  40244c:	d61f0220 	br	x17

0000000000402450 <fclose@plt>:
  402450:	d00000f0 	adrp	x16, 420000 <fputs@GLIBC_2.17>
  402454:	f9405a11 	ldr	x17, [x16, #176]
  402458:	9102c210 	add	x16, x16, #0xb0
  40245c:	d61f0220 	br	x17

0000000000402460 <sox_delete_effects@plt>:
  402460:	d00000f0 	adrp	x16, 420000 <fputs@GLIBC_2.17>
  402464:	f9405e11 	ldr	x17, [x16, #184]
  402468:	9102e210 	add	x16, x16, #0xb8
  40246c:	d61f0220 	br	x17

0000000000402470 <memcmp@plt>:
  402470:	d00000f0 	adrp	x16, 420000 <fputs@GLIBC_2.17>
  402474:	f9406211 	ldr	x17, [x16, #192]
  402478:	91030210 	add	x16, x16, #0xc0
  40247c:	d61f0220 	br	x17

0000000000402480 <sox_quit@plt>:
  402480:	d00000f0 	adrp	x16, 420000 <fputs@GLIBC_2.17>
  402484:	f9406611 	ldr	x17, [x16, #200]
  402488:	91032210 	add	x16, x16, #0xc8
  40248c:	d61f0220 	br	x17

0000000000402490 <lsx_warn_impl@plt>:
  402490:	d00000f0 	adrp	x16, 420000 <fputs@GLIBC_2.17>
  402494:	f9406a11 	ldr	x17, [x16, #208]
  402498:	91034210 	add	x16, x16, #0xd0
  40249c:	d61f0220 	br	x17

00000000004024a0 <sigemptyset@plt>:
  4024a0:	d00000f0 	adrp	x16, 420000 <fputs@GLIBC_2.17>
  4024a4:	f9406e11 	ldr	x17, [x16, #216]
  4024a8:	91036210 	add	x16, x16, #0xd8
  4024ac:	d61f0220 	br	x17

00000000004024b0 <sox_find_format@plt>:
  4024b0:	d00000f0 	adrp	x16, 420000 <fputs@GLIBC_2.17>
  4024b4:	f9407211 	ldr	x17, [x16, #224]
  4024b8:	91038210 	add	x16, x16, #0xe0
  4024bc:	d61f0220 	br	x17

00000000004024c0 <free@plt>:
  4024c0:	d00000f0 	adrp	x16, 420000 <fputs@GLIBC_2.17>
  4024c4:	f9407611 	ldr	x17, [x16, #232]
  4024c8:	9103a210 	add	x16, x16, #0xe8
  4024cc:	d61f0220 	br	x17

00000000004024d0 <memset@plt>:
  4024d0:	d00000f0 	adrp	x16, 420000 <fputs@GLIBC_2.17>
  4024d4:	f9407a11 	ldr	x17, [x16, #240]
  4024d8:	9103c210 	add	x16, x16, #0xf0
  4024dc:	d61f0220 	br	x17

00000000004024e0 <sox_append_comment@plt>:
  4024e0:	d00000f0 	adrp	x16, 420000 <fputs@GLIBC_2.17>
  4024e4:	f9407e11 	ldr	x17, [x16, #248]
  4024e8:	9103e210 	add	x16, x16, #0xf8
  4024ec:	d61f0220 	br	x17

00000000004024f0 <strchr@plt>:
  4024f0:	d00000f0 	adrp	x16, 420000 <fputs@GLIBC_2.17>
  4024f4:	f9408211 	ldr	x17, [x16, #256]
  4024f8:	91040210 	add	x16, x16, #0x100
  4024fc:	d61f0220 	br	x17

0000000000402500 <lsx_filelength@plt>:
  402500:	d00000f0 	adrp	x16, 420000 <fputs@GLIBC_2.17>
  402504:	f9408611 	ldr	x17, [x16, #264]
  402508:	91042210 	add	x16, x16, #0x108
  40250c:	d61f0220 	br	x17

0000000000402510 <isatty@plt>:
  402510:	d00000f0 	adrp	x16, 420000 <fputs@GLIBC_2.17>
  402514:	f9408a11 	ldr	x17, [x16, #272]
  402518:	91044210 	add	x16, x16, #0x110
  40251c:	d61f0220 	br	x17

0000000000402520 <qsort@plt>:
  402520:	d00000f0 	adrp	x16, 420000 <fputs@GLIBC_2.17>
  402524:	f9408e11 	ldr	x17, [x16, #280]
  402528:	91046210 	add	x16, x16, #0x118
  40252c:	d61f0220 	br	x17

0000000000402530 <sox_version_info@plt>:
  402530:	d00000f0 	adrp	x16, 420000 <fputs@GLIBC_2.17>
  402534:	f9409211 	ldr	x17, [x16, #288]
  402538:	91048210 	add	x16, x16, #0x120
  40253c:	d61f0220 	br	x17

0000000000402540 <sox_find_effect@plt>:
  402540:	d00000f0 	adrp	x16, 420000 <fputs@GLIBC_2.17>
  402544:	f9409611 	ldr	x17, [x16, #296]
  402548:	9104a210 	add	x16, x16, #0x128
  40254c:	d61f0220 	br	x17

0000000000402550 <sox_delete_effect_last@plt>:
  402550:	d00000f0 	adrp	x16, 420000 <fputs@GLIBC_2.17>
  402554:	f9409a11 	ldr	x17, [x16, #304]
  402558:	9104c210 	add	x16, x16, #0x130
  40255c:	d61f0220 	br	x17

0000000000402560 <__isoc99_scanf@plt>:
  402560:	d00000f0 	adrp	x16, 420000 <fputs@GLIBC_2.17>
  402564:	f9409e11 	ldr	x17, [x16, #312]
  402568:	9104e210 	add	x16, x16, #0x138
  40256c:	d61f0220 	br	x17

0000000000402570 <sox_format_supports_encoding@plt>:
  402570:	d00000f0 	adrp	x16, 420000 <fputs@GLIBC_2.17>
  402574:	f940a211 	ldr	x17, [x16, #320]
  402578:	91050210 	add	x16, x16, #0x140
  40257c:	d61f0220 	br	x17

0000000000402580 <strerror@plt>:
  402580:	d00000f0 	adrp	x16, 420000 <fputs@GLIBC_2.17>
  402584:	f940a611 	ldr	x17, [x16, #328]
  402588:	91052210 	add	x16, x16, #0x148
  40258c:	d61f0220 	br	x17

0000000000402590 <strcpy@plt>:
  402590:	d00000f0 	adrp	x16, 420000 <fputs@GLIBC_2.17>
  402594:	f940aa11 	ldr	x17, [x16, #336]
  402598:	91054210 	add	x16, x16, #0x150
  40259c:	d61f0220 	br	x17

00000000004025a0 <sox_push_effect_last@plt>:
  4025a0:	d00000f0 	adrp	x16, 420000 <fputs@GLIBC_2.17>
  4025a4:	f940ae11 	ldr	x17, [x16, #344]
  4025a8:	91056210 	add	x16, x16, #0x158
  4025ac:	d61f0220 	br	x17

00000000004025b0 <__libc_start_main@plt>:
  4025b0:	d00000f0 	adrp	x16, 420000 <fputs@GLIBC_2.17>
  4025b4:	f940b211 	ldr	x17, [x16, #352]
  4025b8:	91058210 	add	x16, x16, #0x160
  4025bc:	d61f0220 	br	x17

00000000004025c0 <gettimeofday@plt>:
  4025c0:	d00000f0 	adrp	x16, 420000 <fputs@GLIBC_2.17>
  4025c4:	f940b611 	ldr	x17, [x16, #360]
  4025c8:	9105a210 	add	x16, x16, #0x168
  4025cc:	d61f0220 	br	x17

00000000004025d0 <sprintf@plt>:
  4025d0:	d00000f0 	adrp	x16, 420000 <fputs@GLIBC_2.17>
  4025d4:	f940ba11 	ldr	x17, [x16, #368]
  4025d8:	9105c210 	add	x16, x16, #0x170
  4025dc:	d61f0220 	br	x17

00000000004025e0 <sox_open_read@plt>:
  4025e0:	d00000f0 	adrp	x16, 420000 <fputs@GLIBC_2.17>
  4025e4:	f940be11 	ldr	x17, [x16, #376]
  4025e8:	9105e210 	add	x16, x16, #0x178
  4025ec:	d61f0220 	br	x17

00000000004025f0 <sox_strerror@plt>:
  4025f0:	d00000f0 	adrp	x16, 420000 <fputs@GLIBC_2.17>
  4025f4:	f940c211 	ldr	x17, [x16, #384]
  4025f8:	91060210 	add	x16, x16, #0x180
  4025fc:	d61f0220 	br	x17

0000000000402600 <sox_write@plt>:
  402600:	d00000f0 	adrp	x16, 420000 <fputs@GLIBC_2.17>
  402604:	f940c611 	ldr	x17, [x16, #392]
  402608:	91062210 	add	x16, x16, #0x188
  40260c:	d61f0220 	br	x17

0000000000402610 <log10@plt>:
  402610:	d00000f0 	adrp	x16, 420000 <fputs@GLIBC_2.17>
  402614:	f940ca11 	ldr	x17, [x16, #400]
  402618:	91064210 	add	x16, x16, #0x190
  40261c:	d61f0220 	br	x17

0000000000402620 <ioctl@plt>:
  402620:	d00000f0 	adrp	x16, 420000 <fputs@GLIBC_2.17>
  402624:	f940ce11 	ldr	x17, [x16, #408]
  402628:	91066210 	add	x16, x16, #0x198
  40262c:	d61f0220 	br	x17

0000000000402630 <lsx_debug_impl@plt>:
  402630:	d00000f0 	adrp	x16, 420000 <fputs@GLIBC_2.17>
  402634:	f940d211 	ldr	x17, [x16, #416]
  402638:	91068210 	add	x16, x16, #0x1a0
  40263c:	d61f0220 	br	x17

0000000000402640 <sox_delete_comments@plt>:
  402640:	d00000f0 	adrp	x16, 420000 <fputs@GLIBC_2.17>
  402644:	f940d611 	ldr	x17, [x16, #424]
  402648:	9106a210 	add	x16, x16, #0x1a8
  40264c:	d61f0220 	br	x17

0000000000402650 <unlink@plt>:
  402650:	d00000f0 	adrp	x16, 420000 <fputs@GLIBC_2.17>
  402654:	f940da11 	ldr	x17, [x16, #432]
  402658:	9106c210 	add	x16, x16, #0x1b0
  40265c:	d61f0220 	br	x17

0000000000402660 <lsx_strdup@plt>:
  402660:	d00000f0 	adrp	x16, 420000 <fputs@GLIBC_2.17>
  402664:	f940de11 	ldr	x17, [x16, #440]
  402668:	9106e210 	add	x16, x16, #0x1b8
  40266c:	d61f0220 	br	x17

0000000000402670 <sox_close@plt>:
  402670:	d00000f0 	adrp	x16, 420000 <fputs@GLIBC_2.17>
  402674:	f940e211 	ldr	x17, [x16, #448]
  402678:	91070210 	add	x16, x16, #0x1c0
  40267c:	d61f0220 	br	x17

0000000000402680 <stat@plt>:
  402680:	d00000f0 	adrp	x16, 420000 <fputs@GLIBC_2.17>
  402684:	f940e611 	ldr	x17, [x16, #456]
  402688:	91072210 	add	x16, x16, #0x1c8
  40268c:	d61f0220 	br	x17

0000000000402690 <sox_create_effect@plt>:
  402690:	d00000f0 	adrp	x16, 420000 <fputs@GLIBC_2.17>
  402694:	f940ea11 	ldr	x17, [x16, #464]
  402698:	91074210 	add	x16, x16, #0x1d0
  40269c:	d61f0220 	br	x17

00000000004026a0 <sox_pop_effect_last@plt>:
  4026a0:	d00000f0 	adrp	x16, 420000 <fputs@GLIBC_2.17>
  4026a4:	f940ee11 	ldr	x17, [x16, #472]
  4026a8:	91076210 	add	x16, x16, #0x1d8
  4026ac:	d61f0220 	br	x17

00000000004026b0 <sox_precision@plt>:
  4026b0:	d00000f0 	adrp	x16, 420000 <fputs@GLIBC_2.17>
  4026b4:	f940f211 	ldr	x17, [x16, #480]
  4026b8:	91078210 	add	x16, x16, #0x1e0
  4026bc:	d61f0220 	br	x17

00000000004026c0 <getc@plt>:
  4026c0:	d00000f0 	adrp	x16, 420000 <fputs@GLIBC_2.17>
  4026c4:	f940f611 	ldr	x17, [x16, #488]
  4026c8:	9107a210 	add	x16, x16, #0x1e8
  4026cc:	d61f0220 	br	x17

00000000004026d0 <sox_trim_clear_start@plt>:
  4026d0:	d00000f0 	adrp	x16, 420000 <fputs@GLIBC_2.17>
  4026d4:	f940fa11 	ldr	x17, [x16, #496]
  4026d8:	9107c210 	add	x16, x16, #0x1f0
  4026dc:	d61f0220 	br	x17

00000000004026e0 <lsx_find_file_extension@plt>:
  4026e0:	d00000f0 	adrp	x16, 420000 <fputs@GLIBC_2.17>
  4026e4:	f940fe11 	ldr	x17, [x16, #504]
  4026e8:	9107e210 	add	x16, x16, #0x1f8
  4026ec:	d61f0220 	br	x17

00000000004026f0 <fputc@plt>:
  4026f0:	d00000f0 	adrp	x16, 420000 <fputs@GLIBC_2.17>
  4026f4:	f9410211 	ldr	x17, [x16, #512]
  4026f8:	91080210 	add	x16, x16, #0x200
  4026fc:	d61f0220 	br	x17

0000000000402700 <glob@plt>:
  402700:	d00000f0 	adrp	x16, 420000 <fputs@GLIBC_2.17>
  402704:	f9410611 	ldr	x17, [x16, #520]
  402708:	91082210 	add	x16, x16, #0x208
  40270c:	d61f0220 	br	x17

0000000000402710 <sox_get_globals@plt>:
  402710:	d00000f0 	adrp	x16, 420000 <fputs@GLIBC_2.17>
  402714:	f9410a11 	ldr	x17, [x16, #528]
  402718:	91084210 	add	x16, x16, #0x210
  40271c:	d61f0220 	br	x17

0000000000402720 <sox_parse_playlist@plt>:
  402720:	d00000f0 	adrp	x16, 420000 <fputs@GLIBC_2.17>
  402724:	f9410e11 	ldr	x17, [x16, #536]
  402728:	91086210 	add	x16, x16, #0x218
  40272c:	d61f0220 	br	x17

0000000000402730 <__ctype_b_loc@plt>:
  402730:	d00000f0 	adrp	x16, 420000 <fputs@GLIBC_2.17>
  402734:	f9411211 	ldr	x17, [x16, #544]
  402738:	91088210 	add	x16, x16, #0x220
  40273c:	d61f0220 	br	x17

0000000000402740 <__isoc99_sscanf@plt>:
  402740:	d00000f0 	adrp	x16, 420000 <fputs@GLIBC_2.17>
  402744:	f9411611 	ldr	x17, [x16, #552]
  402748:	9108a210 	add	x16, x16, #0x228
  40274c:	d61f0220 	br	x17

0000000000402750 <lsx_report_impl@plt>:
  402750:	d00000f0 	adrp	x16, 420000 <fputs@GLIBC_2.17>
  402754:	f9411a11 	ldr	x17, [x16, #560]
  402758:	9108c210 	add	x16, x16, #0x230
  40275c:	d61f0220 	br	x17

0000000000402760 <__cxa_atexit@plt>:
  402760:	d00000f0 	adrp	x16, 420000 <fputs@GLIBC_2.17>
  402764:	f9411e11 	ldr	x17, [x16, #568]
  402768:	9108e210 	add	x16, x16, #0x238
  40276c:	d61f0220 	br	x17

0000000000402770 <snprintf@plt>:
  402770:	d00000f0 	adrp	x16, 420000 <fputs@GLIBC_2.17>
  402774:	f9412211 	ldr	x17, [x16, #576]
  402778:	91090210 	add	x16, x16, #0x240
  40277c:	d61f0220 	br	x17

0000000000402780 <lsx_calloc@plt>:
  402780:	d00000f0 	adrp	x16, 420000 <fputs@GLIBC_2.17>
  402784:	f9412611 	ldr	x17, [x16, #584]
  402788:	91092210 	add	x16, x16, #0x248
  40278c:	d61f0220 	br	x17

0000000000402790 <lsx_sigfigs3@plt>:
  402790:	d00000f0 	adrp	x16, 420000 <fputs@GLIBC_2.17>
  402794:	f9412a11 	ldr	x17, [x16, #592]
  402798:	91094210 	add	x16, x16, #0x250
  40279c:	d61f0220 	br	x17

00000000004027a0 <sox_effect_options@plt>:
  4027a0:	d00000f0 	adrp	x16, 420000 <fputs@GLIBC_2.17>
  4027a4:	f9412e11 	ldr	x17, [x16, #600]
  4027a8:	91096210 	add	x16, x16, #0x258
  4027ac:	d61f0220 	br	x17

00000000004027b0 <lsx_find_enum_value@plt>:
  4027b0:	d00000f0 	adrp	x16, 420000 <fputs@GLIBC_2.17>
  4027b4:	f9413211 	ldr	x17, [x16, #608]
  4027b8:	91098210 	add	x16, x16, #0x260
  4027bc:	d61f0220 	br	x17

00000000004027c0 <sox_effects_clips@plt>:
  4027c0:	d00000f0 	adrp	x16, 420000 <fputs@GLIBC_2.17>
  4027c4:	f9413611 	ldr	x17, [x16, #616]
  4027c8:	9109a210 	add	x16, x16, #0x268
  4027cc:	d61f0220 	br	x17

00000000004027d0 <sox_is_playlist@plt>:
  4027d0:	d00000f0 	adrp	x16, 420000 <fputs@GLIBC_2.17>
  4027d4:	f9413a11 	ldr	x17, [x16, #624]
  4027d8:	9109c210 	add	x16, x16, #0x270
  4027dc:	d61f0220 	br	x17

00000000004027e0 <sox_num_comments@plt>:
  4027e0:	d00000f0 	adrp	x16, 420000 <fputs@GLIBC_2.17>
  4027e4:	f9413e11 	ldr	x17, [x16, #632]
  4027e8:	9109e210 	add	x16, x16, #0x278
  4027ec:	d61f0220 	br	x17

00000000004027f0 <lsx_malloc@plt>:
  4027f0:	d00000f0 	adrp	x16, 420000 <fputs@GLIBC_2.17>
  4027f4:	f9414211 	ldr	x17, [x16, #640]
  4027f8:	910a0210 	add	x16, x16, #0x280
  4027fc:	d61f0220 	br	x17

0000000000402800 <__errno_location@plt>:
  402800:	d00000f0 	adrp	x16, 420000 <fputs@GLIBC_2.17>
  402804:	f9414611 	ldr	x17, [x16, #648]
  402808:	910a2210 	add	x16, x16, #0x288
  40280c:	d61f0220 	br	x17

0000000000402810 <sox_trim_get_start@plt>:
  402810:	d00000f0 	adrp	x16, 420000 <fputs@GLIBC_2.17>
  402814:	f9414a11 	ldr	x17, [x16, #656]
  402818:	910a4210 	add	x16, x16, #0x290
  40281c:	d61f0220 	br	x17

0000000000402820 <fopen@plt>:
  402820:	d00000f0 	adrp	x16, 420000 <fputs@GLIBC_2.17>
  402824:	f9414e11 	ldr	x17, [x16, #664]
  402828:	910a6210 	add	x16, x16, #0x298
  40282c:	d61f0220 	br	x17

0000000000402830 <sox_get_effect_fns@plt>:
  402830:	d00000f0 	adrp	x16, 420000 <fputs@GLIBC_2.17>
  402834:	f9415211 	ldr	x17, [x16, #672]
  402838:	910a8210 	add	x16, x16, #0x2a0
  40283c:	d61f0220 	br	x17

0000000000402840 <strcmp@plt>:
  402840:	d00000f0 	adrp	x16, 420000 <fputs@GLIBC_2.17>
  402844:	f9415611 	ldr	x17, [x16, #680]
  402848:	910aa210 	add	x16, x16, #0x2a8
  40284c:	d61f0220 	br	x17

0000000000402850 <fgets@plt>:
  402850:	d00000f0 	adrp	x16, 420000 <fputs@GLIBC_2.17>
  402854:	f9415a11 	ldr	x17, [x16, #688]
  402858:	910ac210 	add	x16, x16, #0x2b0
  40285c:	d61f0220 	br	x17

0000000000402860 <sox_init@plt>:
  402860:	d00000f0 	adrp	x16, 420000 <fputs@GLIBC_2.17>
  402864:	f9415e11 	ldr	x17, [x16, #696]
  402868:	910ae210 	add	x16, x16, #0x2b8
  40286c:	d61f0220 	br	x17

0000000000402870 <lsx_strcasecmp@plt>:
  402870:	d00000f0 	adrp	x16, 420000 <fputs@GLIBC_2.17>
  402874:	f9416211 	ldr	x17, [x16, #704]
  402878:	910b0210 	add	x16, x16, #0x2c0
  40287c:	d61f0220 	br	x17

0000000000402880 <sox_format_init@plt>:
  402880:	d00000f0 	adrp	x16, 420000 <fputs@GLIBC_2.17>
  402884:	f9416611 	ldr	x17, [x16, #712]
  402888:	910b2210 	add	x16, x16, #0x2c8
  40288c:	d61f0220 	br	x17

0000000000402890 <sox_get_encodings_info@plt>:
  402890:	d00000f0 	adrp	x16, 420000 <fputs@GLIBC_2.17>
  402894:	f9416a11 	ldr	x17, [x16, #720]
  402898:	910b4210 	add	x16, x16, #0x2d0
  40289c:	d61f0220 	br	x17

00000000004028a0 <tcgetattr@plt>:
  4028a0:	d00000f0 	adrp	x16, 420000 <fputs@GLIBC_2.17>
  4028a4:	f9416e11 	ldr	x17, [x16, #728]
  4028a8:	910b6210 	add	x16, x16, #0x2d8
  4028ac:	d61f0220 	br	x17

00000000004028b0 <sox_find_comment@plt>:
  4028b0:	d00000f0 	adrp	x16, 420000 <fputs@GLIBC_2.17>
  4028b4:	f9417211 	ldr	x17, [x16, #736]
  4028b8:	910b8210 	add	x16, x16, #0x2e0
  4028bc:	d61f0220 	br	x17

00000000004028c0 <sox_write_handler@plt>:
  4028c0:	d00000f0 	adrp	x16, 420000 <fputs@GLIBC_2.17>
  4028c4:	f9417611 	ldr	x17, [x16, #744]
  4028c8:	910ba210 	add	x16, x16, #0x2e8
  4028cc:	d61f0220 	br	x17

00000000004028d0 <sox_init_encodinginfo@plt>:
  4028d0:	d00000f0 	adrp	x16, 420000 <fputs@GLIBC_2.17>
  4028d4:	f9417a11 	ldr	x17, [x16, #752]
  4028d8:	910bc210 	add	x16, x16, #0x2f0
  4028dc:	d61f0220 	br	x17

00000000004028e0 <abort@plt>:
  4028e0:	d00000f0 	adrp	x16, 420000 <fputs@GLIBC_2.17>
  4028e4:	f9417e11 	ldr	x17, [x16, #760]
  4028e8:	910be210 	add	x16, x16, #0x2f8
  4028ec:	d61f0220 	br	x17

00000000004028f0 <getenv@plt>:
  4028f0:	d00000f0 	adrp	x16, 420000 <fputs@GLIBC_2.17>
  4028f4:	f9418211 	ldr	x17, [x16, #768]
  4028f8:	910c0210 	add	x16, x16, #0x300
  4028fc:	d61f0220 	br	x17

0000000000402900 <strcasecmp@plt>:
  402900:	d00000f0 	adrp	x16, 420000 <fputs@GLIBC_2.17>
  402904:	f9418611 	ldr	x17, [x16, #776]
  402908:	910c2210 	add	x16, x16, #0x308
  40290c:	d61f0220 	br	x17

0000000000402910 <tcsetattr@plt>:
  402910:	d00000f0 	adrp	x16, 420000 <fputs@GLIBC_2.17>
  402914:	f9418a11 	ldr	x17, [x16, #784]
  402918:	910c4210 	add	x16, x16, #0x310
  40291c:	d61f0220 	br	x17

0000000000402920 <exit@plt>:
  402920:	d00000f0 	adrp	x16, 420000 <fputs@GLIBC_2.17>
  402924:	f9418e11 	ldr	x17, [x16, #792]
  402928:	910c6210 	add	x16, x16, #0x318
  40292c:	d61f0220 	br	x17

0000000000402930 <strtod@plt>:
  402930:	d00000f0 	adrp	x16, 420000 <fputs@GLIBC_2.17>
  402934:	f9419211 	ldr	x17, [x16, #800]
  402938:	910c8210 	add	x16, x16, #0x320
  40293c:	d61f0220 	br	x17

0000000000402940 <pow@plt>:
  402940:	d00000f0 	adrp	x16, 420000 <fputs@GLIBC_2.17>
  402944:	f9419611 	ldr	x17, [x16, #808]
  402948:	910ca210 	add	x16, x16, #0x328
  40294c:	d61f0220 	br	x17

0000000000402950 <fwrite@plt>:
  402950:	d00000f0 	adrp	x16, 420000 <fputs@GLIBC_2.17>
  402954:	f9419a11 	ldr	x17, [x16, #816]
  402958:	910cc210 	add	x16, x16, #0x330
  40295c:	d61f0220 	br	x17

0000000000402960 <sox_basename@plt>:
  402960:	d00000f0 	adrp	x16, 420000 <fputs@GLIBC_2.17>
  402964:	f9419e11 	ldr	x17, [x16, #824]
  402968:	910ce210 	add	x16, x16, #0x338
  40296c:	d61f0220 	br	x17

0000000000402970 <globfree@plt>:
  402970:	d00000f0 	adrp	x16, 420000 <fputs@GLIBC_2.17>
  402974:	f941a211 	ldr	x17, [x16, #832]
  402978:	910d0210 	add	x16, x16, #0x340
  40297c:	d61f0220 	br	x17

0000000000402980 <sox_get_effects_globals@plt>:
  402980:	d00000f0 	adrp	x16, 420000 <fputs@GLIBC_2.17>
  402984:	f941a611 	ldr	x17, [x16, #840]
  402988:	910d2210 	add	x16, x16, #0x348
  40298c:	d61f0220 	br	x17

0000000000402990 <ferror@plt>:
  402990:	d00000f0 	adrp	x16, 420000 <fputs@GLIBC_2.17>
  402994:	f941aa11 	ldr	x17, [x16, #848]
  402998:	910d4210 	add	x16, x16, #0x350
  40299c:	d61f0220 	br	x17

00000000004029a0 <sox_seek@plt>:
  4029a0:	d00000f0 	adrp	x16, 420000 <fputs@GLIBC_2.17>
  4029a4:	f941ae11 	ldr	x17, [x16, #856]
  4029a8:	910d6210 	add	x16, x16, #0x358
  4029ac:	d61f0220 	br	x17

00000000004029b0 <strncasecmp@plt>:
  4029b0:	d00000f0 	adrp	x16, 420000 <fputs@GLIBC_2.17>
  4029b4:	f941b211 	ldr	x17, [x16, #864]
  4029b8:	910d8210 	add	x16, x16, #0x360
  4029bc:	d61f0220 	br	x17

00000000004029c0 <stpcpy@plt>:
  4029c0:	d00000f0 	adrp	x16, 420000 <fputs@GLIBC_2.17>
  4029c4:	f941b611 	ldr	x17, [x16, #872]
  4029c8:	910da210 	add	x16, x16, #0x368
  4029cc:	d61f0220 	br	x17

00000000004029d0 <fcntl@plt>:
  4029d0:	d00000f0 	adrp	x16, 420000 <fputs@GLIBC_2.17>
  4029d4:	f941ba11 	ldr	x17, [x16, #880]
  4029d8:	910dc210 	add	x16, x16, #0x370
  4029dc:	d61f0220 	br	x17

00000000004029e0 <__gmon_start__@plt>:
  4029e0:	d00000f0 	adrp	x16, 420000 <fputs@GLIBC_2.17>
  4029e4:	f941be11 	ldr	x17, [x16, #888]
  4029e8:	910de210 	add	x16, x16, #0x378
  4029ec:	d61f0220 	br	x17

00000000004029f0 <sigaction@plt>:
  4029f0:	d00000f0 	adrp	x16, 420000 <fputs@GLIBC_2.17>
  4029f4:	f941c211 	ldr	x17, [x16, #896]
  4029f8:	910e0210 	add	x16, x16, #0x380
  4029fc:	d61f0220 	br	x17

0000000000402a00 <sox_create_effects_chain@plt>:
  402a00:	d00000f0 	adrp	x16, 420000 <fputs@GLIBC_2.17>
  402a04:	f941c611 	ldr	x17, [x16, #904]
  402a08:	910e2210 	add	x16, x16, #0x388
  402a0c:	d61f0220 	br	x17

0000000000402a10 <sox_flow_effects@plt>:
  402a10:	d00000f0 	adrp	x16, 420000 <fputs@GLIBC_2.17>
  402a14:	f941ca11 	ldr	x17, [x16, #912]
  402a18:	910e4210 	add	x16, x16, #0x390
  402a1c:	d61f0220 	br	x17

0000000000402a20 <lsx_sigfigs3p@plt>:
  402a20:	d00000f0 	adrp	x16, 420000 <fputs@GLIBC_2.17>
  402a24:	f941ce11 	ldr	x17, [x16, #920]
  402a28:	910e6210 	add	x16, x16, #0x398
  402a2c:	d61f0220 	br	x17

0000000000402a30 <strcat@plt>:
  402a30:	d00000f0 	adrp	x16, 420000 <fputs@GLIBC_2.17>
  402a34:	f941d211 	ldr	x17, [x16, #928]
  402a38:	910e8210 	add	x16, x16, #0x3a0
  402a3c:	d61f0220 	br	x17

0000000000402a40 <printf@plt>:
  402a40:	d00000f0 	adrp	x16, 420000 <fputs@GLIBC_2.17>
  402a44:	f941d611 	ldr	x17, [x16, #936]
  402a48:	910ea210 	add	x16, x16, #0x3a8
  402a4c:	d61f0220 	br	x17

0000000000402a50 <vfprintf@plt>:
  402a50:	d00000f0 	adrp	x16, 420000 <fputs@GLIBC_2.17>
  402a54:	f941da11 	ldr	x17, [x16, #944]
  402a58:	910ec210 	add	x16, x16, #0x3b0
  402a5c:	d61f0220 	br	x17

0000000000402a60 <sqrt@plt>:
  402a60:	d00000f0 	adrp	x16, 420000 <fputs@GLIBC_2.17>
  402a64:	f941de11 	ldr	x17, [x16, #952]
  402a68:	910ee210 	add	x16, x16, #0x3b8
  402a6c:	d61f0220 	br	x17

Disassembly of section .text:

0000000000402a80 <main>:
  402a80:	a9a37bfd 	stp	x29, x30, [sp, #-464]!
  402a84:	b00000e2 	adrp	x2, 41f000 <__FRAME_END__+0x11414>
  402a88:	91370042 	add	x2, x2, #0xdc0
  402a8c:	910003fd 	mov	x29, sp
  402a90:	a90153f3 	stp	x19, x20, [sp, #16]
  402a94:	aa0103f3 	mov	x19, x1
  402a98:	d00000f4 	adrp	x20, 420000 <fputs@GLIBC_2.17>
  402a9c:	a9025bf5 	stp	x21, x22, [sp, #32]
  402aa0:	a90363f7 	stp	x23, x24, [sp, #48]
  402aa4:	a9046bf9 	stp	x25, x26, [sp, #64]
  402aa8:	a90573fb 	stp	x27, x28, [sp, #80]
  402aac:	9112c29c 	add	x28, x20, #0x4b0
  402ab0:	b90083e0 	str	w0, [sp, #128]
  402ab4:	f90047e1 	str	x1, [sp, #136]
  402ab8:	d2800001 	mov	x1, #0x0                   	// #0
  402abc:	6d0627e8 	stp	d8, d9, [sp, #96]
  402ac0:	f9400040 	ldr	x0, [x2]
  402ac4:	f900e7e0 	str	x0, [sp, #456]
  402ac8:	d2800000 	mov	x0, #0x0                   	// #0
  402acc:	91148380 	add	x0, x28, #0x520
  402ad0:	97fffebc 	bl	4025c0 <gettimeofday@plt>
  402ad4:	f9400273 	ldr	x19, [x19]
  402ad8:	f9025a93 	str	x19, [x20, #1200]
  402adc:	97ffff0d 	bl	402710 <sox_get_globals@plt>
  402ae0:	d0000001 	adrp	x1, 404000 <main+0x1580>
  402ae4:	913ec021 	add	x1, x1, #0xfb0
  402ae8:	f9000401 	str	x1, [x0, #8]
  402aec:	aa1303e2 	mov	x2, x19
  402af0:	910703e0 	add	x0, sp, #0x1c0
  402af4:	d28000c1 	mov	x1, #0x6                   	// #6
  402af8:	97ffff9a 	bl	402960 <sox_basename@plt>
  402afc:	b4001260 	cbz	x0, 402d48 <main+0x2c8>
  402b00:	90000041 	adrp	x1, 40a000 <__dso_handle+0x858>
  402b04:	910703e0 	add	x0, sp, #0x1c0
  402b08:	912fc021 	add	x1, x1, #0xbf0
  402b0c:	97ffff59 	bl	402870 <lsx_strcasecmp@plt>
  402b10:	35001080 	cbnz	w0, 402d20 <main+0x2a0>
  402b14:	52800020 	mov	w0, #0x1                   	// #1
  402b18:	b903b380 	str	w0, [x28, #944]
  402b1c:	97ffff51 	bl	402860 <sox_init@plt>
  402b20:	2a0003f3 	mov	w19, w0
  402b24:	3500eea0 	cbnz	w0, 4048f8 <main+0x1e78>
  402b28:	d00000e0 	adrp	x0, 420000 <fputs@GLIBC_2.17>
  402b2c:	f9424800 	ldr	x0, [x0, #1168]
  402b30:	97fffe38 	bl	402410 <fileno@plt>
  402b34:	97fffe77 	bl	402510 <isatty@plt>
  402b38:	b904e380 	str	w0, [x28, #1248]
  402b3c:	97ffff31 	bl	402800 <__errno_location@plt>
  402b40:	aa0003e2 	mov	x2, x0
  402b44:	b0000021 	adrp	x1, 407000 <cleanup+0x16c>
  402b48:	91029020 	add	x0, x1, #0xa4
  402b4c:	f90057e2 	str	x2, [sp, #168]
  402b50:	b900005f 	str	wzr, [x2]
  402b54:	94001b07 	bl	409770 <atexit>
  402b58:	b943b380 	ldr	w0, [x28, #944]
  402b5c:	71000c1f 	cmp	w0, #0x3
  402b60:	5400f980 	b.eq	404a90 <main+0x2010>  // b.none
  402b64:	b94083e0 	ldr	w0, [sp, #128]
  402b68:	f94047e1 	ldr	x1, [sp, #136]
  402b6c:	9400198d 	bl	4091a0 <parse_options_and_filenames>
  402b70:	97fffee8 	bl	402710 <sox_get_globals@plt>
  402b74:	b9400000 	ldr	w0, [x0]
  402b78:	7100081f 	cmp	w0, #0x2
  402b7c:	5400d7c8 	b.hi	404674 <main+0x1bf4>  // b.pmore
  402b80:	f941d780 	ldr	x0, [x28, #936]
  402b84:	b50010c0 	cbnz	x0, 402d9c <main+0x31c>
  402b88:	f901a79f 	str	xzr, [x28, #840]
  402b8c:	d00000e0 	adrp	x0, 420000 <fputs@GLIBC_2.17>
  402b90:	b943c801 	ldr	w1, [x0, #968]
  402b94:	7100183f 	cmp	w1, #0x6
  402b98:	540000a1 	b.ne	402bac <main+0x12c>  // b.any
  402b9c:	b944e781 	ldr	w1, [x28, #1252]
  402ba0:	7100003f 	cmp	w1, #0x0
  402ba4:	1a9f17e1 	cset	w1, eq  // eq = none
  402ba8:	b903c801 	str	w1, [x0, #968]
  402bac:	b943c801 	ldr	w1, [x0, #968]
  402bb0:	f941a797 	ldr	x23, [x28, #840]
  402bb4:	35000061 	cbnz	w1, 402bc0 <main+0x140>
  402bb8:	f10006ff 	cmp	x23, #0x1
  402bbc:	5400da20 	b.eq	404700 <main+0x1c80>  // b.none
  402bc0:	b400f497 	cbz	x23, 404a50 <main+0x1fd0>
  402bc4:	f941df98 	ldr	x24, [x28, #952]
  402bc8:	92f00201 	mov	x1, #0x7fefffffffffffff    	// #9218868437227405311
  402bcc:	d2800000 	mov	x0, #0x0                   	// #0
  402bd0:	9e670021 	fmov	d1, x1
  402bd4:	d503201f 	nop
  402bd8:	f8607b01 	ldr	x1, [x24, x0, lsl #3]
  402bdc:	fd401c20 	ldr	d0, [x1, #56]
  402be0:	1e612000 	fcmp	d0, d1
  402be4:	5400f3cd 	b.le	404a5c <main+0x1fdc>
  402be8:	f9403021 	ldr	x1, [x1, #96]
  402bec:	b500f3e1 	cbnz	x1, 404a68 <main+0x1fe8>
  402bf0:	91000400 	add	x0, x0, #0x1
  402bf4:	eb17001f 	cmp	x0, x23
  402bf8:	54ffff03 	b.cc	402bd8 <main+0x158>  // b.lo, b.ul, b.last
  402bfc:	f941d780 	ldr	x0, [x28, #936]
  402c00:	8b000f00 	add	x0, x24, x0, lsl #3
  402c04:	f85f8000 	ldur	x0, [x0, #-8]
  402c08:	fd402800 	ldr	d0, [x0, #80]
  402c0c:	1e612000 	fcmp	d0, d1
  402c10:	5400f32d 	b.le	404a74 <main+0x1ff4>
  402c14:	f9401000 	ldr	x0, [x0, #32]
  402c18:	f90053e0 	str	x0, [sp, #160]
  402c1c:	b500f340 	cbnz	x0, 404a84 <main+0x2004>
  402c20:	9103c3e0 	add	x0, sp, #0xf0
  402c24:	d2800034 	mov	x20, #0x1                   	// #1
  402c28:	f90077f4 	str	x20, [sp, #232]
  402c2c:	97fffe1d 	bl	4024a0 <sigemptyset@plt>
  402c30:	9103a3e1 	add	x1, sp, #0xe8
  402c34:	d2800002 	mov	x2, #0x0                   	// #0
  402c38:	52800040 	mov	w0, #0x2                   	// #2
  402c3c:	b90173ff 	str	wzr, [sp, #368]
  402c40:	97ffff6c 	bl	4029f0 <sigaction@plt>
  402c44:	d00000f5 	adrp	x21, 420000 <fputs@GLIBC_2.17>
  402c48:	d280001b 	mov	x27, #0x0                   	// #0
  402c4c:	910f22b5 	add	x21, x21, #0x3c8
  402c50:	1e6e1008 	fmov	d8, #1.000000000000000000e+00
  402c54:	14000017 	b	402cb0 <main+0x230>
  402c58:	71000c1f 	cmp	w0, #0x3
  402c5c:	540018c0 	b.eq	402f74 <main+0x4f4>  // b.none
  402c60:	b943b380 	ldr	w0, [x28, #944]
  402c64:	f100027f 	cmp	x19, #0x0
  402c68:	910042c1 	add	x1, x22, #0x10
  402c6c:	9100c2c2 	add	x2, x22, #0x30
  402c70:	7a420800 	ccmp	w0, #0x2, #0x0, eq  // eq = none
  402c74:	54000400 	b.eq	402cf4 <main+0x274>  // b.none
  402c78:	a9400ec0 	ldp	x0, x3, [x22]
  402c7c:	97fffe59 	bl	4025e0 <sox_open_read@plt>
  402c80:	f9009ec0 	str	x0, [x22, #312]
  402c84:	f941df98 	ldr	x24, [x28, #952]
  402c88:	f8737b00 	ldr	x0, [x24, x19, lsl #3]
  402c8c:	f9409c00 	ldr	x0, [x0, #312]
  402c90:	b400dcc0 	cbz	x0, 404828 <main+0x1da8>
  402c94:	b94012a1 	ldr	w1, [x21, #16]
  402c98:	7100083f 	cmp	w1, #0x2
  402c9c:	540009e0 	b.eq	402dd8 <main+0x358>  // b.none
  402ca0:	f941a797 	ldr	x23, [x28, #840]
  402ca4:	9100077b 	add	x27, x27, #0x1
  402ca8:	eb1b02ff 	cmp	x23, x27
  402cac:	54000a89 	b.ls	402dfc <main+0x37c>  // b.plast
  402cb0:	d10006f3 	sub	x19, x23, #0x1
  402cb4:	b94002a0 	ldr	w0, [x21]
  402cb8:	cb1b0273 	sub	x19, x19, x27
  402cbc:	f8737b16 	ldr	x22, [x24, x19, lsl #3]
  402cc0:	7100081f 	cmp	w0, #0x2
  402cc4:	54fffca1 	b.ne	402c58 <main+0x1d8>  // b.any
  402cc8:	b944db80 	ldr	w0, [x28, #1240]
  402ccc:	35fffca0 	cbnz	w0, 402c60 <main+0x1e0>
  402cd0:	9e6302e0 	ucvtf	d0, x23
  402cd4:	b943b380 	ldr	w0, [x28, #944]
  402cd8:	f100027f 	cmp	x19, #0x0
  402cdc:	910042c1 	add	x1, x22, #0x10
  402ce0:	9100c2c2 	add	x2, x22, #0x30
  402ce4:	7a420800 	ccmp	w0, #0x2, #0x0, eq  // eq = none
  402ce8:	1e601900 	fdiv	d0, d8, d0
  402cec:	fd002ac0 	str	d0, [x22, #80]
  402cf0:	54fffc41 	b.ne	402c78 <main+0x1f8>  // b.any
  402cf4:	f9400700 	ldr	x0, [x24, #8]
  402cf8:	f10006ff 	cmp	x23, #0x1
  402cfc:	5400b080 	b.eq	40430c <main+0x188c>  // b.none
  402d00:	f9409c00 	ldr	x0, [x0, #312]
  402d04:	3cc08002 	ldur	q2, [x0, #8]
  402d08:	3cc18003 	ldur	q3, [x0, #24]
  402d0c:	3cc28000 	ldur	q0, [x0, #40]
  402d10:	3cc38001 	ldur	q1, [x0, #56]
  402d14:	ad000c22 	stp	q2, q3, [x1]
  402d18:	ad000440 	stp	q0, q1, [x2]
  402d1c:	17ffffd7 	b	402c78 <main+0x1f8>
  402d20:	90000041 	adrp	x1, 40a000 <__dso_handle+0x858>
  402d24:	910703e0 	add	x0, sp, #0x1c0
  402d28:	912fe021 	add	x1, x1, #0xbf8
  402d2c:	97fffed1 	bl	402870 <lsx_strcasecmp@plt>
  402d30:	3400cec0 	cbz	w0, 404708 <main+0x1c88>
  402d34:	90000041 	adrp	x1, 40a000 <__dso_handle+0x858>
  402d38:	910703e0 	add	x0, sp, #0x1c0
  402d3c:	91300021 	add	x1, x1, #0xc00
  402d40:	97fffecc 	bl	402870 <lsx_strcasecmp@plt>
  402d44:	34000260 	cbz	w0, 402d90 <main+0x310>
  402d48:	b943b380 	ldr	w0, [x28, #944]
  402d4c:	7100001f 	cmp	w0, #0x0
  402d50:	b94083e0 	ldr	w0, [sp, #128]
  402d54:	7a410804 	ccmp	w0, #0x1, #0x4, eq  // eq = none
  402d58:	54ffee2d 	b.le	402b1c <main+0x9c>
  402d5c:	f94047e0 	ldr	x0, [sp, #136]
  402d60:	90000041 	adrp	x1, 40a000 <__dso_handle+0x858>
  402d64:	91302021 	add	x1, x1, #0xc08
  402d68:	f9400413 	ldr	x19, [x0, #8]
  402d6c:	aa1303e0 	mov	x0, x19
  402d70:	97fffeb4 	bl	402840 <strcmp@plt>
  402d74:	3500cd00 	cbnz	w0, 404714 <main+0x1c94>
  402d78:	b94083e0 	ldr	w0, [sp, #128]
  402d7c:	51000400 	sub	w0, w0, #0x1
  402d80:	b90083e0 	str	w0, [sp, #128]
  402d84:	f94047e0 	ldr	x0, [sp, #136]
  402d88:	91002000 	add	x0, x0, #0x8
  402d8c:	f90047e0 	str	x0, [sp, #136]
  402d90:	52800060 	mov	w0, #0x3                   	// #3
  402d94:	b903b380 	str	w0, [x28, #944]
  402d98:	17ffff61 	b	402b1c <main+0x9c>
  402d9c:	f941df81 	ldr	x1, [x28, #952]
  402da0:	d1000403 	sub	x3, x0, #0x1
  402da4:	d2800002 	mov	x2, #0x0                   	// #0
  402da8:	f901a783 	str	x3, [x28, #840]
  402dac:	8b000c20 	add	x0, x1, x0, lsl #3
  402db0:	f85f8001 	ldur	x1, [x0, #-8]
  402db4:	a9400420 	ldp	x0, x1, [x1]
  402db8:	97fffec2 	bl	4028c0 <sox_write_handler@plt>
  402dbc:	b400d240 	cbz	x0, 404804 <main+0x1d84>
  402dc0:	f9400c00 	ldr	x0, [x0, #24]
  402dc4:	927f0400 	and	x0, x0, #0x6
  402dc8:	f100081f 	cmp	x0, #0x2
  402dcc:	1a9f17e0 	cset	w0, eq  // eq = none
  402dd0:	b904e780 	str	w0, [x28, #1252]
  402dd4:	17ffff6e 	b	402b8c <main+0x10c>
  402dd8:	f9413c00 	ldr	x0, [x0, #632]
  402ddc:	927f0400 	and	x0, x0, #0x6
  402de0:	f100081f 	cmp	x0, #0x2
  402de4:	54fff5e1 	b.ne	402ca0 <main+0x220>  // b.any
  402de8:	f941a797 	ldr	x23, [x28, #840]
  402dec:	9100077b 	add	x27, x27, #0x1
  402df0:	b90012b4 	str	w20, [x21, #16]
  402df4:	eb1b02ff 	cmp	x23, x27
  402df8:	54fff5c8 	b.hi	402cb0 <main+0x230>  // b.pmore
  402dfc:	b9401aa0 	ldr	w0, [x21, #24]
  402e00:	71000c1f 	cmp	w0, #0x3
  402e04:	5400c2a0 	b.eq	404658 <main+0x1bd8>  // b.none
  402e08:	f941a780 	ldr	x0, [x28, #840]
  402e0c:	d2800016 	mov	x22, #0x0                   	// #0
  402e10:	b4000520 	cbz	x0, 402eb4 <main+0x434>
  402e14:	90000041 	adrp	x1, 40a000 <__dso_handle+0x858>
  402e18:	90000040 	adrp	x0, 40a000 <__dso_handle+0x858>
  402e1c:	912bc021 	add	x1, x1, #0xaf0
  402e20:	912b6000 	add	x0, x0, #0xad8
  402e24:	a90903e1 	stp	x1, x0, [sp, #144]
  402e28:	b9401ab7 	ldr	w23, [x21, #24]
  402e2c:	f941df80 	ldr	x0, [x28, #952]
  402e30:	f8767818 	ldr	x24, [x0, x22, lsl #3]
  402e34:	f9409f00 	ldr	x0, [x24, #312]
  402e38:	f9402814 	ldr	x20, [x0, #80]
  402e3c:	aa1403e0 	mov	x0, x20
  402e40:	97fffe68 	bl	4027e0 <sox_num_comments@plt>
  402e44:	aa0003f3 	mov	x19, x0
  402e48:	340002f7 	cbz	w23, 402ea4 <main+0x424>
  402e4c:	52800040 	mov	w0, #0x2                   	// #2
  402e50:	b9007be0 	str	w0, [sp, #120]
  402e54:	a94903e1 	ldp	x1, x0, [sp, #144]
  402e58:	710006ff 	cmp	w23, #0x1
  402e5c:	9a810019 	csel	x25, x0, x1, eq  // eq = none
  402e60:	b400a0d3 	cbz	x19, 404278 <main+0x17f8>
  402e64:	d280001a 	mov	x26, #0x0                   	// #0
  402e68:	14000004 	b	402e78 <main+0x3f8>
  402e6c:	9100075a 	add	x26, x26, #0x1
  402e70:	eb1a027f 	cmp	x19, x26
  402e74:	5400a020 	b.eq	404278 <main+0x17f8>  // b.none
  402e78:	f87a7a9b 	ldr	x27, [x20, x26, lsl #3]
  402e7c:	aa1903e1 	mov	x1, x25
  402e80:	d28002c2 	mov	x2, #0x16                  	// #22
  402e84:	aa1b03e0 	mov	x0, x27
  402e88:	97fffeca 	bl	4029b0 <strncasecmp@plt>
  402e8c:	35ffff00 	cbnz	w0, 402e6c <main+0x3ec>
  402e90:	91005b60 	add	x0, x27, #0x16
  402e94:	d2800001 	mov	x1, #0x0                   	// #0
  402e98:	97fffea6 	bl	402930 <strtod@plt>
  402e9c:	b9014b17 	str	w23, [x24, #328]
  402ea0:	fd002f00 	str	d0, [x24, #88]
  402ea4:	f941a780 	ldr	x0, [x28, #840]
  402ea8:	910006d6 	add	x22, x22, #0x1
  402eac:	eb16001f 	cmp	x0, x22
  402eb0:	54fffbc8 	b.hi	402e28 <main+0x3a8>  // b.pmore
  402eb4:	9103c3e0 	add	x0, sp, #0xf0
  402eb8:	f90077ff 	str	xzr, [sp, #232]
  402ebc:	97fffd79 	bl	4024a0 <sigemptyset@plt>
  402ec0:	b90173ff 	str	wzr, [sp, #368]
  402ec4:	9103a3e1 	add	x1, sp, #0xe8
  402ec8:	d2800002 	mov	x2, #0x0                   	// #0
  402ecc:	52800040 	mov	w0, #0x2                   	// #2
  402ed0:	97fffec8 	bl	4029f0 <sigaction@plt>
  402ed4:	940009d4 	bl	405624 <add_eff_chain>
  402ed8:	b94083e0 	ldr	w0, [sp, #128]
  402edc:	f94047e1 	ldr	x1, [sp, #136]
  402ee0:	940009f8 	bl	4056c0 <parse_effects>
  402ee4:	f9419b80 	ldr	x0, [x28, #816]
  402ee8:	b94012a1 	ldr	w1, [x21, #16]
  402eec:	91000400 	add	x0, x0, #0x1
  402ef0:	f9019b80 	str	x0, [x28, #816]
  402ef4:	35000561 	cbnz	w1, 402fa0 <main+0x520>
  402ef8:	f9419f80 	ldr	x0, [x28, #824]
  402efc:	f9429b81 	ldr	x1, [x28, #1328]
  402f00:	f8617813 	ldr	x19, [x0, x1, lsl #3]
  402f04:	b50004f3 	cbnz	x19, 402fa0 <main+0x520>
  402f08:	f941d780 	ldr	x0, [x28, #936]
  402f0c:	f941df81 	ldr	x1, [x28, #952]
  402f10:	8b000c20 	add	x0, x1, x0, lsl #3
  402f14:	f85f8000 	ldur	x0, [x0, #-8]
  402f18:	f9400400 	ldr	x0, [x0, #8]
  402f1c:	b4000420 	cbz	x0, 402fa0 <main+0x520>
  402f20:	90000041 	adrp	x1, 40a000 <__dso_handle+0x858>
  402f24:	912a2021 	add	x1, x1, #0xa88
  402f28:	97fffe46 	bl	402840 <strcmp@plt>
  402f2c:	350003a0 	cbnz	w0, 402fa0 <main+0x520>
  402f30:	f941a780 	ldr	x0, [x28, #840]
  402f34:	b50000c0 	cbnz	x0, 402f4c <main+0x4cc>
  402f38:	14000663 	b	4048c4 <main+0x1e44>
  402f3c:	f941a780 	ldr	x0, [x28, #840]
  402f40:	91000673 	add	x19, x19, #0x1
  402f44:	eb13001f 	cmp	x0, x19
  402f48:	5400cbe9 	b.ls	4048c4 <main+0x1e44>  // b.plast
  402f4c:	97fffdf1 	bl	402710 <sox_get_globals@plt>
  402f50:	b9400000 	ldr	w0, [x0]
  402f54:	7100081f 	cmp	w0, #0x2
  402f58:	54ffff29 	b.ls	402f3c <main+0x4bc>  // b.plast
  402f5c:	f941df80 	ldr	x0, [x28, #952]
  402f60:	52800022 	mov	w2, #0x1                   	// #1
  402f64:	f8737801 	ldr	x1, [x0, x19, lsl #3]
  402f68:	f9409c20 	ldr	x0, [x1, #312]
  402f6c:	940013d2 	bl	407eb4 <display_file_info>
  402f70:	17fffff3 	b	402f3c <main+0x4bc>
  402f74:	b944db80 	ldr	w0, [x28, #1240]
  402f78:	35ffe740 	cbnz	w0, 402c60 <main+0x1e0>
  402f7c:	9e6302e0 	ucvtf	d0, x23
  402f80:	1e602008 	fcmp	d0, #0.0
  402f84:	54000065 	b.pl	402f90 <main+0x510>  // b.nfrst
  402f88:	97fffeb6 	bl	402a60 <sqrt@plt>
  402f8c:	14000002 	b	402f94 <main+0x514>
  402f90:	1e61c000 	fsqrt	d0, d0
  402f94:	1e601900 	fdiv	d0, d8, d0
  402f98:	fd002ac0 	str	d0, [x22, #80]
  402f9c:	17ffff31 	b	402c60 <main+0x1e0>
  402fa0:	97fffddc 	bl	402710 <sox_get_globals@plt>
  402fa4:	b9401000 	ldr	w0, [x0, #16]
  402fa8:	3400b6e0 	cbz	w0, 404684 <main+0x1c04>
  402fac:	f941d782 	ldr	x2, [x28, #936]
  402fb0:	9114e381 	add	x1, x28, #0x538
  402fb4:	f941df83 	ldr	x3, [x28, #952]
  402fb8:	91156380 	add	x0, x28, #0x558
  402fbc:	f9425f98 	ldr	x24, [x28, #1208]
  402fc0:	8b020c62 	add	x2, x3, x2, lsl #3
  402fc4:	f85f8042 	ldur	x2, [x2, #-8]
  402fc8:	ad408c42 	ldp	q2, q3, [x2, #16]
  402fcc:	ad418440 	ldp	q0, q1, [x2, #48]
  402fd0:	ad000c22 	stp	q2, q3, [x1]
  402fd4:	ad000400 	stp	q0, q1, [x0]
  402fd8:	b4000858 	cbz	x24, 4030e0 <main+0x660>
  402fdc:	90000041 	adrp	x1, 40a000 <__dso_handle+0x858>
  402fe0:	91140021 	add	x1, x1, #0x500
  402fe4:	aa1803e0 	mov	x0, x24
  402fe8:	97fffe0e 	bl	402820 <fopen@plt>
  402fec:	aa0003f4 	mov	x20, x0
  402ff0:	d2808000 	mov	x0, #0x400                 	// #1024
  402ff4:	97fffdff 	bl	4027f0 <lsx_malloc@plt>
  402ff8:	aa0003f3 	mov	x19, x0
  402ffc:	9400090e 	bl	405434 <delete_eff_chains>
  403000:	f9029b9f 	str	xzr, [x28, #1328]
  403004:	94000988 	bl	405624 <add_eff_chain>
  403008:	b400d074 	cbz	x20, 404a14 <main+0x1f94>
  40300c:	97fffdc1 	bl	402710 <sox_get_globals@plt>
  403010:	5280001b 	mov	w27, #0x0                   	// #0
  403014:	d0000021 	adrp	x1, 409000 <combiner_drain+0x44c>
  403018:	f0000022 	adrp	x2, 40a000 <__dso_handle+0x858>
  40301c:	9128803a 	add	x26, x1, #0xa20
  403020:	f900201a 	str	x26, [x0, #64]
  403024:	aa1803e1 	mov	x1, x24
  403028:	91374040 	add	x0, x2, #0xdd0
  40302c:	97fffdc9 	bl	402750 <lsx_report_impl@plt>
  403030:	52800017 	mov	w23, #0x0                   	// #0
  403034:	f0000020 	adrp	x0, 40a000 <__dso_handle+0x858>
  403038:	d2808019 	mov	x25, #0x400                 	// #1024
  40303c:	91010000 	add	x0, x0, #0x40
  403040:	f90043e0 	str	x0, [sp, #128]
  403044:	8b37c276 	add	x22, x19, w23, sxtw
  403048:	4b170321 	sub	w1, w25, w23
  40304c:	aa1603e0 	mov	x0, x22
  403050:	aa1403e2 	mov	x2, x20
  403054:	b9007be1 	str	w1, [sp, #120]
  403058:	97fffdfe 	bl	402850 <fgets@plt>
  40305c:	b9407be1 	ldr	w1, [sp, #120]
  403060:	b4000260 	cbz	x0, 4030ac <main+0x62c>
  403064:	aa1603e0 	mov	x0, x22
  403068:	b9007be1 	str	w1, [sp, #120]
  40306c:	97fffcd5 	bl	4023c0 <strlen@plt>
  403070:	aa0003f6 	mov	x22, x0
  403074:	b9407be1 	ldr	w1, [sp, #120]
  403078:	340000e0 	cbz	w0, 403094 <main+0x614>
  40307c:	0b0002e0 	add	w0, w23, w0
  403080:	93407c00 	sxtw	x0, w0
  403084:	d1000400 	sub	x0, x0, #0x1
  403088:	38606a62 	ldrb	w2, [x19, x0]
  40308c:	7100285f 	cmp	w2, #0xa
  403090:	5400bde0 	b.eq	40484c <main+0x1dcc>  // b.none
  403094:	51000421 	sub	w1, w1, #0x1
  403098:	6b16003f 	cmp	w1, w22
  40309c:	5400bca0 	b.eq	404830 <main+0x1db0>  // b.none
  4030a0:	aa1403e0 	mov	x0, x20
  4030a4:	97fffe3b 	bl	402990 <ferror@plt>
  4030a8:	3400c8a0 	cbz	w0, 4049bc <main+0x1f3c>
  4030ac:	aa1403e0 	mov	x0, x20
  4030b0:	97fffe38 	bl	402990 <ferror@plt>
  4030b4:	3500c960 	cbnz	w0, 4049e0 <main+0x1f60>
  4030b8:	aa1403e0 	mov	x0, x20
  4030bc:	97fffce5 	bl	402450 <fclose@plt>
  4030c0:	aa1303e0 	mov	x0, x19
  4030c4:	97fffcff 	bl	4024c0 <free@plt>
  4030c8:	3500007b 	cbnz	w27, 4030d4 <main+0x654>
  4030cc:	f9419b80 	ldr	x0, [x28, #816]
  4030d0:	b500b3a0 	cbnz	x0, 404744 <main+0x1cc4>
  4030d4:	f9419b80 	ldr	x0, [x28, #816]
  4030d8:	91000400 	add	x0, x0, #0x1
  4030dc:	f9019b80 	str	x0, [x28, #816]
  4030e0:	d0000033 	adrp	x19, 409000 <combiner_drain+0x44c>
  4030e4:	d2d09000 	mov	x0, #0x848000000000        	// #145685290680320
  4030e8:	91288273 	add	x19, x19, #0xa20
  4030ec:	f2e825c0 	movk	x0, #0x412e, lsl #48
  4030f0:	9e670009 	fmov	d9, x0
  4030f4:	d503201f 	nop
  4030f8:	f9419f81 	ldr	x1, [x28, #824]
  4030fc:	f9429b82 	ldr	x2, [x28, #1328]
  403100:	f942bf80 	ldr	x0, [x28, #1400]
  403104:	f8627837 	ldr	x23, [x1, x2, lsl #3]
  403108:	eb0002ff 	cmp	x23, x0
  40310c:	54006f68 	b.hi	403ef8 <main+0x1478>  // b.pmore
  403110:	f0000039 	adrp	x25, 40a000 <__dso_handle+0x858>
  403114:	d2800014 	mov	x20, #0x0                   	// #0
  403118:	913ae339 	add	x25, x25, #0xeb8
  40311c:	f0000038 	adrp	x24, 40a000 <__dso_handle+0x858>
  403120:	b5000277 	cbnz	x23, 40316c <main+0x6ec>
  403124:	1400002a 	b	4031cc <main+0x74c>
  403128:	37480440 	tbnz	w0, #9, 4031b0 <main+0x730>
  40312c:	3750bea0 	tbnz	w0, #10, 404900 <main+0x1e80>
  403130:	f941a381 	ldr	x1, [x28, #832]
  403134:	aa1a03e0 	mov	x0, x26
  403138:	f9429b82 	ldr	x2, [x28, #1328]
  40313c:	f8627822 	ldr	x2, [x1, x2, lsl #3]
  403140:	8b160042 	add	x2, x2, x22
  403144:	b9400841 	ldr	w1, [x2, #8]
  403148:	f9400842 	ldr	x2, [x2, #16]
  40314c:	97fffd95 	bl	4027a0 <sox_effect_options@plt>
  403150:	3100041f 	cmn	w0, #0x1
  403154:	5400bd20 	b.eq	4048f8 <main+0x1e78>  // b.none
  403158:	f9425780 	ldr	x0, [x28, #1192]
  40315c:	f834781a 	str	x26, [x0, x20, lsl #3]
  403160:	91000694 	add	x20, x20, #0x1
  403164:	eb1402ff 	cmp	x23, x20
  403168:	54000320 	b.eq	4031cc <main+0x74c>  // b.none
  40316c:	f941a380 	ldr	x0, [x28, #832]
  403170:	d37bea96 	lsl	x22, x20, #5
  403174:	f9429b81 	ldr	x1, [x28, #1328]
  403178:	f8617800 	ldr	x0, [x0, x1, lsl #3]
  40317c:	f8766800 	ldr	x0, [x0, x22]
  403180:	97fffcf0 	bl	402540 <sox_find_effect@plt>
  403184:	97fffd43 	bl	402690 <sox_create_effect@plt>
  403188:	aa0003fa 	mov	x26, x0
  40318c:	b9406800 	ldr	w0, [x0, #104]
  403190:	3637fcc0 	tbz	w0, #6, 403128 <main+0x6a8>
  403194:	97fffd5f 	bl	402710 <sox_get_globals@plt>
  403198:	aa0003e2 	mov	x2, x0
  40319c:	f9402f41 	ldr	x1, [x26, #88]
  4031a0:	9139e300 	add	x0, x24, #0xe78
  4031a4:	f9002053 	str	x19, [x2, #64]
  4031a8:	97fffcba 	bl	402490 <lsx_warn_impl@plt>
  4031ac:	17ffffe1 	b	403130 <main+0x6b0>
  4031b0:	97fffd58 	bl	402710 <sox_get_globals@plt>
  4031b4:	aa0003e2 	mov	x2, x0
  4031b8:	f9402f41 	ldr	x1, [x26, #88]
  4031bc:	aa1903e0 	mov	x0, x25
  4031c0:	f9002053 	str	x19, [x2, #64]
  4031c4:	97fffcb3 	bl	402490 <lsx_warn_impl@plt>
  4031c8:	17ffffda 	b	403130 <main+0x6b0>
  4031cc:	f941df9b 	ldr	x27, [x28, #952]
  4031d0:	f9428394 	ldr	x20, [x28, #1280]
  4031d4:	f941a799 	ldr	x25, [x28, #840]
  4031d8:	f8747b60 	ldr	x0, [x27, x20, lsl #3]
  4031dc:	b94002a9 	ldr	w9, [x21]
  4031e0:	f9409c08 	ldr	x8, [x0, #312]
  4031e4:	b40089f9 	cbz	x25, 404320 <main+0x18a0>
  4031e8:	f9419f80 	ldr	x0, [x28, #824]
  4031ec:	8b190f79 	add	x25, x27, x25, lsl #3
  4031f0:	f9429b81 	ldr	x1, [x28, #1328]
  4031f4:	aa1b03e5 	mov	x5, x27
  4031f8:	f9425784 	ldr	x4, [x28, #1192]
  4031fc:	52800026 	mov	w6, #0x1                   	// #1
  403200:	f8617803 	ldr	x3, [x0, x1, lsl #3]
  403204:	d503201f 	nop
  403208:	b40001a3 	cbz	x3, 40323c <main+0x7bc>
  40320c:	f94000a1 	ldr	x1, [x5]
  403210:	d2800000 	mov	x0, #0x0                   	// #0
  403214:	f9409c22 	ldr	x2, [x1, #312]
  403218:	b9401041 	ldr	w1, [x2, #16]
  40321c:	d503201f 	nop
  403220:	35000181 	cbnz	w1, 403250 <main+0x7d0>
  403224:	f8607881 	ldr	x1, [x4, x0, lsl #3]
  403228:	91000400 	add	x0, x0, #0x1
  40322c:	b9401021 	ldr	w1, [x1, #16]
  403230:	b9001041 	str	w1, [x2, #16]
  403234:	eb03001f 	cmp	x0, x3
  403238:	54ffff41 	b.ne	403220 <main+0x7a0>  // b.any
  40323c:	f94000a0 	ldr	x0, [x5]
  403240:	f9409c00 	ldr	x0, [x0, #312]
  403244:	b9401001 	ldr	w1, [x0, #16]
  403248:	35000041 	cbnz	w1, 403250 <main+0x7d0>
  40324c:	b9001006 	str	w6, [x0, #16]
  403250:	910020a5 	add	x5, x5, #0x8
  403254:	eb05033f 	cmp	x25, x5
  403258:	54fffd81 	b.ne	403208 <main+0x788>  // b.any
  40325c:	3cc08100 	ldur	q0, [x8, #8]
  403260:	91104380 	add	x0, x28, #0x410
  403264:	3cc18101 	ldur	q1, [x8, #24]
  403268:	ad000400 	stp	q0, q1, [x0]
  40326c:	34000949 	cbz	w9, 403394 <main+0x914>
  403270:	92800000 	mov	x0, #0xffffffffffffffff    	// #-1
  403274:	d2800018 	mov	x24, #0x0                   	// #0
  403278:	aa0003f4 	mov	x20, x0
  40327c:	d2800017 	mov	x23, #0x0                   	// #0
  403280:	d2800016 	mov	x22, #0x0                   	// #0
  403284:	d2800019 	mov	x25, #0x0                   	// #0
  403288:	d280001a 	mov	x26, #0x0                   	// #0
  40328c:	a907ffe0 	stp	x0, xzr, [sp, #120]
  403290:	1400000b 	b	4032bc <main+0x83c>
  403294:	9ac00820 	udiv	x0, x1, x0
  403298:	9100075a 	add	x26, x26, #0x1
  40329c:	8b010301 	add	x1, x24, x1
  4032a0:	eb0002ff 	cmp	x23, x0
  4032a4:	9a8022f7 	csel	x23, x23, x0, cs  // cs = hs, nlast
  4032a8:	b100071f 	cmn	x24, #0x1
  4032ac:	f941a780 	ldr	x0, [x28, #840]
  4032b0:	9a981038 	csel	x24, x1, x24, ne  // ne = any
  4032b4:	eb00035f 	cmp	x26, x0
  4032b8:	54000442 	b.cs	403340 <main+0x8c0>  // b.hs, b.nlast
  4032bc:	97fffd15 	bl	402710 <sox_get_globals@plt>
  4032c0:	b9400000 	ldr	w0, [x0]
  4032c4:	f87a7b61 	ldr	x1, [x27, x26, lsl #3]
  4032c8:	7100081f 	cmp	w0, #0x2
  4032cc:	54000588 	b.hi	40337c <main+0x8fc>  // b.pmore
  4032d0:	fd403fe0 	ldr	d0, [sp, #120]
  4032d4:	f9409c21 	ldr	x1, [x1, #312]
  4032d8:	7e61d802 	ucvtf	d2, d0
  4032dc:	fd4043e0 	ldr	d0, [sp, #128]
  4032e0:	b9401020 	ldr	w0, [x1, #16]
  4032e4:	9e790046 	fcvtzu	x6, d2
  4032e8:	7e61d801 	ucvtf	d1, d0
  4032ec:	fd400420 	ldr	d0, [x1, #8]
  4032f0:	eb00029f 	cmp	x20, x0
  4032f4:	8b000339 	add	x25, x25, x0
  4032f8:	9a809294 	csel	x20, x20, x0, ls  // ls = plast
  4032fc:	eb0002df 	cmp	x22, x0
  403300:	9e790002 	fcvtzu	x2, d0
  403304:	9a8022d6 	csel	x22, x22, x0, cs  // cs = hs, nlast
  403308:	1e602050 	fcmpe	d2, d0
  40330c:	9e790025 	fcvtzu	x5, d1
  403310:	f9400c21 	ldr	x1, [x1, #24]
  403314:	9a8290c3 	csel	x3, x6, x2, ls  // ls = plast
  403318:	1e612010 	fcmpe	d0, d1
  40331c:	9a8290a2 	csel	x2, x5, x2, ls  // ls = plast
  403320:	a9078be3 	stp	x3, x2, [sp, #120]
  403324:	b5fffb81 	cbnz	x1, 403294 <main+0x814>
  403328:	f941a780 	ldr	x0, [x28, #840]
  40332c:	9100075a 	add	x26, x26, #0x1
  403330:	92800017 	mov	x23, #0xffffffffffffffff    	// #-1
  403334:	aa1703f8 	mov	x24, x23
  403338:	eb00035f 	cmp	x26, x0
  40333c:	54fffc03 	b.cc	4032bc <main+0x83c>  // b.lo, b.ul, b.last
  403340:	a94787e0 	ldp	x0, x1, [sp, #120]
  403344:	eb01001f 	cmp	x0, x1
  403348:	54005e61 	b.ne	403f14 <main+0x1494>  // b.any
  40334c:	eb16029f 	cmp	x20, x22
  403350:	54005f21 	b.ne	403f34 <main+0x14b4>  // b.any
  403354:	b94002a0 	ldr	w0, [x21]
  403358:	f9428394 	ldr	x20, [x28, #1280]
  40335c:	7100101f 	cmp	w0, #0x4
  403360:	54007c00 	b.eq	4042e0 <main+0x1860>  // b.none
  403364:	b9041b96 	str	w22, [x28, #1048]
  403368:	2a1603e2 	mov	w2, w22
  40336c:	7100041f 	cmp	w0, #0x1
  403370:	54007ca1 	b.ne	404304 <main+0x1884>  // b.any
  403374:	f9021398 	str	x24, [x28, #1056]
  403378:	1400000a 	b	4033a0 <main+0x920>
  40337c:	f9409c20 	ldr	x0, [x1, #312]
  403380:	52800022 	mov	w2, #0x1                   	// #1
  403384:	940012cc 	bl	407eb4 <display_file_info>
  403388:	f941df9b 	ldr	x27, [x28, #952]
  40338c:	f87a7b61 	ldr	x1, [x27, x26, lsl #3]
  403390:	17ffffd0 	b	4032d0 <main+0x850>
  403394:	b4003854 	cbz	x20, 403a9c <main+0x101c>
  403398:	92800000 	mov	x0, #0xffffffffffffffff    	// #-1
  40339c:	f9021380 	str	x0, [x28, #1056]
  4033a0:	f941d782 	ldr	x2, [x28, #936]
  4033a4:	91156381 	add	x1, x28, #0x558
  4033a8:	f8747b63 	ldr	x3, [x27, x20, lsl #3]
  4033ac:	91160380 	add	x0, x28, #0x580
  4033b0:	8b020f62 	add	x2, x27, x2, lsl #3
  4033b4:	ad400420 	ldp	q0, q1, [x1]
  4033b8:	f85f8041 	ldur	x1, [x2, #-8]
  4033bc:	f9409c62 	ldr	x2, [x3, #312]
  4033c0:	3cc28042 	ldur	q2, [x2, #40]
  4033c4:	3cc38043 	ldur	q3, [x2, #56]
  4033c8:	910323e2 	add	x2, sp, #0xc8
  4033cc:	ad018420 	stp	q0, q1, [x1, #48]
  4033d0:	ad000440 	stp	q0, q1, [x2]
  4033d4:	b940cbe2 	ldr	w2, [sp, #200]
  4033d8:	ad000c02 	stp	q2, q3, [x0]
  4033dc:	35000062 	cbnz	w2, 4033e8 <main+0x968>
  4033e0:	b9458380 	ldr	w0, [x28, #1408]
  4033e4:	b900cbe0 	str	w0, [sp, #200]
  4033e8:	b940cfe0 	ldr	w0, [sp, #204]
  4033ec:	35000060 	cbnz	w0, 4033f8 <main+0x978>
  4033f0:	b9458780 	ldr	w0, [x28, #1412]
  4033f4:	b900cfe0 	str	w0, [sp, #204]
  4033f8:	a9400420 	ldp	x0, x1, [x1]
  4033fc:	910323e2 	add	x2, sp, #0xc8
  403400:	97fffc5c 	bl	402570 <sox_format_supports_encoding@plt>
  403404:	35004980 	cbnz	w0, 403d34 <main+0x12b4>
  403408:	f941d780 	ldr	x0, [x28, #936]
  40340c:	f941df89 	ldr	x9, [x28, #952]
  403410:	8b000d20 	add	x0, x9, x0, lsl #3
  403414:	f85f8002 	ldur	x2, [x0, #-8]
  403418:	f941a783 	ldr	x3, [x28, #840]
  40341c:	b94002a5 	ldr	w5, [x21]
  403420:	710000bf 	cmp	w5, #0x0
  403424:	1a9f07e8 	cset	w8, ne  // ne = any
  403428:	b4000303 	cbz	x3, 403488 <main+0xa08>
  40342c:	8b030d26 	add	x6, x9, x3, lsl #3
  403430:	aa0903e1 	mov	x1, x9
  403434:	d2800003 	mov	x3, #0x0                   	// #0
  403438:	14000006 	b	403450 <main+0x9d0>
  40343c:	eb00007f 	cmp	x3, x0
  403440:	91002021 	add	x1, x1, #0x8
  403444:	9a802063 	csel	x3, x3, x0, cs  // cs = hs, nlast
  403448:	eb0100df 	cmp	x6, x1
  40344c:	540001e0 	b.eq	403488 <main+0xa08>  // b.none
  403450:	f9400020 	ldr	x0, [x1]
  403454:	f9409c04 	ldr	x4, [x0, #312]
  403458:	f9400c80 	ldr	x0, [x4, #24]
  40345c:	34000068 	cbz	w8, 403468 <main+0x9e8>
  403460:	f100001f 	cmp	x0, #0x0
  403464:	1a9f07e8 	cset	w8, ne  // ne = any
  403468:	b9401084 	ldr	w4, [x4, #16]
  40346c:	9ac40800 	udiv	x0, x0, x4
  403470:	710004bf 	cmp	w5, #0x1
  403474:	54fffe41 	b.ne	40343c <main+0x9bc>  // b.any
  403478:	91002021 	add	x1, x1, #0x8
  40347c:	8b000063 	add	x3, x3, x0
  403480:	eb0100df 	cmp	x6, x1
  403484:	54fffe61 	b.ne	403450 <main+0x9d0>  // b.any
  403488:	9114e380 	add	x0, x28, #0x538
  40348c:	f9419f81 	ldr	x1, [x28, #824]
  403490:	ad400400 	ldp	q0, q1, [x0]
  403494:	f9429b80 	ldr	x0, [x28, #1328]
  403498:	ad008440 	stp	q0, q1, [x2, #16]
  40349c:	f8607824 	ldr	x4, [x1, x0, lsl #3]
  4034a0:	b4008ce4 	cbz	x4, 40463c <main+0x1bbc>
  4034a4:	f9425785 	ldr	x5, [x28, #1192]
  4034a8:	d2800000 	mov	x0, #0x0                   	// #0
  4034ac:	fd400840 	ldr	d0, [x2, #16]
  4034b0:	8b040ca5 	add	x5, x5, x4, lsl #3
  4034b4:	aa0503e1 	mov	x1, x5
  4034b8:	14000007 	b	4034d4 <main+0xa54>
  4034bc:	f85f8c26 	ldr	x6, [x1, #-8]!
  4034c0:	91000400 	add	x0, x0, #0x1
  4034c4:	fd4014c0 	ldr	d0, [x6, #40]
  4034c8:	fd000840 	str	d0, [x2, #16]
  4034cc:	eb04001f 	cmp	x0, x4
  4034d0:	54000060 	b.eq	4034dc <main+0xa5c>  // b.none
  4034d4:	1e602008 	fcmp	d0, #0.0
  4034d8:	54ffff20 	b.eq	4034bc <main+0xa3c>  // b.none
  4034dc:	b9401840 	ldr	w0, [x2, #24]
  4034e0:	d2800001 	mov	x1, #0x0                   	// #0
  4034e4:	d503201f 	nop
  4034e8:	35004480 	cbnz	w0, 403d78 <main+0x12f8>
  4034ec:	f85f8ca0 	ldr	x0, [x5, #-8]!
  4034f0:	91000421 	add	x1, x1, #0x1
  4034f4:	b9403000 	ldr	w0, [x0, #48]
  4034f8:	b9001840 	str	w0, [x2, #24]
  4034fc:	eb04003f 	cmp	x1, x4
  403500:	54ffff41 	b.ne	4034e8 <main+0xa68>  // b.any
  403504:	1e602008 	fcmp	d0, #0.0
  403508:	54000061 	b.ne	403514 <main+0xa94>  // b.any
  40350c:	fd420b80 	ldr	d0, [x28, #1040]
  403510:	fd000840 	str	d0, [x2, #16]
  403514:	fd400840 	ldr	d0, [x2, #16]
  403518:	35000060 	cbnz	w0, 403524 <main+0xaa4>
  40351c:	b9441b80 	ldr	w0, [x28, #1048]
  403520:	b9001840 	str	w0, [x2, #24]
  403524:	b9441f81 	ldr	w1, [x28, #1052]
  403528:	2a0003e0 	mov	w0, w0
  40352c:	b9001c41 	str	w1, [x2, #28]
  403530:	b4002ca4 	cbz	x4, 403ac4 <main+0x1044>
  403534:	2f00e401 	movi	d1, #0x0
  403538:	34000188 	cbz	w8, 403568 <main+0xae8>
  40353c:	f9425786 	ldr	x6, [x28, #1192]
  403540:	d2800001 	mov	x1, #0x0                   	// #0
  403544:	d503201f 	nop
  403548:	f86178c5 	ldr	x5, [x6, x1, lsl #3]
  40354c:	b94068a5 	ldr	w5, [x5, #104]
  403550:	37182bc5 	tbnz	w5, #3, 403ac8 <main+0x1048>
  403554:	91000421 	add	x1, x1, #0x1
  403558:	eb01009f 	cmp	x4, x1
  40355c:	54ffff61 	b.ne	403548 <main+0xac8>  // b.any
  403560:	9b007c60 	mul	x0, x3, x0
  403564:	9e630001 	ucvtf	d1, x0
  403568:	1e610800 	fmul	d0, d0, d1
  40356c:	fd420b81 	ldr	d1, [x28, #1040]
  403570:	f9400120 	ldr	x0, [x9]
  403574:	1e6c1003 	fmov	d3, #5.000000000000000000e-01
  403578:	f9403054 	ldr	x20, [x2, #96]
  40357c:	910803e4 	add	x4, sp, #0x200
  403580:	1e611800 	fdiv	d0, d0, d1
  403584:	f9409c01 	ldr	x1, [x0, #312]
  403588:	f942d383 	ldr	x3, [x28, #1440]
  40358c:	91014020 	add	x0, x1, #0x50
  403590:	ad400801 	ldp	q1, q2, [x0]
  403594:	1e632800 	fadd	d0, d0, d3
  403598:	7ee1b800 	fcvtzu	d0, d0
  40359c:	fd001040 	str	d0, [x2, #32]
  4035a0:	9103a3e2 	add	x2, sp, #0xe8
  4035a4:	ad000841 	stp	q1, q2, [x2]
  4035a8:	910423e2 	add	x2, sp, #0x108
  4035ac:	ad410400 	ldp	q0, q1, [x0, #32]
  4035b0:	ad000440 	stp	q0, q1, [x2]
  4035b4:	9104a3e2 	add	x2, sp, #0x128
  4035b8:	ad420400 	ldp	q0, q1, [x0, #64]
  4035bc:	ad000440 	stp	q0, q1, [x2]
  4035c0:	910903e2 	add	x2, sp, #0x240
  4035c4:	aa0203e4 	mov	x4, x2
  4035c8:	ad430400 	ldp	q0, q1, [x0, #96]
  4035cc:	910523e2 	add	x2, sp, #0x148
  4035d0:	ad000440 	stp	q0, q1, [x2]
  4035d4:	d1036082 	sub	x2, x4, #0xd8
  4035d8:	ad440400 	ldp	q0, q1, [x0, #128]
  4035dc:	ad000440 	stp	q0, q1, [x2]
  4035e0:	d102e082 	sub	x2, x4, #0xb8
  4035e4:	ad450400 	ldp	q0, q1, [x0, #160]
  4035e8:	ad000440 	stp	q0, q1, [x2]
  4035ec:	3dc03000 	ldr	q0, [x0, #192]
  4035f0:	3c968080 	stur	q0, [x4, #-152]
  4035f4:	b40058a3 	cbz	x3, 404108 <main+0x1688>
  4035f8:	f9422794 	ldr	x20, [x28, #1096]
  4035fc:	b4006294 	cbz	x20, 40424c <main+0x17cc>
  403600:	b944cf80 	ldr	w0, [x28, #1228]
  403604:	d2800001 	mov	x1, #0x0                   	// #0
  403608:	3dc10780 	ldr	q0, [x28, #1040]
  40360c:	51000400 	sub	w0, w0, #0x1
  403610:	3dc10b81 	ldr	q1, [x28, #1056]
  403614:	b900bbe0 	str	w0, [sp, #184]
  403618:	b944e782 	ldr	w2, [x28, #1252]
  40361c:	910323e0 	add	x0, sp, #0xc8
  403620:	ad000400 	stp	q0, q1, [x0]
  403624:	340000c2 	cbz	w2, 40363c <main+0xbbc>
  403628:	f9425b81 	ldr	x1, [x28, #1200]
  40362c:	f0000020 	adrp	x0, 40a000 <__dso_handle+0x858>
  403630:	912c2000 	add	x0, x0, #0xb08
  403634:	f100003f 	cmp	x1, #0x0
  403638:	9a810001 	csel	x1, x0, x1, eq  // eq = none
  40363c:	f9400680 	ldr	x0, [x20, #8]
  403640:	f90063e1 	str	x1, [sp, #192]
  403644:	b40043a0 	cbz	x0, 403eb8 <main+0x1438>
  403648:	f9419f80 	ldr	x0, [x28, #824]
  40364c:	f9429b81 	ldr	x1, [x28, #1328]
  403650:	f8617816 	ldr	x22, [x0, x1, lsl #3]
  403654:	b4000456 	cbz	x22, 4036dc <main+0xc5c>
  403658:	f0000021 	adrp	x1, 40a000 <__dso_handle+0x858>
  40365c:	d2800016 	mov	x22, #0x0                   	// #0
  403660:	91098038 	add	x24, x1, #0x260
  403664:	f9425799 	ldr	x25, [x28, #1192]
  403668:	14000013 	b	4036b4 <main+0xc34>
  40366c:	f8616843 	ldr	x3, [x2, x1]
  403670:	9102e3e4 	add	x4, sp, #0xb8
  403674:	aa1903e1 	mov	x1, x25
  403678:	910323e2 	add	x2, sp, #0xc8
  40367c:	aa1403e0 	mov	x0, x20
  403680:	f9409c63 	ldr	x3, [x3, #312]
  403684:	91002063 	add	x3, x3, #0x8
  403688:	94000d0a 	bl	406ab0 <add_effect>
  40368c:	35008ce0 	cbnz	w0, 404828 <main+0x1da8>
  403690:	f9425799 	ldr	x25, [x28, #1192]
  403694:	910006d6 	add	x22, x22, #0x1
  403698:	f8776b20 	ldr	x0, [x25, x23]
  40369c:	97fffb89 	bl	4024c0 <free@plt>
  4036a0:	f9419f80 	ldr	x0, [x28, #824]
  4036a4:	f9429b81 	ldr	x1, [x28, #1328]
  4036a8:	f8617800 	ldr	x0, [x0, x1, lsl #3]
  4036ac:	eb0002df 	cmp	x22, x0
  4036b0:	54000162 	b.cs	4036dc <main+0xc5c>  // b.hs, b.nlast
  4036b4:	f8767b39 	ldr	x25, [x25, x22, lsl #3]
  4036b8:	aa1803e1 	mov	x1, x24
  4036bc:	d37df2d7 	lsl	x23, x22, #3
  4036c0:	f9402f20 	ldr	x0, [x25, #88]
  4036c4:	97fffc5f 	bl	402840 <strcmp@plt>
  4036c8:	f941d781 	ldr	x1, [x28, #936]
  4036cc:	f941df82 	ldr	x2, [x28, #952]
  4036d0:	d37df021 	lsl	x1, x1, #3
  4036d4:	d1002021 	sub	x1, x1, #0x8
  4036d8:	35fffca0 	cbnz	w0, 40366c <main+0xbec>
  4036dc:	f941d780 	ldr	x0, [x28, #936]
  4036e0:	f941df81 	ldr	x1, [x28, #952]
  4036e4:	b940d3e2 	ldr	w2, [sp, #208]
  4036e8:	8b000c20 	add	x0, x1, x0, lsl #3
  4036ec:	f85f8000 	ldur	x0, [x0, #-8]
  4036f0:	f9409c00 	ldr	x0, [x0, #312]
  4036f4:	b9401001 	ldr	w1, [x0, #16]
  4036f8:	6b01005f 	cmp	w2, w1
  4036fc:	54002ae2 	b.cs	403c58 <main+0x11d8>  // b.hs, b.nlast
  403700:	fd400400 	ldr	d0, [x0, #8]
  403704:	fd4067e1 	ldr	d1, [sp, #200]
  403708:	1e602020 	fcmp	d1, d0
  40370c:	54002841 	b.ne	403c14 <main+0x1194>  // b.any
  403710:	aa1403e0 	mov	x0, x20
  403714:	9102e3e5 	add	x5, sp, #0xb8
  403718:	910323e4 	add	x4, sp, #0xc8
  40371c:	f0000021 	adrp	x1, 40a000 <__dso_handle+0x858>
  403720:	d2800003 	mov	x3, #0x0                   	// #0
  403724:	913ee021 	add	x1, x1, #0xfb8
  403728:	52800002 	mov	w2, #0x0                   	// #0
  40372c:	94000d35 	bl	406c00 <auto_effect>
  403730:	f941d780 	ldr	x0, [x28, #936]
  403734:	f941df81 	ldr	x1, [x28, #952]
  403738:	fd4067e1 	ldr	d1, [sp, #200]
  40373c:	8b000c20 	add	x0, x1, x0, lsl #3
  403740:	f85f8000 	ldur	x0, [x0, #-8]
  403744:	f9409c00 	ldr	x0, [x0, #312]
  403748:	fd400400 	ldr	d0, [x0, #8]
  40374c:	1e602020 	fcmp	d1, d0
  403750:	54002901 	b.ne	403c70 <main+0x11f0>  // b.any
  403754:	b944cf80 	ldr	w0, [x28, #1228]
  403758:	340002a0 	cbz	w0, 4037ac <main+0xd2c>
  40375c:	b944d380 	ldr	w0, [x28, #1232]
  403760:	340059a0 	cbz	w0, 404294 <main+0x1814>
  403764:	f0000026 	adrp	x6, 40a000 <__dso_handle+0x858>
  403768:	912c40c6 	add	x6, x6, #0xb10
  40376c:	12800000 	mov	w0, #0xffffffff            	// #-1
  403770:	b900bfe0 	str	w0, [sp, #188]
  403774:	f9426388 	ldr	x8, [x28, #1216]
  403778:	aa1403e0 	mov	x0, x20
  40377c:	9102f3e5 	add	x5, sp, #0xbc
  403780:	910323e4 	add	x4, sp, #0xc8
  403784:	f100011f 	cmp	x8, #0x0
  403788:	9103a3e3 	add	x3, sp, #0xe8
  40378c:	1a9f07e2 	cset	w2, ne  // ne = any
  403790:	f0000021 	adrp	x1, 40a000 <__dso_handle+0x858>
  403794:	11000442 	add	w2, w2, #0x1
  403798:	91088021 	add	x1, x1, #0x220
  40379c:	a90ea3e6 	stp	x6, x8, [sp, #232]
  4037a0:	94000d18 	bl	406c00 <auto_effect>
  4037a4:	52800020 	mov	w0, #0x1                   	// #1
  4037a8:	b900bbe0 	str	w0, [sp, #184]
  4037ac:	f9419f80 	ldr	x0, [x28, #824]
  4037b0:	f9429b81 	ldr	x1, [x28, #1328]
  4037b4:	f8617800 	ldr	x0, [x0, x1, lsl #3]
  4037b8:	eb16001f 	cmp	x0, x22
  4037bc:	540034e0 	b.eq	403e58 <main+0x13d8>  // b.none
  4037c0:	eb0002df 	cmp	x22, x0
  4037c4:	54000322 	b.cs	403828 <main+0xda8>  // b.hs, b.nlast
  4037c8:	f9425798 	ldr	x24, [x28, #1192]
  4037cc:	52800057 	mov	w23, #0x2                   	// #2
  4037d0:	f941d783 	ldr	x3, [x28, #936]
  4037d4:	9102e3e4 	add	x4, sp, #0xb8
  4037d8:	f941df85 	ldr	x5, [x28, #952]
  4037dc:	910323e2 	add	x2, sp, #0xc8
  4037e0:	f8767b01 	ldr	x1, [x24, x22, lsl #3]
  4037e4:	aa1403e0 	mov	x0, x20
  4037e8:	8b030ca3 	add	x3, x5, x3, lsl #3
  4037ec:	f85f8063 	ldur	x3, [x3, #-8]
  4037f0:	f9409c63 	ldr	x3, [x3, #312]
  4037f4:	91002063 	add	x3, x3, #0x8
  4037f8:	94000cae 	bl	406ab0 <add_effect>
  4037fc:	35008160 	cbnz	w0, 404828 <main+0x1da8>
  403800:	f9425798 	ldr	x24, [x28, #1192]
  403804:	f8767b00 	ldr	x0, [x24, x22, lsl #3]
  403808:	910006d6 	add	x22, x22, #0x1
  40380c:	97fffb2d 	bl	4024c0 <free@plt>
  403810:	b900bbf7 	str	w23, [sp, #184]
  403814:	f9419f80 	ldr	x0, [x28, #824]
  403818:	f9429b81 	ldr	x1, [x28, #1328]
  40381c:	f8617800 	ldr	x0, [x0, x1, lsl #3]
  403820:	eb0002df 	cmp	x22, x0
  403824:	54fffd63 	b.cc	4037d0 <main+0xd50>  // b.lo, b.ul, b.last
  403828:	f942d381 	ldr	x1, [x28, #1440]
  40382c:	b40044c1 	cbz	x1, 4040c4 <main+0x1644>
  403830:	aa1403e0 	mov	x0, x20
  403834:	97fffb5b 	bl	4025a0 <sox_push_effect_last@plt>
  403838:	f902d39f 	str	xzr, [x28, #1440]
  40383c:	f9400680 	ldr	x0, [x20, #8]
  403840:	d2800016 	mov	x22, #0x0                   	// #0
  403844:	b4000620 	cbz	x0, 403908 <main+0xe88>
  403848:	f000003a 	adrp	x26, 40a000 <__dso_handle+0x858>
  40384c:	f0000039 	adrp	x25, 40a000 <__dso_handle+0x858>
  403850:	f0000038 	adrp	x24, 40a000 <__dso_handle+0x858>
  403854:	f0000037 	adrp	x23, 40a000 <__dso_handle+0x858>
  403858:	912d635a 	add	x26, x26, #0xb58
  40385c:	912c8339 	add	x25, x25, #0xb20
  403860:	910fa318 	add	x24, x24, #0x3e8
  403864:	912e02f7 	add	x23, x23, #0xb80
  403868:	f000003b 	adrp	x27, 40a000 <__dso_handle+0x858>
  40386c:	d503201f 	nop
  403870:	97fffba8 	bl	402710 <sox_get_globals@plt>
  403874:	b9400002 	ldr	w2, [x0]
  403878:	f9400281 	ldr	x1, [x20]
  40387c:	71000c5f 	cmp	w2, #0x3
  403880:	9a9a8328 	csel	x8, x25, x26, hi  // hi = pmore
  403884:	912e2365 	add	x5, x27, #0xb88
  403888:	f8767821 	ldr	x1, [x1, x22, lsl #3]
  40388c:	29461022 	ldp	w2, w4, [x1, #48]
  403890:	fd401428 	ldr	d8, [x1, #40]
  403894:	f9401c26 	ldr	x6, [x1, #56]
  403898:	f9002013 	str	x19, [x0, #64]
  40389c:	b9406820 	ldr	w0, [x1, #104]
  4038a0:	f9402c21 	ldr	x1, [x1, #88]
  4038a4:	f27c001f 	tst	x0, #0x10
  4038a8:	9a9812e3 	csel	x3, x23, x24, ne  // ne = any
  4038ac:	b10004df 	cmn	x6, #0x1
  4038b0:	540001e0 	b.eq	4038ec <main+0xe6c>  // b.none
  4038b4:	2a0203e0 	mov	w0, w2
  4038b8:	b9007be2 	str	w2, [sp, #120]
  4038bc:	f90043e1 	str	x1, [sp, #128]
  4038c0:	b9008be4 	str	w4, [sp, #136]
  4038c4:	9ac008c6 	udiv	x6, x6, x0
  4038c8:	a9090fe8 	stp	x8, x3, [sp, #144]
  4038cc:	9e6300c0 	ucvtf	d0, x6
  4038d0:	1e681800 	fdiv	d0, d0, d8
  4038d4:	94000617 	bl	405130 <str_time>
  4038d8:	aa0003e5 	mov	x5, x0
  4038dc:	a9490fe8 	ldp	x8, x3, [sp, #144]
  4038e0:	b9407be2 	ldr	w2, [sp, #120]
  4038e4:	b9408be4 	ldr	w4, [sp, #136]
  4038e8:	f94043e1 	ldr	x1, [sp, #128]
  4038ec:	1e604100 	fmov	d0, d8
  4038f0:	aa0803e0 	mov	x0, x8
  4038f4:	910006d6 	add	x22, x22, #0x1
  4038f8:	97fffb96 	bl	402750 <lsx_report_impl@plt>
  4038fc:	f9400680 	ldr	x0, [x20, #8]
  403900:	eb0002df 	cmp	x22, x0
  403904:	54fffb63 	b.cc	403870 <main+0xdf0>  // b.lo, b.ul, b.last
  403908:	b940c2a0 	ldr	w0, [x21, #192]
  40390c:	35003340 	cbnz	w0, 403f74 <main+0x14f4>
  403910:	b944e380 	ldr	w0, [x28, #1248]
  403914:	b943f381 	ldr	w1, [x28, #1008]
  403918:	340021e0 	cbz	w0, 403d54 <main+0x12d4>
  40391c:	b94012a0 	ldr	w0, [x21, #16]
  403920:	34002380 	cbz	w0, 403d90 <main+0x1310>
  403924:	b944e780 	ldr	w0, [x28, #1252]
  403928:	34002340 	cbz	w0, 403d90 <main+0x1310>
  40392c:	34006bc1 	cbz	w1, 4046a4 <main+0x1c24>
  403930:	b9446380 	ldr	w0, [x28, #1120]
  403934:	34002340 	cbz	w0, 403d9c <main+0x131c>
  403938:	b00000f4 	adrp	x20, 420000 <fputs@GLIBC_2.17>
  40393c:	91124294 	add	x20, x20, #0x490
  403940:	f9400280 	ldr	x0, [x20]
  403944:	97fffab3 	bl	402410 <fileno@plt>
  403948:	2a0003f4 	mov	w20, w0
  40394c:	52800061 	mov	w1, #0x3                   	// #3
  403950:	97fffc20 	bl	4029d0 <fcntl@plt>
  403954:	3100041f 	cmn	w0, #0x1
  403958:	540026a0 	b.eq	403e2c <main+0x13ac>  // b.none
  40395c:	36585b00 	tbz	w0, #11, 4044bc <main+0x1a3c>
  403960:	910323e2 	add	x2, sp, #0xc8
  403964:	d28a8261 	mov	x1, #0x5413                	// #21523
  403968:	52800040 	mov	w0, #0x2                   	// #2
  40396c:	97fffb2d 	bl	402620 <ioctl@plt>
  403970:	35000060 	cbnz	w0, 40397c <main+0xefc>
  403974:	794197e0 	ldrh	w0, [sp, #202]
  403978:	b90016a0 	str	w0, [x21, #20]
  40397c:	f0000001 	adrp	x1, 406000 <try_device+0xb0>
  403980:	9138d021 	add	x1, x1, #0xe34
  403984:	9103c3e0 	add	x0, sp, #0xf0
  403988:	f90077e1 	str	x1, [sp, #232]
  40398c:	d0000034 	adrp	x20, 409000 <combiner_drain+0x44c>
  403990:	911a5294 	add	x20, x20, #0x694
  403994:	97fffac3 	bl	4024a0 <sigemptyset@plt>
  403998:	b90173ff 	str	wzr, [sp, #368]
  40399c:	9103a3e1 	add	x1, sp, #0xe8
  4039a0:	d2800002 	mov	x2, #0x0                   	// #0
  4039a4:	52800380 	mov	w0, #0x1c                  	// #28
  4039a8:	97fffc12 	bl	4029f0 <sigaction@plt>
  4039ac:	9103c3e0 	add	x0, sp, #0xf0
  4039b0:	f90077f4 	str	x20, [sp, #232]
  4039b4:	97fffabb 	bl	4024a0 <sigemptyset@plt>
  4039b8:	b90173ff 	str	wzr, [sp, #368]
  4039bc:	9103a3e1 	add	x1, sp, #0xe8
  4039c0:	d2800002 	mov	x2, #0x0                   	// #0
  4039c4:	528001e0 	mov	w0, #0xf                   	// #15
  4039c8:	97fffc0a 	bl	4029f0 <sigaction@plt>
  4039cc:	9103c3e0 	add	x0, sp, #0xf0
  4039d0:	f90077f4 	str	x20, [sp, #232]
  4039d4:	97fffab3 	bl	4024a0 <sigemptyset@plt>
  4039d8:	b90173ff 	str	wzr, [sp, #368]
  4039dc:	9103a3e1 	add	x1, sp, #0xe8
  4039e0:	d2800002 	mov	x2, #0x0                   	// #0
  4039e4:	52800040 	mov	w0, #0x2                   	// #2
  4039e8:	97fffc02 	bl	4029f0 <sigaction@plt>
  4039ec:	b940c2a0 	ldr	w0, [x21, #192]
  4039f0:	35003240 	cbnz	w0, 404038 <main+0x15b8>
  4039f4:	f9422780 	ldr	x0, [x28, #1096]
  4039f8:	f0000001 	adrp	x1, 406000 <try_device+0xb0>
  4039fc:	d2800002 	mov	x2, #0x0                   	// #0
  403a00:	911c4021 	add	x1, x1, #0x710
  403a04:	97fffc03 	bl	402a10 <sox_flow_effects@plt>
  403a08:	b90083e0 	str	w0, [sp, #128]
  403a0c:	b9450b81 	ldr	w1, [x28, #1288]
  403a10:	34000601 	cbz	w1, 403ad0 <main+0x1050>
  403a14:	f941a780 	ldr	x0, [x28, #840]
  403a18:	f9428382 	ldr	x2, [x28, #1280]
  403a1c:	eb00005f 	cmp	x2, x0
  403a20:	54000582 	b.cs	403ad0 <main+0x1050>  // b.hs, b.nlast
  403a24:	b943f780 	ldr	w0, [x28, #1012]
  403a28:	35007800 	cbnz	w0, 404928 <main+0x1ea8>
  403a2c:	f9422780 	ldr	x0, [x28, #1096]
  403a30:	f90047e0 	str	x0, [sp, #136]
  403a34:	b900c2bf 	str	wzr, [x21, #192]
  403a38:	f94047e0 	ldr	x0, [sp, #136]
  403a3c:	97fffa89 	bl	402460 <sox_delete_effects@plt>
  403a40:	f942d380 	ldr	x0, [x28, #1440]
  403a44:	b5ffb5a0 	cbnz	x0, 4030f8 <main+0x678>
  403a48:	f941d780 	ldr	x0, [x28, #936]
  403a4c:	f941df81 	ldr	x1, [x28, #952]
  403a50:	8b000c20 	add	x0, x1, x0, lsl #3
  403a54:	f85f8000 	ldur	x0, [x0, #-8]
  403a58:	f9409c00 	ldr	x0, [x0, #312]
  403a5c:	97fffb05 	bl	402670 <sox_close@plt>
  403a60:	f941d780 	ldr	x0, [x28, #936]
  403a64:	f941df81 	ldr	x1, [x28, #952]
  403a68:	8b000c20 	add	x0, x1, x0, lsl #3
  403a6c:	f85f8000 	ldur	x0, [x0, #-8]
  403a70:	f9009c1f 	str	xzr, [x0, #312]
  403a74:	17fffda1 	b	4030f8 <main+0x678>
  403a78:	f8747b61 	ldr	x1, [x27, x20, lsl #3]
  403a7c:	52800022 	mov	w2, #0x1                   	// #1
  403a80:	91000694 	add	x20, x20, #0x1
  403a84:	f9409c20 	ldr	x0, [x1, #312]
  403a88:	9400110b 	bl	407eb4 <display_file_info>
  403a8c:	f941a780 	ldr	x0, [x28, #840]
  403a90:	f941df9b 	ldr	x27, [x28, #952]
  403a94:	eb00029f 	cmp	x20, x0
  403a98:	54000122 	b.cs	403abc <main+0x103c>  // b.hs, b.nlast
  403a9c:	97fffb1d 	bl	402710 <sox_get_globals@plt>
  403aa0:	b9400000 	ldr	w0, [x0]
  403aa4:	7100081f 	cmp	w0, #0x2
  403aa8:	54fffe88 	b.hi	403a78 <main+0xff8>  // b.pmore
  403aac:	f941a780 	ldr	x0, [x28, #840]
  403ab0:	91000694 	add	x20, x20, #0x1
  403ab4:	eb00029f 	cmp	x20, x0
  403ab8:	54ffff23 	b.cc	403a9c <main+0x101c>  // b.lo, b.ul, b.last
  403abc:	f9428394 	ldr	x20, [x28, #1280]
  403ac0:	17fffe36 	b	403398 <main+0x918>
  403ac4:	35ffd4e8 	cbnz	w8, 403560 <main+0xae0>
  403ac8:	2f00e401 	movi	d1, #0x0
  403acc:	17fffea7 	b	403568 <main+0xae8>
  403ad0:	b9445780 	ldr	w0, [x28, #1108]
  403ad4:	35000e40 	cbnz	w0, 403c9c <main+0x121c>
  403ad8:	f9419b80 	ldr	x0, [x28, #816]
  403adc:	f9429b82 	ldr	x2, [x28, #1328]
  403ae0:	eb00005f 	cmp	x2, x0
  403ae4:	54000dc2 	b.cs	403c9c <main+0x121c>  // b.hs, b.nlast
  403ae8:	b90083ff 	str	wzr, [sp, #128]
  403aec:	b943f780 	ldr	w0, [x28, #1012]
  403af0:	35000dc0 	cbnz	w0, 403ca8 <main+0x1228>
  403af4:	f941a780 	ldr	x0, [x28, #840]
  403af8:	f9428382 	ldr	x2, [x28, #1280]
  403afc:	eb00005f 	cmp	x2, x0
  403b00:	54000d42 	b.cs	403ca8 <main+0x1228>  // b.hs, b.nlast
  403b04:	f9422780 	ldr	x0, [x28, #1096]
  403b08:	f90047e0 	str	x0, [sp, #136]
  403b0c:	b900c2bf 	str	wzr, [x21, #192]
  403b10:	35fff941 	cbnz	w1, 403a38 <main+0xfb8>
  403b14:	b9445380 	ldr	w0, [x28, #1104]
  403b18:	f9429b94 	ldr	x20, [x28, #1328]
  403b1c:	34002b60 	cbz	w0, 404088 <main+0x1608>
  403b20:	f9419f97 	ldr	x23, [x28, #824]
  403b24:	b904539f 	str	wzr, [x28, #1104]
  403b28:	d37df280 	lsl	x0, x20, #3
  403b2c:	f8747ae1 	ldr	x1, [x23, x20, lsl #3]
  403b30:	f100043f 	cmp	x1, #0x1
  403b34:	54002c01 	b.ne	4040b4 <main+0x1634>  // b.any
  403b38:	f9419b81 	ldr	x1, [x28, #816]
  403b3c:	f9003fe1 	str	x1, [sp, #120]
  403b40:	d0000036 	adrp	x22, 409000 <combiner_drain+0x44c>
  403b44:	d0000039 	adrp	x25, 409000 <combiner_drain+0x44c>
  403b48:	911f02d6 	add	x22, x22, #0x7c0
  403b4c:	911f2339 	add	x25, x25, #0x7c8
  403b50:	5280003a 	mov	w26, #0x1                   	// #1
  403b54:	f941a398 	ldr	x24, [x28, #832]
  403b58:	1400000c 	b	403b88 <main+0x1108>
  403b5c:	f9403fe0 	ldr	x0, [sp, #120]
  403b60:	91000694 	add	x20, x20, #0x1
  403b64:	f9029b94 	str	x20, [x28, #1328]
  403b68:	eb00029f 	cmp	x20, x0
  403b6c:	540009e2 	b.cs	403ca8 <main+0x1228>  // b.hs, b.nlast
  403b70:	d37df280 	lsl	x0, x20, #3
  403b74:	5280001a 	mov	w26, #0x0                   	// #0
  403b78:	8b0002e1 	add	x1, x23, x0
  403b7c:	f9400021 	ldr	x1, [x1]
  403b80:	f100043f 	cmp	x1, #0x1
  403b84:	54000281 	b.ne	403bd4 <main+0x1154>  // b.any
  403b88:	f8606b00 	ldr	x0, [x24, x0]
  403b8c:	f940001b 	ldr	x27, [x0]
  403b90:	aa1b03e0 	mov	x0, x27
  403b94:	940004e7 	bl	404f30 <is_pseudo_effect>
  403b98:	340001e0 	cbz	w0, 403bd4 <main+0x1154>
  403b9c:	aa1b03e1 	mov	x1, x27
  403ba0:	aa1603e0 	mov	x0, x22
  403ba4:	97fffb27 	bl	402840 <strcmp@plt>
  403ba8:	34fffda0 	cbz	w0, 403b5c <main+0x10dc>
  403bac:	aa1b03e1 	mov	x1, x27
  403bb0:	aa1903e0 	mov	x0, x25
  403bb4:	97fffb23 	bl	402840 <strcmp@plt>
  403bb8:	34000240 	cbz	w0, 403c00 <main+0x1180>
  403bbc:	f9429b94 	ldr	x20, [x28, #1328]
  403bc0:	d37df280 	lsl	x0, x20, #3
  403bc4:	8b0002e1 	add	x1, x23, x0
  403bc8:	f9400021 	ldr	x1, [x1]
  403bcc:	f100043f 	cmp	x1, #0x1
  403bd0:	54fffdc0 	b.eq	403b88 <main+0x1108>  // b.none
  403bd4:	3500271a 	cbnz	w26, 4040b4 <main+0x1634>
  403bd8:	f9422780 	ldr	x0, [x28, #1096]
  403bdc:	f9400401 	ldr	x1, [x0, #8]
  403be0:	f100043f 	cmp	x1, #0x1
  403be4:	54fff2e9 	b.ls	403a40 <main+0xfc0>  // b.plast
  403be8:	97fffa5a 	bl	402550 <sox_delete_effect_last@plt>
  403bec:	f9422780 	ldr	x0, [x28, #1096]
  403bf0:	f9400401 	ldr	x1, [x0, #8]
  403bf4:	f100043f 	cmp	x1, #0x1
  403bf8:	54ffff88 	b.hi	403be8 <main+0x1168>  // b.pmore
  403bfc:	17ffff91 	b	403a40 <main+0xfc0>
  403c00:	aa1703e1 	mov	x1, x23
  403c04:	d2800000 	mov	x0, #0x0                   	// #0
  403c08:	d2800014 	mov	x20, #0x0                   	// #0
  403c0c:	f9029b9f 	str	xzr, [x28, #1328]
  403c10:	17ffffdb 	b	403b7c <main+0x10fc>
  403c14:	f94063e0 	ldr	x0, [sp, #192]
  403c18:	9102e3e5 	add	x5, sp, #0xb8
  403c1c:	910323e4 	add	x4, sp, #0xc8
  403c20:	910303e3 	add	x3, sp, #0xc0
  403c24:	f100001f 	cmp	x0, #0x0
  403c28:	f0000021 	adrp	x1, 40a000 <__dso_handle+0x858>
  403c2c:	1a9f07e2 	cset	w2, ne  // ne = any
  403c30:	913f2021 	add	x1, x1, #0xfc8
  403c34:	aa1403e0 	mov	x0, x20
  403c38:	94000bf2 	bl	406c00 <auto_effect>
  403c3c:	f941d780 	ldr	x0, [x28, #936]
  403c40:	f941df81 	ldr	x1, [x28, #952]
  403c44:	b940d3e2 	ldr	w2, [sp, #208]
  403c48:	8b000c20 	add	x0, x1, x0, lsl #3
  403c4c:	f85f8000 	ldur	x0, [x0, #-8]
  403c50:	f9409c00 	ldr	x0, [x0, #312]
  403c54:	b9401001 	ldr	w1, [x0, #16]
  403c58:	6b01005f 	cmp	w2, w1
  403c5c:	54ffd5a1 	b.ne	403710 <main+0xc90>  // b.any
  403c60:	fd400400 	ldr	d0, [x0, #8]
  403c64:	fd4067e1 	ldr	d1, [sp, #200]
  403c68:	1e602020 	fcmp	d1, d0
  403c6c:	54ffd740 	b.eq	403754 <main+0xcd4>  // b.none
  403c70:	f94063e0 	ldr	x0, [sp, #192]
  403c74:	9102e3e5 	add	x5, sp, #0xb8
  403c78:	910323e4 	add	x4, sp, #0xc8
  403c7c:	910303e3 	add	x3, sp, #0xc0
  403c80:	f100001f 	cmp	x0, #0x0
  403c84:	f0000021 	adrp	x1, 40a000 <__dso_handle+0x858>
  403c88:	1a9f07e2 	cset	w2, ne  // ne = any
  403c8c:	913f2021 	add	x1, x1, #0xfc8
  403c90:	aa1403e0 	mov	x0, x20
  403c94:	94000bdb 	bl	406c00 <auto_effect>
  403c98:	17fffeaf 	b	403754 <main+0xcd4>
  403c9c:	b94083e0 	ldr	w0, [sp, #128]
  403ca0:	3100041f 	cmn	w0, #0x1
  403ca4:	54fff241 	b.ne	403aec <main+0x106c>  // b.any
  403ca8:	f9422780 	ldr	x0, [x28, #1096]
  403cac:	97fff9b5 	bl	402380 <sox_delete_effects_chain@plt>
  403cb0:	940005e1 	bl	405434 <delete_eff_chains>
  403cb4:	f941d780 	ldr	x0, [x28, #936]
  403cb8:	b4005080 	cbz	x0, 4046c8 <main+0x1c48>
  403cbc:	d0000038 	adrp	x24, 409000 <combiner_drain+0x44c>
  403cc0:	f0000037 	adrp	x23, 40a000 <__dso_handle+0x858>
  403cc4:	91288318 	add	x24, x24, #0xa20
  403cc8:	912ee2f7 	add	x23, x23, #0xbb8
  403ccc:	d2800013 	mov	x19, #0x0                   	// #0
  403cd0:	f0000039 	adrp	x25, 40a000 <__dso_handle+0x858>
  403cd4:	14000009 	b	403cf8 <main+0x1278>
  403cd8:	f9413a81 	ldr	x1, [x20, #624]
  403cdc:	f9400021 	ldr	x1, [x1]
  403ce0:	aa1603e2 	mov	x2, x22
  403ce4:	97fff9eb 	bl	402490 <lsx_warn_impl@plt>
  403ce8:	f941d780 	ldr	x0, [x28, #936]
  403cec:	91000673 	add	x19, x19, #0x1
  403cf0:	eb13001f 	cmp	x0, x19
  403cf4:	54004069 	b.ls	404500 <main+0x1a80>  // b.plast
  403cf8:	f941df80 	ldr	x0, [x28, #952]
  403cfc:	f8737800 	ldr	x0, [x0, x19, lsl #3]
  403d00:	f9409c14 	ldr	x20, [x0, #312]
  403d04:	f9409a96 	ldr	x22, [x20, #304]
  403d08:	b4ffff16 	cbz	x22, 403ce8 <main+0x1268>
  403d0c:	97fffa81 	bl	402710 <sox_get_globals@plt>
  403d10:	f941a783 	ldr	x3, [x28, #840]
  403d14:	912e6321 	add	x1, x25, #0xb98
  403d18:	b9427a82 	ldr	w2, [x20, #632]
  403d1c:	eb13007f 	cmp	x3, x19
  403d20:	f9002018 	str	x24, [x0, #64]
  403d24:	9a978020 	csel	x0, x1, x23, hi  // hi = pmore
  403d28:	370ffd82 	tbnz	w2, #1, 403cd8 <main+0x1258>
  403d2c:	f9400281 	ldr	x1, [x20]
  403d30:	17ffffec 	b	403ce0 <main+0x1260>
  403d34:	f941d780 	ldr	x0, [x28, #936]
  403d38:	910323e1 	add	x1, sp, #0xc8
  403d3c:	f941df89 	ldr	x9, [x28, #952]
  403d40:	ad400420 	ldp	q0, q1, [x1]
  403d44:	8b000d20 	add	x0, x9, x0, lsl #3
  403d48:	f85f8002 	ldur	x2, [x0, #-8]
  403d4c:	ad018440 	stp	q0, q1, [x2, #48]
  403d50:	17fffdb2 	b	403418 <main+0x998>
  403d54:	34ffe061 	cbz	w1, 403960 <main+0xee0>
  403d58:	97fffa6e 	bl	402710 <sox_get_globals@plt>
  403d5c:	aa0003e1 	mov	x1, x0
  403d60:	90000040 	adrp	x0, 40b000 <__dso_handle+0x1858>
  403d64:	91008000 	add	x0, x0, #0x20
  403d68:	f9002033 	str	x19, [x1, #64]
  403d6c:	97fff9c9 	bl	402490 <lsx_warn_impl@plt>
  403d70:	b903f39f 	str	wzr, [x28, #1008]
  403d74:	17fffefb 	b	403960 <main+0xee0>
  403d78:	1e602008 	fcmp	d0, #0.0
  403d7c:	54ffbc80 	b.eq	40350c <main+0xa8c>  // b.none
  403d80:	b9441f81 	ldr	w1, [x28, #1052]
  403d84:	2a0003e0 	mov	w0, w0
  403d88:	b9001c41 	str	w1, [x2, #28]
  403d8c:	17fffdea 	b	403534 <main+0xab4>
  403d90:	34ffde81 	cbz	w1, 403960 <main+0xee0>
  403d94:	b9446380 	ldr	w0, [x28, #1120]
  403d98:	35ffdd00 	cbnz	w0, 403938 <main+0xeb8>
  403d9c:	b00000e0 	adrp	x0, 420000 <fputs@GLIBC_2.17>
  403da0:	52800021 	mov	w1, #0x1                   	// #1
  403da4:	b9046381 	str	w1, [x28, #1120]
  403da8:	b00000e1 	adrp	x1, 420000 <fputs@GLIBC_2.17>
  403dac:	f9424800 	ldr	x0, [x0, #1168]
  403db0:	9111a396 	add	x22, x28, #0x468
  403db4:	91124034 	add	x20, x1, #0x490
  403db8:	97fff996 	bl	402410 <fileno@plt>
  403dbc:	aa1603e1 	mov	x1, x22
  403dc0:	97fffab8 	bl	4028a0 <tcgetattr@plt>
  403dc4:	ad400ac0 	ldp	q0, q2, [x22]
  403dc8:	9103a3e1 	add	x1, sp, #0xe8
  403dcc:	3dc00ac1 	ldr	q1, [x22, #32]
  403dd0:	910803e3 	add	x3, sp, #0x200
  403dd4:	b00000e0 	adrp	x0, 420000 <fputs@GLIBC_2.17>
  403dd8:	ad000820 	stp	q0, q2, [x1]
  403ddc:	b940f7e1 	ldr	w1, [sp, #244]
  403de0:	f9424800 	ldr	x0, [x0, #1168]
  403de4:	12800142 	mov	w2, #0xfffffff5            	// #-11
  403de8:	3cc2c2c0 	ldur	q0, [x22, #44]
  403dec:	0a020021 	and	w1, w1, w2
  403df0:	3c908061 	stur	q1, [x3, #-248]
  403df4:	b900f7e1 	str	w1, [sp, #244]
  403df8:	7901ffff 	strh	wzr, [sp, #254]
  403dfc:	3c914060 	stur	q0, [x3, #-236]
  403e00:	97fff984 	bl	402410 <fileno@plt>
  403e04:	52800001 	mov	w1, #0x0                   	// #0
  403e08:	9103a3e2 	add	x2, sp, #0xe8
  403e0c:	97fffac1 	bl	402910 <tcsetattr@plt>
  403e10:	f9400280 	ldr	x0, [x20]
  403e14:	97fff97f 	bl	402410 <fileno@plt>
  403e18:	2a0003f4 	mov	w20, w0
  403e1c:	52800061 	mov	w1, #0x3                   	// #3
  403e20:	97fffaec 	bl	4029d0 <fcntl@plt>
  403e24:	3100041f 	cmn	w0, #0x1
  403e28:	54ffd9a1 	b.ne	40395c <main+0xedc>  // b.any
  403e2c:	97fffa39 	bl	402710 <sox_get_globals@plt>
  403e30:	aa0003e1 	mov	x1, x0
  403e34:	f94057e0 	ldr	x0, [sp, #168]
  403e38:	b9400000 	ldr	w0, [x0]
  403e3c:	f9002033 	str	x19, [x1, #64]
  403e40:	97fff9d0 	bl	402580 <strerror@plt>
  403e44:	aa0003e1 	mov	x1, x0
  403e48:	90000040 	adrp	x0, 40b000 <__dso_handle+0x1858>
  403e4c:	91018000 	add	x0, x0, #0x60
  403e50:	97fff990 	bl	402490 <lsx_warn_impl@plt>
  403e54:	17fffec3 	b	403960 <main+0xee0>
  403e58:	b944df80 	ldr	w0, [x28, #1244]
  403e5c:	35ffce60 	cbnz	w0, 403828 <main+0xda8>
  403e60:	f941d780 	ldr	x0, [x28, #936]
  403e64:	f941df82 	ldr	x2, [x28, #952]
  403e68:	b940d7e1 	ldr	w1, [sp, #212]
  403e6c:	8b000c40 	add	x0, x2, x0, lsl #3
  403e70:	f85f8000 	ldur	x0, [x0, #-8]
  403e74:	f9409c00 	ldr	x0, [x0, #312]
  403e78:	b9401400 	ldr	w0, [x0, #20]
  403e7c:	6b00003f 	cmp	w1, w0
  403e80:	7a578802 	ccmp	w0, #0x17, #0x2, hi  // hi = pmore
  403e84:	54ffcd28 	b.hi	403828 <main+0xda8>  // b.pmore
  403e88:	aa1403e0 	mov	x0, x20
  403e8c:	9102e3e5 	add	x5, sp, #0xb8
  403e90:	910323e4 	add	x4, sp, #0xc8
  403e94:	f0000021 	adrp	x1, 40a000 <__dso_handle+0x858>
  403e98:	d2800003 	mov	x3, #0x0                   	// #0
  403e9c:	91098021 	add	x1, x1, #0x260
  403ea0:	52800002 	mov	w2, #0x0                   	// #0
  403ea4:	94000b57 	bl	406c00 <auto_effect>
  403ea8:	f9419f80 	ldr	x0, [x28, #824]
  403eac:	f9429b81 	ldr	x1, [x28, #1328]
  403eb0:	f8617800 	ldr	x0, [x0, x1, lsl #3]
  403eb4:	17fffe43 	b	4037c0 <main+0xd40>
  403eb8:	910082a0 	add	x0, x21, #0x20
  403ebc:	97fff9f5 	bl	402690 <sox_create_effect@plt>
  403ec0:	f941d783 	ldr	x3, [x28, #936]
  403ec4:	aa0003e1 	mov	x1, x0
  403ec8:	f941df84 	ldr	x4, [x28, #952]
  403ecc:	910323e2 	add	x2, sp, #0xc8
  403ed0:	aa0003f6 	mov	x22, x0
  403ed4:	aa1403e0 	mov	x0, x20
  403ed8:	8b030c83 	add	x3, x4, x3, lsl #3
  403edc:	f85f8063 	ldur	x3, [x3, #-8]
  403ee0:	f9409c63 	ldr	x3, [x3, #312]
  403ee4:	91002063 	add	x3, x3, #0x8
  403ee8:	97fff952 	bl	402430 <sox_add_effect@plt>
  403eec:	aa1603e0 	mov	x0, x22
  403ef0:	97fff974 	bl	4024c0 <free@plt>
  403ef4:	17fffdd5 	b	403648 <main+0xbc8>
  403ef8:	f9425780 	ldr	x0, [x28, #1192]
  403efc:	aa1703e1 	mov	x1, x23
  403f00:	d2800102 	mov	x2, #0x8                   	// #8
  403f04:	f902bf97 	str	x23, [x28, #1400]
  403f08:	97fff906 	bl	402320 <lsx_realloc_array@plt>
  403f0c:	f9025780 	str	x0, [x28, #1192]
  403f10:	17fffc80 	b	403110 <main+0x690>
  403f14:	97fff9ff 	bl	402710 <sox_get_globals@plt>
  403f18:	aa0003e1 	mov	x1, x0
  403f1c:	f0000020 	adrp	x0, 40a000 <__dso_handle+0x858>
  403f20:	913c0000 	add	x0, x0, #0xf00
  403f24:	f9002033 	str	x19, [x1, #64]
  403f28:	97fff946 	bl	402440 <lsx_fail_impl@plt>
  403f2c:	eb16029f 	cmp	x20, x22
  403f30:	54004e40 	b.eq	4048f8 <main+0x1e78>  // b.none
  403f34:	b94002ba 	ldr	w26, [x21]
  403f38:	7100075f 	cmp	w26, #0x1
  403f3c:	540052c0 	b.eq	404994 <main+0x1f14>  // b.none
  403f40:	7100135f 	cmp	w26, #0x4
  403f44:	54001c80 	b.eq	4042d4 <main+0x1854>  // b.none
  403f48:	97fff9f2 	bl	402710 <sox_get_globals@plt>
  403f4c:	aa0003e1 	mov	x1, x0
  403f50:	f0000020 	adrp	x0, 40a000 <__dso_handle+0x858>
  403f54:	913d8000 	add	x0, x0, #0xf60
  403f58:	f9002033 	str	x19, [x1, #64]
  403f5c:	97fff94d 	bl	402490 <lsx_warn_impl@plt>
  403f60:	a94787e0 	ldp	x0, x1, [sp, #120]
  403f64:	eb01001f 	cmp	x0, x1
  403f68:	54004c81 	b.ne	4048f8 <main+0x1e78>  // b.any
  403f6c:	f941df9b 	ldr	x27, [x28, #952]
  403f70:	17fffcf9 	b	403354 <main+0x8d4>
  403f74:	f941a780 	ldr	x0, [x28, #840]
  403f78:	f100041f 	cmp	x0, #0x1
  403f7c:	54ffcca1 	b.ne	403910 <main+0xe90>  // b.any
  403f80:	f9422780 	ldr	x0, [x28, #1096]
  403f84:	f9400401 	ldr	x1, [x0, #8]
  403f88:	f100043f 	cmp	x1, #0x1
  403f8c:	54ffcc29 	b.ls	403910 <main+0xe90>  // b.plast
  403f90:	f9400000 	ldr	x0, [x0]
  403f94:	f0000021 	adrp	x1, 40a000 <__dso_handle+0x858>
  403f98:	913f4021 	add	x1, x1, #0xfd0
  403f9c:	f9400414 	ldr	x20, [x0, #8]
  403fa0:	f9402e80 	ldr	x0, [x20, #88]
  403fa4:	97fffa27 	bl	402840 <strcmp@plt>
  403fa8:	35ffcb40 	cbnz	w0, 403910 <main+0xe90>
  403fac:	f941df80 	ldr	x0, [x28, #952]
  403fb0:	f9400000 	ldr	x0, [x0]
  403fb4:	f9409c00 	ldr	x0, [x0, #312]
  403fb8:	f9415801 	ldr	x1, [x0, #688]
  403fbc:	b4ffcaa1 	cbz	x1, 403910 <main+0xe90>
  403fc0:	b9412000 	ldr	w0, [x0, #288]
  403fc4:	34ffca60 	cbz	w0, 403910 <main+0xe90>
  403fc8:	aa1403e0 	mov	x0, x20
  403fcc:	97fffa11 	bl	402810 <sox_trim_get_start@plt>
  403fd0:	aa0003f4 	mov	x20, x0
  403fd4:	b4ffc9e0 	cbz	x0, 403910 <main+0xe90>
  403fd8:	aa0003e1 	mov	x1, x0
  403fdc:	52800002 	mov	w2, #0x0                   	// #0
  403fe0:	f941df80 	ldr	x0, [x28, #952]
  403fe4:	f9400000 	ldr	x0, [x0]
  403fe8:	f9409c00 	ldr	x0, [x0, #312]
  403fec:	97fffa6d 	bl	4029a0 <sox_seek@plt>
  403ff0:	35ffc900 	cbnz	w0, 403910 <main+0xe90>
  403ff4:	f941df81 	ldr	x1, [x28, #952]
  403ff8:	f9422780 	ldr	x0, [x28, #1096]
  403ffc:	f9400021 	ldr	x1, [x1]
  404000:	f9400000 	ldr	x0, [x0]
  404004:	f9409c21 	ldr	x1, [x1, #312]
  404008:	f9400400 	ldr	x0, [x0, #8]
  40400c:	b9401021 	ldr	w1, [x1, #16]
  404010:	9ac10a94 	udiv	x20, x20, x1
  404014:	f9020794 	str	x20, [x28, #1032]
  404018:	97fff9ae 	bl	4026d0 <sox_trim_clear_start@plt>
  40401c:	97fff9bd 	bl	402710 <sox_get_globals@plt>
  404020:	aa0003e1 	mov	x1, x0
  404024:	d0000020 	adrp	x0, 40a000 <__dso_handle+0x858>
  404028:	913f6000 	add	x0, x0, #0xfd8
  40402c:	f9002033 	str	x19, [x1, #64]
  404030:	97fff980 	bl	402630 <lsx_debug_impl@plt>
  404034:	17fffe37 	b	403910 <main+0xe90>
  404038:	910323e0 	add	x0, sp, #0xc8
  40403c:	d2800001 	mov	x1, #0x0                   	// #0
  404040:	97fff960 	bl	4025c0 <gettimeofday@plt>
  404044:	a94c83e1 	ldp	x1, x0, [sp, #200]
  404048:	f9429783 	ldr	x3, [x28, #1320]
  40404c:	f9429382 	ldr	x2, [x28, #1312]
  404050:	cb030000 	sub	x0, x0, x3
  404054:	9e620008 	scvtf	d8, x0
  404058:	cb020020 	sub	x0, x1, x2
  40405c:	9e620000 	scvtf	d0, x0
  404060:	1e691908 	fdiv	d8, d8, d9
  404064:	1e602908 	fadd	d8, d8, d0
  404068:	97fff9aa 	bl	402710 <sox_get_globals@plt>
  40406c:	aa0003e1 	mov	x1, x0
  404070:	1e604100 	fmov	d0, d8
  404074:	f0000020 	adrp	x0, 40b000 <__dso_handle+0x1858>
  404078:	9102e000 	add	x0, x0, #0xb8
  40407c:	f9002033 	str	x19, [x1, #64]
  404080:	97fff96c 	bl	402630 <lsx_debug_impl@plt>
  404084:	17fffe5c 	b	4039f4 <main+0xf74>
  404088:	f9419b80 	ldr	x0, [x28, #816]
  40408c:	91000694 	add	x20, x20, #0x1
  404090:	f9003fe0 	str	x0, [sp, #120]
  404094:	f9029b94 	str	x20, [x28, #1328]
  404098:	eb00029f 	cmp	x20, x0
  40409c:	54ffe062 	b.cs	403ca8 <main+0x1228>  // b.hs, b.nlast
  4040a0:	f9419f97 	ldr	x23, [x28, #824]
  4040a4:	d37df280 	lsl	x0, x20, #3
  4040a8:	f8747ae1 	ldr	x1, [x23, x20, lsl #3]
  4040ac:	f100043f 	cmp	x1, #0x1
  4040b0:	54ffd480 	b.eq	403b40 <main+0x10c0>  // b.none
  4040b4:	f94047e0 	ldr	x0, [sp, #136]
  4040b8:	97fff97a 	bl	4026a0 <sox_pop_effect_last@plt>
  4040bc:	f902d380 	str	x0, [x28, #1440]
  4040c0:	17fffec6 	b	403bd8 <main+0x1158>
  4040c4:	9101c2a0 	add	x0, x21, #0x70
  4040c8:	97fff972 	bl	402690 <sox_create_effect@plt>
  4040cc:	f941d783 	ldr	x3, [x28, #936]
  4040d0:	aa0003f6 	mov	x22, x0
  4040d4:	f941df84 	ldr	x4, [x28, #952]
  4040d8:	aa0003e1 	mov	x1, x0
  4040dc:	910323e2 	add	x2, sp, #0xc8
  4040e0:	aa1403e0 	mov	x0, x20
  4040e4:	8b030c83 	add	x3, x4, x3, lsl #3
  4040e8:	f85f8063 	ldur	x3, [x3, #-8]
  4040ec:	f9409c63 	ldr	x3, [x3, #312]
  4040f0:	91002063 	add	x3, x3, #0x8
  4040f4:	97fff8cf 	bl	402430 <sox_add_effect@plt>
  4040f8:	35003980 	cbnz	w0, 404828 <main+0x1da8>
  4040fc:	aa1603e0 	mov	x0, x22
  404100:	97fff8f0 	bl	4024c0 <free@plt>
  404104:	17fffdce 	b	40383c <main+0xdbc>
  404108:	f9402820 	ldr	x0, [x1, #80]
  40410c:	97fff8b9 	bl	4023f0 <sox_copy_comments@plt>
  404110:	f90077e0 	str	x0, [sp, #232]
  404114:	b4001c80 	cbz	x0, 4044a4 <main+0x1a24>
  404118:	b4000114 	cbz	x20, 404138 <main+0x16b8>
  40411c:	f9400281 	ldr	x1, [x20]
  404120:	39400020 	ldrb	w0, [x1]
  404124:	34002760 	cbz	w0, 404610 <main+0x1b90>
  404128:	9103a3e0 	add	x0, sp, #0xe8
  40412c:	97fff8ed 	bl	4024e0 <sox_append_comment@plt>
  404130:	f8408e81 	ldr	x1, [x20, #8]!
  404134:	b5ffffa1 	cbnz	x1, 404128 <main+0x16a8>
  404138:	f941d781 	ldr	x1, [x28, #936]
  40413c:	9103e3e0 	add	x0, sp, #0xf8
  404140:	f941df82 	ldr	x2, [x28, #952]
  404144:	9106e3fb 	add	x27, sp, #0x1b8
  404148:	fd420b80 	ldr	d0, [x28, #1040]
  40414c:	8b010c41 	add	x1, x2, x1, lsl #3
  404150:	f85f8021 	ldur	x1, [x1, #-8]
  404154:	fd400822 	ldr	d2, [x1, #16]
  404158:	1e601842 	fdiv	d2, d2, d0
  40415c:	d503201f 	nop
  404160:	6d400001 	ldp	d1, d0, [x0]
  404164:	7e61d821 	ucvtf	d1, d1
  404168:	7e61d800 	ucvtf	d0, d0
  40416c:	1e620821 	fmul	d1, d1, d2
  404170:	1e620800 	fmul	d0, d0, d2
  404174:	7ee1b821 	fcvtzu	d1, d1
  404178:	7ee1b800 	fcvtzu	d0, d0
  40417c:	6d000001 	stp	d1, d0, [x0]
  404180:	91006000 	add	x0, x0, #0x18
  404184:	eb00037f 	cmp	x27, x0
  404188:	54fffec1 	b.ne	404160 <main+0x16e0>  // b.any
  40418c:	b943a380 	ldr	w0, [x28, #928]
  404190:	f9400039 	ldr	x25, [x1]
  404194:	7100041f 	cmp	w0, #0x1
  404198:	54000e60 	b.eq	404364 <main+0x18e4>  // b.none
  40419c:	aa1903e0 	mov	x0, x25
  4041a0:	97fff930 	bl	402660 <lsx_strdup@plt>
  4041a4:	aa0003f8 	mov	x24, x0
  4041a8:	f941d781 	ldr	x1, [x28, #936]
  4041ac:	9103a3e4 	add	x4, sp, #0xe8
  4041b0:	f941df82 	ldr	x2, [x28, #952]
  4041b4:	f0000005 	adrp	x5, 407000 <cleanup+0x16c>
  4041b8:	913640a5 	add	x5, x5, #0xd90
  4041bc:	aa1803e0 	mov	x0, x24
  4041c0:	8b010c41 	add	x1, x2, x1, lsl #3
  4041c4:	f85f8034 	ldur	x20, [x1, #-8]
  4041c8:	91004281 	add	x1, x20, #0x10
  4041cc:	9100c282 	add	x2, x20, #0x30
  4041d0:	f9400683 	ldr	x3, [x20, #8]
  4041d4:	97fff867 	bl	402370 <sox_open_write@plt>
  4041d8:	f9009e80 	str	x0, [x20, #312]
  4041dc:	9103a3e0 	add	x0, sp, #0xe8
  4041e0:	97fff918 	bl	402640 <sox_delete_comments@plt>
  4041e4:	aa1803e0 	mov	x0, x24
  4041e8:	97fff8b6 	bl	4024c0 <free@plt>
  4041ec:	f941d780 	ldr	x0, [x28, #936]
  4041f0:	f941df81 	ldr	x1, [x28, #952]
  4041f4:	8b000c20 	add	x0, x1, x0, lsl #3
  4041f8:	f85f8016 	ldur	x22, [x0, #-8]
  4041fc:	f9409ed4 	ldr	x20, [x22, #312]
  404200:	b4003154 	cbz	x20, 404828 <main+0x1da8>
  404204:	b94012a0 	ldr	w0, [x21, #16]
  404208:	7100081f 	cmp	w0, #0x2
  40420c:	540000c1 	b.ne	404224 <main+0x17a4>  // b.any
  404210:	f9413e80 	ldr	x0, [x20, #632]
  404214:	927f0400 	and	x0, x0, #0x6
  404218:	f100081f 	cmp	x0, #0x2
  40421c:	1a9f17e0 	cset	w0, eq  // eq = none
  404220:	b90012a0 	str	w0, [x21, #16]
  404224:	97fff93b 	bl	402710 <sox_get_globals@plt>
  404228:	b9400000 	ldr	w0, [x0]
  40422c:	7100081f 	cmp	w0, #0x2
  404230:	54ff9e49 	b.ls	4035f8 <main+0xb78>  // b.plast
  404234:	aa1403e0 	mov	x0, x20
  404238:	aa1603e1 	mov	x1, x22
  40423c:	52800022 	mov	w2, #0x1                   	// #1
  404240:	94000f1d 	bl	407eb4 <display_file_info>
  404244:	f9422794 	ldr	x20, [x28, #1096]
  404248:	b5ff9dd4 	cbnz	x20, 403600 <main+0xb80>
  40424c:	f941d781 	ldr	x1, [x28, #936]
  404250:	91160380 	add	x0, x28, #0x580
  404254:	f941df82 	ldr	x2, [x28, #952]
  404258:	8b010c41 	add	x1, x2, x1, lsl #3
  40425c:	f85f8021 	ldur	x1, [x1, #-8]
  404260:	f9409c21 	ldr	x1, [x1, #312]
  404264:	9100a021 	add	x1, x1, #0x28
  404268:	97fff9e6 	bl	402a00 <sox_create_effects_chain@plt>
  40426c:	aa0003f4 	mov	x20, x0
  404270:	f9022780 	str	x0, [x28, #1096]
  404274:	17fffce3 	b	403600 <main+0xb80>
  404278:	b9407be0 	ldr	w0, [sp, #120]
  40427c:	520006f7 	eor	w23, w23, #0x3
  404280:	7100041f 	cmp	w0, #0x1
  404284:	54ff6100 	b.eq	402ea4 <main+0x424>  // b.none
  404288:	52800020 	mov	w0, #0x1                   	// #1
  40428c:	b9007be0 	str	w0, [sp, #120]
  404290:	17fffaf1 	b	402e54 <main+0x3d4>
  404294:	f94073e0 	ldr	x0, [sp, #224]
  404298:	b40000a0 	cbz	x0, 4042ac <main+0x182c>
  40429c:	fd400001 	ldr	d1, [x0]
  4042a0:	1e6e1000 	fmov	d0, #1.000000000000000000e+00
  4042a4:	1e602020 	fcmp	d1, d0
  4042a8:	54ffa820 	b.eq	4037ac <main+0xd2c>  // b.none
  4042ac:	b940bbe1 	ldr	w1, [sp, #184]
  4042b0:	d0000020 	adrp	x0, 40a000 <__dso_handle+0x858>
  4042b4:	d0000026 	adrp	x6, 40a000 <__dso_handle+0x858>
  4042b8:	91086000 	add	x0, x0, #0x218
  4042bc:	912c60c6 	add	x6, x6, #0xb18
  4042c0:	7100003f 	cmp	w1, #0x0
  4042c4:	9a8010c6 	csel	x6, x6, x0, ne  // ne = any
  4042c8:	12800000 	mov	w0, #0xffffffff            	// #-1
  4042cc:	b900bfe0 	str	w0, [sp, #188]
  4042d0:	17fffd29 	b	403774 <main+0xcf4>
  4042d4:	a94787e0 	ldp	x0, x1, [sp, #120]
  4042d8:	eb01001f 	cmp	x0, x1
  4042dc:	540030e1 	b.ne	4048f8 <main+0x1e78>  // b.any
  4042e0:	2a1903e2 	mov	w2, w25
  4042e4:	b9041b99 	str	w25, [x28, #1048]
  4042e8:	b10006ff 	cmn	x23, #0x1
  4042ec:	54000040 	b.eq	4042f4 <main+0x1874>  // b.none
  4042f0:	9b027ef7 	mul	x23, x23, x2
  4042f4:	f9021397 	str	x23, [x28, #1056]
  4042f8:	f941df9b 	ldr	x27, [x28, #952]
  4042fc:	f9428394 	ldr	x20, [x28, #1280]
  404300:	17fffc28 	b	4033a0 <main+0x920>
  404304:	54ff84e9 	b.ls	4033a0 <main+0x920>  // b.plast
  404308:	17fffff8 	b	4042e8 <main+0x1868>
  40430c:	ad408c02 	ldp	q2, q3, [x0, #16]
  404310:	ad418400 	ldp	q0, q1, [x0, #48]
  404314:	ad000c22 	stp	q2, q3, [x1]
  404318:	ad000440 	stp	q0, q1, [x2]
  40431c:	17fffa57 	b	402c78 <main+0x1f8>
  404320:	3cc08100 	ldur	q0, [x8, #8]
  404324:	91104380 	add	x0, x28, #0x410
  404328:	3cc18101 	ldur	q1, [x8, #24]
  40432c:	ad000400 	stp	q0, q1, [x0]
  404330:	34ff8349 	cbz	w9, 403398 <main+0x918>
  404334:	97fff8f7 	bl	402710 <sox_get_globals@plt>
  404338:	aa0003e1 	mov	x1, x0
  40433c:	d2800018 	mov	x24, #0x0                   	// #0
  404340:	d0000020 	adrp	x0, 40a000 <__dso_handle+0x858>
  404344:	d2800017 	mov	x23, #0x0                   	// #0
  404348:	913c0000 	add	x0, x0, #0xf00
  40434c:	f9002033 	str	x19, [x1, #64]
  404350:	92800001 	mov	x1, #0xffffffffffffffff    	// #-1
  404354:	d2800016 	mov	x22, #0x0                   	// #0
  404358:	a907ffe1 	stp	x1, xzr, [sp, #120]
  40435c:	97fff839 	bl	402440 <lsx_fail_impl@plt>
  404360:	17fffef5 	b	403f34 <main+0x14b4>
  404364:	f942d796 	ldr	x22, [x28, #1448]
  404368:	d2820000 	mov	x0, #0x1000                	// #4096
  40436c:	910006d6 	add	x22, x22, #0x1
  404370:	f902d796 	str	x22, [x28, #1448]
  404374:	97fff91f 	bl	4027f0 <lsx_malloc@plt>
  404378:	aa0003f8 	mov	x24, x0
  40437c:	aa1903e0 	mov	x0, x25
  404380:	97fff810 	bl	4023c0 <strlen@plt>
  404384:	8b00033a 	add	x26, x25, x0
  404388:	aa1a03e4 	mov	x4, x26
  40438c:	eb19035f 	cmp	x26, x25
  404390:	540000a8 	b.hi	4043a4 <main+0x1924>  // b.pmore
  404394:	14000149 	b	4048b8 <main+0x1e38>
  404398:	d100075a 	sub	x26, x26, #0x1
  40439c:	eb19035f 	cmp	x26, x25
  4043a0:	54001540 	b.eq	404648 <main+0x1bc8>  // b.none
  4043a4:	39400340 	ldrb	w0, [x26]
  4043a8:	7100b81f 	cmp	w0, #0x2e
  4043ac:	54ffff61 	b.ne	404398 <main+0x1918>  // b.any
  4043b0:	d0000037 	adrp	x23, 40a000 <__dso_handle+0x858>
  4043b4:	f0000025 	adrp	x5, 40b000 <__dso_handle+0x1858>
  4043b8:	913ea2e0 	add	x0, x23, #0xfa8
  4043bc:	aa1803f4 	mov	x20, x24
  4043c0:	9105a0b7 	add	x23, x5, #0x168
  4043c4:	52800001 	mov	w1, #0x0                   	// #0
  4043c8:	f9003fe0 	str	x0, [sp, #120]
  4043cc:	14000005 	b	4043e0 <main+0x1960>
  4043d0:	aa0303f9 	mov	x25, x3
  4043d4:	38001680 	strb	w0, [x20], #1
  4043d8:	eb19009f 	cmp	x4, x25
  4043dc:	54000229 	b.ls	404420 <main+0x19a0>  // b.plast
  4043e0:	aa1903e3 	mov	x3, x25
  4043e4:	38401460 	ldrb	w0, [x3], #1
  4043e8:	7100941f 	cmp	w0, #0x25
  4043ec:	54ffff21 	b.ne	4043d0 <main+0x1950>  // b.any
  4043f0:	39400722 	ldrb	w2, [x25, #1]
  4043f4:	5100c440 	sub	w0, w2, #0x31
  4043f8:	12001c00 	and	w0, w0, #0xff
  4043fc:	7100201f 	cmp	w0, #0x8
  404400:	540002c9 	b.ls	404458 <main+0x19d8>  // b.plast
  404404:	2a0203e0 	mov	w0, w2
  404408:	7101b85f 	cmp	w2, #0x6e
  40440c:	540010e0 	b.eq	404628 <main+0x1ba8>  // b.none
  404410:	91000479 	add	x25, x3, #0x1
  404414:	38001680 	strb	w0, [x20], #1
  404418:	eb19009f 	cmp	x4, x25
  40441c:	54fffe28 	b.hi	4043e0 <main+0x1960>  // b.pmore
  404420:	3900029f 	strb	wzr, [x20]
  404424:	35ffec21 	cbnz	w1, 4041a8 <main+0x1728>
  404428:	aa1a03e0 	mov	x0, x26
  40442c:	97fff7e5 	bl	4023c0 <strlen@plt>
  404430:	aa1603e2 	mov	x2, x22
  404434:	cb000294 	sub	x20, x20, x0
  404438:	aa1403e0 	mov	x0, x20
  40443c:	d0000021 	adrp	x1, 40a000 <__dso_handle+0x858>
  404440:	913ec021 	add	x1, x1, #0xfb0
  404444:	97fff863 	bl	4025d0 <sprintf@plt>
  404448:	aa1a03e1 	mov	x1, x26
  40444c:	91000e80 	add	x0, x20, #0x3
  404450:	97fff978 	bl	402a30 <strcat@plt>
  404454:	17ffff55 	b	4041a8 <main+0x1728>
  404458:	39400b20 	ldrb	w0, [x25, #2]
  40445c:	91000b23 	add	x3, x25, #0x2
  404460:	7101b81f 	cmp	w0, #0x6e
  404464:	54fffd61 	b.ne	404410 <main+0x1990>  // b.any
  404468:	f9403fe1 	ldr	x1, [sp, #120]
  40446c:	aa1b03e0 	mov	x0, x27
  404470:	a90813e3 	stp	x3, x4, [sp, #128]
  404474:	97fff857 	bl	4025d0 <sprintf@plt>
  404478:	a94813e3 	ldp	x3, x4, [sp, #128]
  40447c:	aa1b03e1 	mov	x1, x27
  404480:	aa1403e0 	mov	x0, x20
  404484:	aa1603e2 	mov	x2, x22
  404488:	a90813e3 	stp	x3, x4, [sp, #128]
  40448c:	97fff851 	bl	4025d0 <sprintf@plt>
  404490:	52800021 	mov	w1, #0x1                   	// #1
  404494:	a94813e3 	ldp	x3, x4, [sp, #128]
  404498:	8b20c294 	add	x20, x20, w0, sxtw
  40449c:	91000479 	add	x25, x3, #0x1
  4044a0:	17ffffce 	b	4043d8 <main+0x1958>
  4044a4:	b5ffe3d4 	cbnz	x20, 40411c <main+0x169c>
  4044a8:	9103a3e0 	add	x0, sp, #0xe8
  4044ac:	d0000021 	adrp	x1, 40a000 <__dso_handle+0x858>
  4044b0:	913e4021 	add	x1, x1, #0xf90
  4044b4:	97fff80b 	bl	4024e0 <sox_append_comment@plt>
  4044b8:	17ffff20 	b	404138 <main+0x16b8>
  4044bc:	32150002 	orr	w2, w0, #0x800
  4044c0:	52800081 	mov	w1, #0x4                   	// #4
  4044c4:	2a1403e0 	mov	w0, w20
  4044c8:	97fff942 	bl	4029d0 <fcntl@plt>
  4044cc:	3100041f 	cmn	w0, #0x1
  4044d0:	54ffa481 	b.ne	403960 <main+0xee0>  // b.any
  4044d4:	97fff88f 	bl	402710 <sox_get_globals@plt>
  4044d8:	aa0003e1 	mov	x1, x0
  4044dc:	f94057e0 	ldr	x0, [sp, #168]
  4044e0:	b9400000 	ldr	w0, [x0]
  4044e4:	f9002033 	str	x19, [x1, #64]
  4044e8:	97fff826 	bl	402580 <strerror@plt>
  4044ec:	aa0003e1 	mov	x1, x0
  4044f0:	f0000020 	adrp	x0, 40b000 <__dso_handle+0x1858>
  4044f4:	91024000 	add	x0, x0, #0x90
  4044f8:	97fff7e6 	bl	402490 <lsx_warn_impl@plt>
  4044fc:	17fffd19 	b	403960 <main+0xee0>
  404500:	f9422393 	ldr	x19, [x28, #1088]
  404504:	b5000e73 	cbnz	x19, 4046d0 <main+0x1c50>
  404508:	f941d780 	ldr	x0, [x28, #936]
  40450c:	b40003a0 	cbz	x0, 404580 <main+0x1b00>
  404510:	b0000037 	adrp	x23, 409000 <combiner_drain+0x44c>
  404514:	f0000036 	adrp	x22, 40b000 <__dso_handle+0x1858>
  404518:	912882f7 	add	x23, x23, #0xa20
  40451c:	910422d6 	add	x22, x22, #0x108
  404520:	14000007 	b	40453c <main+0x1abc>
  404524:	f94053e1 	ldr	x1, [sp, #160]
  404528:	f941d780 	ldr	x0, [x28, #936]
  40452c:	91000421 	add	x1, x1, #0x1
  404530:	f90053e1 	str	x1, [sp, #160]
  404534:	eb01001f 	cmp	x0, x1
  404538:	54000249 	b.ls	404580 <main+0x1b00>  // b.plast
  40453c:	f94053e1 	ldr	x1, [sp, #160]
  404540:	f941df80 	ldr	x0, [x28, #952]
  404544:	f8617814 	ldr	x20, [x0, x1, lsl #3]
  404548:	f940a293 	ldr	x19, [x20, #320]
  40454c:	b4fffed3 	cbz	x19, 404524 <main+0x1aa4>
  404550:	97fff870 	bl	402710 <sox_get_globals@plt>
  404554:	f9400281 	ldr	x1, [x20]
  404558:	f9002017 	str	x23, [x0, #64]
  40455c:	aa1303e2 	mov	x2, x19
  404560:	aa1603e0 	mov	x0, x22
  404564:	97fff7cb 	bl	402490 <lsx_warn_impl@plt>
  404568:	f94053e1 	ldr	x1, [sp, #160]
  40456c:	f941d780 	ldr	x0, [x28, #936]
  404570:	91000421 	add	x1, x1, #0x1
  404574:	f90053e1 	str	x1, [sp, #160]
  404578:	eb01001f 	cmp	x0, x1
  40457c:	54fffe08 	b.hi	40453c <main+0x1abc>  // b.pmore
  404580:	b94012a0 	ldr	w0, [x21, #16]
  404584:	340001e0 	cbz	w0, 4045c0 <main+0x1b40>
  404588:	b943f780 	ldr	w0, [x28, #1012]
  40458c:	900000e1 	adrp	x1, 420000 <fputs@GLIBC_2.17>
  404590:	f9425023 	ldr	x3, [x1, #1184]
  404594:	350013e0 	cbnz	w0, 404810 <main+0x1d90>
  404598:	b944fb80 	ldr	w0, [x28, #1272]
  40459c:	34000c80 	cbz	w0, 40472c <main+0x1cac>
  4045a0:	b943b380 	ldr	w0, [x28, #944]
  4045a4:	7100081f 	cmp	w0, #0x2
  4045a8:	54000c20 	b.eq	40472c <main+0x1cac>  // b.none
  4045ac:	f0000020 	adrp	x0, 40b000 <__dso_handle+0x1858>
  4045b0:	d2800122 	mov	x2, #0x9                   	// #9
  4045b4:	91054000 	add	x0, x0, #0x150
  4045b8:	d2800021 	mov	x1, #0x1                   	// #1
  4045bc:	97fff8e5 	bl	402950 <fwrite@plt>
  4045c0:	52800020 	mov	w0, #0x1                   	// #1
  4045c4:	b9045b80 	str	w0, [x28, #1112]
  4045c8:	94000a33 	bl	406e94 <cleanup>
  4045cc:	b94083e0 	ldr	w0, [sp, #128]
  4045d0:	f00000c1 	adrp	x1, 41f000 <__FRAME_END__+0x11414>
  4045d4:	7100001f 	cmp	w0, #0x0
  4045d8:	1a9f07e0 	cset	w0, ne  // ne = any
  4045dc:	f940e7e3 	ldr	x3, [sp, #456]
  4045e0:	f946e022 	ldr	x2, [x1, #3520]
  4045e4:	eb020063 	subs	x3, x3, x2
  4045e8:	d2800002 	mov	x2, #0x0                   	// #0
  4045ec:	540024a1 	b.ne	404a80 <main+0x2000>  // b.any
  4045f0:	a94153f3 	ldp	x19, x20, [sp, #16]
  4045f4:	a9425bf5 	ldp	x21, x22, [sp, #32]
  4045f8:	a94363f7 	ldp	x23, x24, [sp, #48]
  4045fc:	a9446bf9 	ldp	x25, x26, [sp, #64]
  404600:	a94573fb 	ldp	x27, x28, [sp, #80]
  404604:	6d4627e8 	ldp	d8, d9, [sp, #96]
  404608:	a8dd7bfd 	ldp	x29, x30, [sp], #464
  40460c:	d65f03c0 	ret
  404610:	9103a3e0 	add	x0, sp, #0xe8
  404614:	97fff80b 	bl	402640 <sox_delete_comments@plt>
  404618:	f9400681 	ldr	x1, [x20, #8]
  40461c:	b4ffd8e1 	cbz	x1, 404138 <main+0x16b8>
  404620:	91002294 	add	x20, x20, #0x8
  404624:	17fffec1 	b	404128 <main+0x16a8>
  404628:	394012e0 	ldrb	w0, [x23, #4]
  40462c:	b94002e1 	ldr	w1, [x23]
  404630:	b9000361 	str	w1, [x27]
  404634:	39001360 	strb	w0, [x27, #4]
  404638:	17ffff91 	b	40447c <main+0x19fc>
  40463c:	b9401840 	ldr	w0, [x2, #24]
  404640:	fd400840 	ldr	d0, [x2, #16]
  404644:	17fffbb0 	b	403504 <main+0xa84>
  404648:	39400340 	ldrb	w0, [x26]
  40464c:	7100b81f 	cmp	w0, #0x2e
  404650:	9a84035a 	csel	x26, x26, x4, eq  // eq = none
  404654:	17ffff57 	b	4043b0 <main+0x1930>
  404658:	b944e780 	ldr	w0, [x28, #1252]
  40465c:	340004c0 	cbz	w0, 4046f4 <main+0x1c74>
  404660:	f10006ff 	cmp	x23, #0x1
  404664:	54000748 	b.hi	40474c <main+0x1ccc>  // b.pmore
  404668:	52800020 	mov	w0, #0x1                   	// #1
  40466c:	b9001aa0 	str	w0, [x21, #24]
  404670:	17fff9e6 	b	402e08 <main+0x388>
  404674:	900000e0 	adrp	x0, 420000 <fputs@GLIBC_2.17>
  404678:	f9425000 	ldr	x0, [x0, #1184]
  40467c:	940006b9 	bl	406160 <display_SoX_version>
  404680:	17fff940 	b	402b80 <main+0x100>
  404684:	d2800001 	mov	x1, #0x0                   	// #0
  404688:	910323e0 	add	x0, sp, #0xc8
  40468c:	97fff7cd 	bl	4025c0 <gettimeofday@plt>
  404690:	a94c83f3 	ldp	x19, x0, [sp, #200]
  404694:	4b000273 	sub	w19, w19, w0
  404698:	97fff81e 	bl	402710 <sox_get_globals@plt>
  40469c:	b9002813 	str	w19, [x0, #40]
  4046a0:	17fffa43 	b	402fac <main+0x52c>
  4046a4:	97fff81b 	bl	402710 <sox_get_globals@plt>
  4046a8:	aa0003e1 	mov	x1, x0
  4046ac:	d0000020 	adrp	x0, 40a000 <__dso_handle+0x858>
  4046b0:	913fe000 	add	x0, x0, #0xff8
  4046b4:	f9002033 	str	x19, [x1, #64]
  4046b8:	97fff7de 	bl	402630 <lsx_debug_impl@plt>
  4046bc:	52800020 	mov	w0, #0x1                   	// #1
  4046c0:	b903f380 	str	w0, [x28, #1008]
  4046c4:	17fffc9b 	b	403930 <main+0xeb0>
  4046c8:	f9422393 	ldr	x19, [x28, #1088]
  4046cc:	b4fff5b3 	cbz	x19, 404580 <main+0x1b00>
  4046d0:	97fff810 	bl	402710 <sox_get_globals@plt>
  4046d4:	b0000022 	adrp	x2, 409000 <combiner_drain+0x44c>
  4046d8:	91288042 	add	x2, x2, #0xa20
  4046dc:	f0000023 	adrp	x3, 40b000 <__dso_handle+0x1858>
  4046e0:	f9002002 	str	x2, [x0, #64]
  4046e4:	aa1303e1 	mov	x1, x19
  4046e8:	91034060 	add	x0, x3, #0xd0
  4046ec:	97fff769 	bl	402490 <lsx_warn_impl@plt>
  4046f0:	17ffff86 	b	404508 <main+0x1a88>
  4046f4:	52800000 	mov	w0, #0x0                   	// #0
  4046f8:	b9001aa0 	str	w0, [x21, #24]
  4046fc:	17fff9c3 	b	402e08 <main+0x388>
  404700:	b903c817 	str	w23, [x0, #968]
  404704:	17fff930 	b	402bc4 <main+0x144>
  404708:	52800040 	mov	w0, #0x2                   	// #2
  40470c:	b903b380 	str	w0, [x28, #944]
  404710:	17fff903 	b	402b1c <main+0x9c>
  404714:	d0000021 	adrp	x1, 40a000 <__dso_handle+0x858>
  404718:	aa1303e0 	mov	x0, x19
  40471c:	91304021 	add	x1, x1, #0xc10
  404720:	97fff848 	bl	402840 <strcmp@plt>
  404724:	35ff1fc0 	cbnz	w0, 402b1c <main+0x9c>
  404728:	17fff994 	b	402d78 <main+0x2f8>
  40472c:	f0000020 	adrp	x0, 40b000 <__dso_handle+0x1858>
  404730:	d28000c2 	mov	x2, #0x6                   	// #6
  404734:	d2800021 	mov	x1, #0x1                   	// #1
  404738:	91058000 	add	x0, x0, #0x160
  40473c:	97fff885 	bl	402950 <fwrite@plt>
  404740:	17ffffa0 	b	4045c0 <main+0x1b40>
  404744:	940002e7 	bl	4052e0 <free_eff_chain>
  404748:	17fffa66 	b	4030e0 <main+0x660>
  40474c:	f9400300 	ldr	x0, [x24]
  404750:	d0000033 	adrp	x19, 40a000 <__dso_handle+0x858>
  404754:	91366273 	add	x19, x19, #0xd98
  404758:	aa1303e1 	mov	x1, x19
  40475c:	f9409c00 	ldr	x0, [x0, #312]
  404760:	f9402800 	ldr	x0, [x0, #80]
  404764:	97fff853 	bl	4028b0 <sox_find_comment@plt>
  404768:	f941df82 	ldr	x2, [x28, #952]
  40476c:	aa1303e1 	mov	x1, x19
  404770:	aa0003f3 	mov	x19, x0
  404774:	f9400440 	ldr	x0, [x2, #8]
  404778:	f9409c00 	ldr	x0, [x0, #312]
  40477c:	f9402800 	ldr	x0, [x0, #80]
  404780:	97fff84c 	bl	4028b0 <sox_find_comment@plt>
  404784:	aa0003e1 	mov	x1, x0
  404788:	f100027f 	cmp	x19, #0x0
  40478c:	fa401804 	ccmp	x0, #0x0, #0x4, ne  // ne = any
  404790:	54fff6c0 	b.eq	404668 <main+0x1be8>  // b.none
  404794:	aa1303e0 	mov	x0, x19
  404798:	97fff85a 	bl	402900 <strcasecmp@plt>
  40479c:	35fff660 	cbnz	w0, 404668 <main+0x1be8>
  4047a0:	f941df80 	ldr	x0, [x28, #952]
  4047a4:	d0000033 	adrp	x19, 40a000 <__dso_handle+0x858>
  4047a8:	91368273 	add	x19, x19, #0xda0
  4047ac:	aa1303e1 	mov	x1, x19
  4047b0:	f9400000 	ldr	x0, [x0]
  4047b4:	f9409c00 	ldr	x0, [x0, #312]
  4047b8:	f9402800 	ldr	x0, [x0, #80]
  4047bc:	97fff83d 	bl	4028b0 <sox_find_comment@plt>
  4047c0:	f941df82 	ldr	x2, [x28, #952]
  4047c4:	aa1303e1 	mov	x1, x19
  4047c8:	aa0003f3 	mov	x19, x0
  4047cc:	f9400440 	ldr	x0, [x2, #8]
  4047d0:	f9409c00 	ldr	x0, [x0, #312]
  4047d4:	f9402800 	ldr	x0, [x0, #80]
  4047d8:	97fff836 	bl	4028b0 <sox_find_comment@plt>
  4047dc:	aa0003e1 	mov	x1, x0
  4047e0:	f100027f 	cmp	x19, #0x0
  4047e4:	fa401804 	ccmp	x0, #0x0, #0x4, ne  // ne = any
  4047e8:	54fff400 	b.eq	404668 <main+0x1be8>  // b.none
  4047ec:	aa1303e0 	mov	x0, x19
  4047f0:	97fff844 	bl	402900 <strcasecmp@plt>
  4047f4:	35fff3a0 	cbnz	w0, 404668 <main+0x1be8>
  4047f8:	52800040 	mov	w0, #0x2                   	// #2
  4047fc:	b9001aa0 	str	w0, [x21, #24]
  404800:	17fff982 	b	402e08 <main+0x388>
  404804:	52800000 	mov	w0, #0x0                   	// #0
  404808:	b904e780 	str	w0, [x28, #1252]
  40480c:	17fff8e0 	b	402b8c <main+0x10c>
  404810:	f0000020 	adrp	x0, 40b000 <__dso_handle+0x1858>
  404814:	d2800122 	mov	x2, #0x9                   	// #9
  404818:	d2800021 	mov	x1, #0x1                   	// #1
  40481c:	91050000 	add	x0, x0, #0x140
  404820:	97fff84c 	bl	402950 <fwrite@plt>
  404824:	17ffff67 	b	4045c0 <main+0x1b40>
  404828:	52800040 	mov	w0, #0x2                   	// #2
  40482c:	97fff83d 	bl	402920 <exit@plt>
  404830:	91100339 	add	x25, x25, #0x400
  404834:	aa1303e0 	mov	x0, x19
  404838:	aa1903e1 	mov	x1, x25
  40483c:	0b1602f7 	add	w23, w23, w22
  404840:	97fff6c4 	bl	402350 <lsx_realloc@plt>
  404844:	aa0003f3 	mov	x19, x0
  404848:	17fff9ff 	b	403044 <main+0x5c4>
  40484c:	38206a7f 	strb	wzr, [x19, x0]
  404850:	910323e1 	add	x1, sp, #0xc8
  404854:	aa1303e0 	mov	x0, x19
  404858:	9400030e 	bl	405490 <strtoargv>
  40485c:	aa0003f6 	mov	x22, x0
  404860:	b4000680 	cbz	x0, 404930 <main+0x1eb0>
  404864:	b940cbe0 	ldr	w0, [sp, #200]
  404868:	b9007be0 	str	w0, [sp, #120]
  40486c:	f94002d7 	ldr	x23, [x22]
  404870:	7100041f 	cmp	w0, #0x1
  404874:	540007c0 	b.eq	40496c <main+0x1eec>  // b.none
  404878:	5280001b 	mov	w27, #0x0                   	// #0
  40487c:	aa1703e0 	mov	x0, x23
  404880:	97fff730 	bl	402540 <sox_find_effect@plt>
  404884:	b40005c0 	cbz	x0, 40493c <main+0x1ebc>
  404888:	b9407be0 	ldr	w0, [sp, #120]
  40488c:	aa1603e1 	mov	x1, x22
  404890:	b9038b9f 	str	wzr, [x28, #904]
  404894:	9400038b 	bl	4056c0 <parse_effects>
  404898:	f9419b80 	ldr	x0, [x28, #816]
  40489c:	f9419f81 	ldr	x1, [x28, #824]
  4048a0:	f8607821 	ldr	x1, [x1, x0, lsl #3]
  4048a4:	b5000701 	cbnz	x1, 404984 <main+0x1f04>
  4048a8:	aa1603e0 	mov	x0, x22
  4048ac:	52800017 	mov	w23, #0x0                   	// #0
  4048b0:	97fff704 	bl	4024c0 <free@plt>
  4048b4:	17fff9e4 	b	403044 <main+0x5c4>
  4048b8:	aa1803f4 	mov	x20, x24
  4048bc:	3900031f 	strb	wzr, [x24]
  4048c0:	17fffeda 	b	404428 <main+0x19a8>
  4048c4:	52800000 	mov	w0, #0x0                   	// #0
  4048c8:	97fff816 	bl	402920 <exit@plt>
  4048cc:	97fff791 	bl	402710 <sox_get_globals@plt>
  4048d0:	52800041 	mov	w1, #0x2                   	// #2
  4048d4:	b9000001 	str	w1, [x0]
  4048d8:	97fff78e 	bl	402710 <sox_get_globals@plt>
  4048dc:	f941cb81 	ldr	x1, [x28, #912]
  4048e0:	b0000022 	adrp	x2, 409000 <combiner_drain+0x44c>
  4048e4:	91288042 	add	x2, x2, #0xa20
  4048e8:	f9002002 	str	x2, [x0, #64]
  4048ec:	d0000020 	adrp	x0, 40a000 <__dso_handle+0x858>
  4048f0:	91178000 	add	x0, x0, #0x5e0
  4048f4:	97fff6d3 	bl	402440 <lsx_fail_impl@plt>
  4048f8:	52800020 	mov	w0, #0x1                   	// #1
  4048fc:	97fff809 	bl	402920 <exit@plt>
  404900:	97fff784 	bl	402710 <sox_get_globals@plt>
  404904:	f9402f41 	ldr	x1, [x26, #88]
  404908:	b0000022 	adrp	x2, 409000 <combiner_drain+0x44c>
  40490c:	91288042 	add	x2, x2, #0xa20
  404910:	f9002002 	str	x2, [x0, #64]
  404914:	d0000020 	adrp	x0, 40a000 <__dso_handle+0x858>
  404918:	913b8000 	add	x0, x0, #0xee0
  40491c:	97fff6c9 	bl	402440 <lsx_fail_impl@plt>
  404920:	52800020 	mov	w0, #0x1                   	// #1
  404924:	97fff7ff 	bl	402920 <exit@plt>
  404928:	b90083ff 	str	wzr, [sp, #128]
  40492c:	17fffcdf 	b	403ca8 <main+0x1228>
  404930:	5280001b 	mov	w27, #0x0                   	// #0
  404934:	52800017 	mov	w23, #0x0                   	// #0
  404938:	17fff9c3 	b	403044 <main+0x5c4>
  40493c:	aa1703e0 	mov	x0, x23
  404940:	9400017c 	bl	404f30 <is_pseudo_effect>
  404944:	35fffa20 	cbnz	w0, 404888 <main+0x1e08>
  404948:	97fff772 	bl	402710 <sox_get_globals@plt>
  40494c:	aa0003e1 	mov	x1, x0
  404950:	d0000020 	adrp	x0, 40a000 <__dso_handle+0x858>
  404954:	9138a000 	add	x0, x0, #0xe28
  404958:	f900203a 	str	x26, [x1, #64]
  40495c:	f94002c1 	ldr	x1, [x22]
  404960:	97fff6b8 	bl	402440 <lsx_fail_impl@plt>
  404964:	52800020 	mov	w0, #0x1                   	// #1
  404968:	97fff7ee 	bl	402920 <exit@plt>
  40496c:	f94043e1 	ldr	x1, [sp, #128]
  404970:	aa1703e0 	mov	x0, x23
  404974:	97fff7b3 	bl	402840 <strcmp@plt>
  404978:	7100001f 	cmp	w0, #0x0
  40497c:	1a9f17fb 	cset	w27, eq  // eq = none
  404980:	17ffffbf 	b	40487c <main+0x1dfc>
  404984:	91000400 	add	x0, x0, #0x1
  404988:	f9019b80 	str	x0, [x28, #816]
  40498c:	94000326 	bl	405624 <add_eff_chain>
  404990:	17ffffc6 	b	4048a8 <main+0x1e28>
  404994:	97fff75f 	bl	402710 <sox_get_globals@plt>
  404998:	aa0003e2 	mov	x2, x0
  40499c:	b0000021 	adrp	x1, 409000 <combiner_drain+0x44c>
  4049a0:	91288021 	add	x1, x1, #0xa20
  4049a4:	d0000020 	adrp	x0, 40a000 <__dso_handle+0x858>
  4049a8:	913cc000 	add	x0, x0, #0xf30
  4049ac:	f9002041 	str	x1, [x2, #64]
  4049b0:	97fff6a4 	bl	402440 <lsx_fail_impl@plt>
  4049b4:	2a1a03e0 	mov	w0, w26
  4049b8:	97fff7da 	bl	402920 <exit@plt>
  4049bc:	97fff755 	bl	402710 <sox_get_globals@plt>
  4049c0:	aa0003e2 	mov	x2, x0
  4049c4:	aa1803e1 	mov	x1, x24
  4049c8:	d0000020 	adrp	x0, 40a000 <__dso_handle+0x858>
  4049cc:	9137c000 	add	x0, x0, #0xdf0
  4049d0:	f900205a 	str	x26, [x2, #64]
  4049d4:	97fff69b 	bl	402440 <lsx_fail_impl@plt>
  4049d8:	52800020 	mov	w0, #0x1                   	// #1
  4049dc:	97fff7d1 	bl	402920 <exit@plt>
  4049e0:	97fff74c 	bl	402710 <sox_get_globals@plt>
  4049e4:	aa0003e1 	mov	x1, x0
  4049e8:	f94057e0 	ldr	x0, [sp, #168]
  4049ec:	b9400000 	ldr	w0, [x0]
  4049f0:	f900203a 	str	x26, [x1, #64]
  4049f4:	97fff6e3 	bl	402580 <strerror@plt>
  4049f8:	aa0003e2 	mov	x2, x0
  4049fc:	aa1803e1 	mov	x1, x24
  404a00:	d0000020 	adrp	x0, 40a000 <__dso_handle+0x858>
  404a04:	91394000 	add	x0, x0, #0xe50
  404a08:	97fff68e 	bl	402440 <lsx_fail_impl@plt>
  404a0c:	52800020 	mov	w0, #0x1                   	// #1
  404a10:	97fff7c4 	bl	402920 <exit@plt>
  404a14:	97fff73f 	bl	402710 <sox_get_globals@plt>
  404a18:	aa0003e2 	mov	x2, x0
  404a1c:	f94057e0 	ldr	x0, [sp, #168]
  404a20:	b0000021 	adrp	x1, 409000 <combiner_drain+0x44c>
  404a24:	91288021 	add	x1, x1, #0xa20
  404a28:	b9400000 	ldr	w0, [x0]
  404a2c:	f9002041 	str	x1, [x2, #64]
  404a30:	97fff6d4 	bl	402580 <strerror@plt>
  404a34:	aa0003e2 	mov	x2, x0
  404a38:	aa1803e1 	mov	x1, x24
  404a3c:	d0000020 	adrp	x0, 40a000 <__dso_handle+0x858>
  404a40:	9136a000 	add	x0, x0, #0xda8
  404a44:	97fff67f 	bl	402440 <lsx_fail_impl@plt>
  404a48:	52800020 	mov	w0, #0x1                   	// #1
  404a4c:	97fff7b5 	bl	402920 <exit@plt>
  404a50:	d0000020 	adrp	x0, 40a000 <__dso_handle+0x858>
  404a54:	9131a000 	add	x0, x0, #0xc68
  404a58:	94000622 	bl	4062e0 <usage>
  404a5c:	d0000020 	adrp	x0, 40a000 <__dso_handle+0x858>
  404a60:	91322000 	add	x0, x0, #0xc88
  404a64:	9400061f 	bl	4062e0 <usage>
  404a68:	d0000020 	adrp	x0, 40a000 <__dso_handle+0x858>
  404a6c:	91332000 	add	x0, x0, #0xcc8
  404a70:	9400061c 	bl	4062e0 <usage>
  404a74:	d0000020 	adrp	x0, 40a000 <__dso_handle+0x858>
  404a78:	9133e000 	add	x0, x0, #0xcf8
  404a7c:	94000619 	bl	4062e0 <usage>
  404a80:	97fff660 	bl	402400 <__stack_chk_fail@plt>
  404a84:	d0000020 	adrp	x0, 40a000 <__dso_handle+0x858>
  404a88:	91358000 	add	x0, x0, #0xd60
  404a8c:	94000615 	bl	4062e0 <usage>
  404a90:	b94083e0 	ldr	w0, [sp, #128]
  404a94:	b900c3ff 	str	wzr, [sp, #192]
  404a98:	7100041f 	cmp	w0, #0x1
  404a9c:	5400044d 	b.le	404b24 <main+0x20a4>
  404aa0:	b94083e0 	ldr	w0, [sp, #128]
  404aa4:	90000054 	adrp	x20, 40c000 <__dso_handle+0x2858>
  404aa8:	f94047e1 	ldr	x1, [sp, #136]
  404aac:	9115a294 	add	x20, x20, #0x568
  404ab0:	91298294 	add	x20, x20, #0xa60
  404ab4:	910d6397 	add	x23, x28, #0x358
  404ab8:	52800025 	mov	w5, #0x1                   	// #1
  404abc:	d0000036 	adrp	x22, 40a000 <__dso_handle+0x858>
  404ac0:	aa1403e2 	mov	x2, x20
  404ac4:	aa1703e6 	mov	x6, x23
  404ac8:	2a0503e4 	mov	w4, w5
  404acc:	911542d6 	add	x22, x22, #0x550
  404ad0:	d2800003 	mov	x3, #0x0                   	// #0
  404ad4:	52800015 	mov	w21, #0x0                   	// #0
  404ad8:	97fff61a 	bl	402340 <lsx_getopt_init@plt>
  404adc:	aa1703e0 	mov	x0, x23
  404ae0:	97fff62c 	bl	402390 <lsx_getopt@plt>
  404ae4:	2a0003e1 	mov	w1, w0
  404ae8:	7100001f 	cmp	w0, #0x0
  404aec:	540003ed 	b.le	404b68 <main+0x20e8>
  404af0:	7101583f 	cmp	w1, #0x56
  404af4:	54000200 	b.eq	404b34 <main+0x20b4>  // b.none
  404af8:	7101503f 	cmp	w1, #0x54
  404afc:	54000180 	b.eq	404b2c <main+0x20ac>  // b.none
  404b00:	aa1403e0 	mov	x0, x20
  404b04:	97fff67b 	bl	4024f0 <strchr@plt>
  404b08:	cb140000 	sub	x0, x0, x20
  404b0c:	11000400 	add	w0, w0, #0x1
  404b10:	b900c3e0 	str	w0, [sp, #192]
  404b14:	71002c1f 	cmp	w0, #0xb
  404b18:	54fffe29 	b.ls	404adc <main+0x205c>  // b.plast
  404b1c:	52800020 	mov	w0, #0x1                   	// #1
  404b20:	940005e0 	bl	4062a0 <soxi_usage>
  404b24:	52800000 	mov	w0, #0x0                   	// #0
  404b28:	940005de 	bl	4062a0 <soxi_usage>
  404b2c:	52800035 	mov	w21, #0x1                   	// #1
  404b30:	17ffffeb 	b	404adc <main+0x205c>
  404b34:	f9401ee0 	ldr	x0, [x23, #56]
  404b38:	b40007a0 	cbz	x0, 404c2c <main+0x21ac>
  404b3c:	9102f3e3 	add	x3, sp, #0xbc
  404b40:	910323e2 	add	x2, sp, #0xc8
  404b44:	aa1603e1 	mov	x1, x22
  404b48:	97fff6fe 	bl	402740 <__isoc99_sscanf@plt>
  404b4c:	7100041f 	cmp	w0, #0x1
  404b50:	54ffebe1 	b.ne	4048cc <main+0x1e4c>  // b.any
  404b54:	b940cbf8 	ldr	w24, [sp, #200]
  404b58:	97fff6ee 	bl	402710 <sox_get_globals@plt>
  404b5c:	37ffeb98 	tbnz	w24, #31, 4048cc <main+0x1e4c>
  404b60:	b9000018 	str	w24, [x0]
  404b64:	17ffffde 	b	404adc <main+0x205c>
  404b68:	b940c3e0 	ldr	w0, [sp, #192]
  404b6c:	340004a0 	cbz	w0, 404c00 <main+0x2180>
  404b70:	34000095 	cbz	w21, 404b80 <main+0x2100>
  404b74:	51001000 	sub	w0, w0, #0x4
  404b78:	7100081f 	cmp	w0, #0x2
  404b7c:	54000468 	b.hi	404c08 <main+0x2188>  // b.pmore
  404b80:	510006a0 	sub	w0, w21, #0x1
  404b84:	90000036 	adrp	x22, 408000 <display_file_info+0x14c>
  404b88:	910d6394 	add	x20, x28, #0x358
  404b8c:	911b92d6 	add	x22, x22, #0x6e4
  404b90:	1e620000 	scvtf	d0, w0
  404b94:	fd027b80 	str	d0, [x28, #1264]
  404b98:	1400000b 	b	404bc4 <main+0x2144>
  404b9c:	b9803282 	ldrsw	x2, [x20, #48]
  404ba0:	910303e1 	add	x1, sp, #0xc0
  404ba4:	aa1603e0 	mov	x0, x22
  404ba8:	f8627ae2 	ldr	x2, [x23, x2, lsl #3]
  404bac:	97fff6dd 	bl	402720 <sox_parse_playlist@plt>
  404bb0:	7100001f 	cmp	w0, #0x0
  404bb4:	1a930673 	cinc	w19, w19, ne  // ne = any
  404bb8:	b9403280 	ldr	w0, [x20, #48]
  404bbc:	11000400 	add	w0, w0, #0x1
  404bc0:	b9003280 	str	w0, [x20, #48]
  404bc4:	b9403280 	ldr	w0, [x20, #48]
  404bc8:	b94083e1 	ldr	w1, [sp, #128]
  404bcc:	6b00003f 	cmp	w1, w0
  404bd0:	5400038d 	b.le	404c40 <main+0x21c0>
  404bd4:	f94047f7 	ldr	x23, [sp, #136]
  404bd8:	f860dae0 	ldr	x0, [x23, w0, sxtw #3]
  404bdc:	97fff6fd 	bl	4027d0 <sox_is_playlist@plt>
  404be0:	35fffde0 	cbnz	w0, 404b9c <main+0x211c>
  404be4:	b9803281 	ldrsw	x1, [x20, #48]
  404be8:	910303e0 	add	x0, sp, #0xc0
  404bec:	f94047e2 	ldr	x2, [sp, #136]
  404bf0:	f8617841 	ldr	x1, [x2, x1, lsl #3]
  404bf4:	94000ebc 	bl	4086e4 <soxi1>
  404bf8:	0b000273 	add	w19, w19, w0
  404bfc:	17ffffef 	b	404bb8 <main+0x2138>
  404c00:	52800035 	mov	w21, #0x1                   	// #1
  404c04:	17ffffdf 	b	404b80 <main+0x2100>
  404c08:	900000e1 	adrp	x1, 420000 <fputs@GLIBC_2.17>
  404c0c:	d0000020 	adrp	x0, 40a000 <__dso_handle+0x858>
  404c10:	d28005c2 	mov	x2, #0x2e                  	// #46
  404c14:	52800015 	mov	w21, #0x0                   	// #0
  404c18:	f9425023 	ldr	x3, [x1, #1184]
  404c1c:	91306000 	add	x0, x0, #0xc18
  404c20:	d2800021 	mov	x1, #0x1                   	// #1
  404c24:	97fff74b 	bl	402950 <fwrite@plt>
  404c28:	17ffffd6 	b	404b80 <main+0x2100>
  404c2c:	97fff6b9 	bl	402710 <sox_get_globals@plt>
  404c30:	b9400001 	ldr	w1, [x0]
  404c34:	11000421 	add	w1, w1, #0x1
  404c38:	b9000001 	str	w1, [x0]
  404c3c:	17ffffa8 	b	404adc <main+0x205c>
  404c40:	b940c3e0 	ldr	w0, [sp, #192]
  404c44:	35000120 	cbnz	w0, 404c68 <main+0x21e8>
  404c48:	f9427794 	ldr	x20, [x28, #1256]
  404c4c:	f100069f 	cmp	x20, #0x1
  404c50:	54000089 	b.ls	404c60 <main+0x21e0>  // b.plast
  404c54:	fd427b80 	ldr	d0, [x28, #1264]
  404c58:	1e602018 	fcmpe	d0, #0.0
  404c5c:	540001ac 	b.gt	404c90 <main+0x2210>
  404c60:	2a1303e0 	mov	w0, w19
  404c64:	97fff72f 	bl	402920 <exit@plt>
  404c68:	34ffffd5 	cbz	w21, 404c60 <main+0x21e0>
  404c6c:	fd427b80 	ldr	d0, [x28, #1264]
  404c70:	1e602018 	fcmpe	d0, #0.0
  404c74:	54000224 	b.mi	404cb8 <main+0x2238>  // b.first
  404c78:	7100141f 	cmp	w0, #0x5
  404c7c:	54000180 	b.eq	404cac <main+0x222c>  // b.none
  404c80:	d0000020 	adrp	x0, 40a000 <__dso_handle+0x858>
  404c84:	91284000 	add	x0, x0, #0xa10
  404c88:	97fff76e 	bl	402a40 <printf@plt>
  404c8c:	17fffff5 	b	404c60 <main+0x21e0>
  404c90:	94000128 	bl	405130 <str_time>
  404c94:	aa0003e2 	mov	x2, x0
  404c98:	2a1403e1 	mov	w1, w20
  404c9c:	d0000020 	adrp	x0, 40a000 <__dso_handle+0x858>
  404ca0:	91312000 	add	x0, x0, #0xc48
  404ca4:	97fff767 	bl	402a40 <printf@plt>
  404ca8:	17ffffee 	b	404c60 <main+0x21e0>
  404cac:	94000121 	bl	405130 <str_time>
  404cb0:	97fff5ac 	bl	402360 <puts@plt>
  404cb4:	17ffffeb 	b	404c60 <main+0x21e0>
  404cb8:	d0000020 	adrp	x0, 40a000 <__dso_handle+0x858>
  404cbc:	9127c000 	add	x0, x0, #0x9f0
  404cc0:	97fff5a8 	bl	402360 <puts@plt>
  404cc4:	17ffffe7 	b	404c60 <main+0x21e0>

0000000000404cc8 <.annobin_lto.hot>:
  404cc8:	d503201f 	nop
  404ccc:	d503201f 	nop
  404cd0:	d503201f 	nop
  404cd4:	d503201f 	nop
  404cd8:	d503201f 	nop
  404cdc:	d503201f 	nop
  404ce0:	d503201f 	nop
  404ce4:	d503201f 	nop
  404ce8:	d503201f 	nop
  404cec:	d503201f 	nop
  404cf0:	d503201f 	nop
  404cf4:	d503201f 	nop
  404cf8:	d503201f 	nop
  404cfc:	d503201f 	nop

0000000000404d00 <_start>:
  404d00:	d503245f 	bti	c
  404d04:	d280001d 	mov	x29, #0x0                   	// #0
  404d08:	d280001e 	mov	x30, #0x0                   	// #0
  404d0c:	aa0003e5 	mov	x5, x0
  404d10:	f94003e1 	ldr	x1, [sp]
  404d14:	910023e2 	add	x2, sp, #0x8
  404d18:	910003e6 	mov	x6, sp
  404d1c:	90000000 	adrp	x0, 404000 <main+0x1580>
  404d20:	9134d000 	add	x0, x0, #0xd34
  404d24:	d2800003 	mov	x3, #0x0                   	// #0
  404d28:	d2800004 	mov	x4, #0x0                   	// #0
  404d2c:	97fff621 	bl	4025b0 <__libc_start_main@plt>
  404d30:	97fff6ec 	bl	4028e0 <abort@plt>

0000000000404d34 <__wrap_main>:
  404d34:	d503245f 	bti	c
  404d38:	17fff752 	b	402a80 <main>

0000000000404d3c <.annobin_lto>:
  404d3c:	d503201f 	nop

0000000000404d40 <_dl_relocate_static_pie>:
  404d40:	d503245f 	bti	c
  404d44:	d65f03c0 	ret

0000000000404d48 <call_weak_fn>:
  404d48:	f00000c0 	adrp	x0, 41f000 <__FRAME_END__+0x11414>
  404d4c:	f947f000 	ldr	x0, [x0, #4064]
  404d50:	b4000040 	cbz	x0, 404d58 <call_weak_fn+0x10>
  404d54:	17fff723 	b	4029e0 <__gmon_start__@plt>
  404d58:	d65f03c0 	ret
  404d5c:	d503201f 	nop

0000000000404d60 <deregister_tm_clones>:
  404d60:	900000e0 	adrp	x0, 420000 <fputs@GLIBC_2.17>
  404d64:	91124000 	add	x0, x0, #0x490
  404d68:	900000e1 	adrp	x1, 420000 <fputs@GLIBC_2.17>
  404d6c:	91124021 	add	x1, x1, #0x490
  404d70:	eb00003f 	cmp	x1, x0
  404d74:	540000c0 	b.eq	404d8c <deregister_tm_clones+0x2c>  // b.none
  404d78:	b0000021 	adrp	x1, 409000 <combiner_drain+0x44c>
  404d7c:	f943d821 	ldr	x1, [x1, #1968]
  404d80:	b4000061 	cbz	x1, 404d8c <deregister_tm_clones+0x2c>
  404d84:	aa0103f0 	mov	x16, x1
  404d88:	d61f0200 	br	x16
  404d8c:	d65f03c0 	ret

0000000000404d90 <register_tm_clones>:
  404d90:	900000e0 	adrp	x0, 420000 <fputs@GLIBC_2.17>
  404d94:	91124000 	add	x0, x0, #0x490
  404d98:	900000e1 	adrp	x1, 420000 <fputs@GLIBC_2.17>
  404d9c:	91124021 	add	x1, x1, #0x490
  404da0:	cb000021 	sub	x1, x1, x0
  404da4:	d37ffc22 	lsr	x2, x1, #63
  404da8:	8b810c41 	add	x1, x2, x1, asr #3
  404dac:	9341fc21 	asr	x1, x1, #1
  404db0:	b40000c1 	cbz	x1, 404dc8 <register_tm_clones+0x38>
  404db4:	b0000022 	adrp	x2, 409000 <combiner_drain+0x44c>
  404db8:	f943dc42 	ldr	x2, [x2, #1976]
  404dbc:	b4000062 	cbz	x2, 404dc8 <register_tm_clones+0x38>
  404dc0:	aa0203f0 	mov	x16, x2
  404dc4:	d61f0200 	br	x16
  404dc8:	d65f03c0 	ret
  404dcc:	d503201f 	nop

0000000000404dd0 <__do_global_dtors_aux>:
  404dd0:	d503233f 	paciasp
  404dd4:	a9be7bfd 	stp	x29, x30, [sp, #-32]!
  404dd8:	910003fd 	mov	x29, sp
  404ddc:	f9000bf3 	str	x19, [sp, #16]
  404de0:	900000f3 	adrp	x19, 420000 <fputs@GLIBC_2.17>
  404de4:	3952a260 	ldrb	w0, [x19, #1192]
  404de8:	35000080 	cbnz	w0, 404df8 <__do_global_dtors_aux+0x28>
  404dec:	97ffffdd 	bl	404d60 <deregister_tm_clones>
  404df0:	52800020 	mov	w0, #0x1                   	// #1
  404df4:	3912a260 	strb	w0, [x19, #1192]
  404df8:	f9400bf3 	ldr	x19, [sp, #16]
  404dfc:	a8c27bfd 	ldp	x29, x30, [sp], #32
  404e00:	d50323bf 	autiasp
  404e04:	d65f03c0 	ret
  404e08:	d503201f 	nop
  404e0c:	d503201f 	nop

0000000000404e10 <frame_dummy>:
  404e10:	d503245f 	bti	c
  404e14:	17ffffdf 	b	404d90 <register_tm_clones>
  404e18:	d503201f 	nop
  404e1c:	d503201f 	nop

0000000000404e20 <balance_input>:
  404e20:	fd402841 	ldr	d1, [x2, #80]
  404e24:	1e6e1000 	fmov	d0, #1.000000000000000000e+00
  404e28:	1e602020 	fcmp	d1, d0
  404e2c:	54000340 	b.eq	404e94 <balance_input+0x74>  // b.none
  404e30:	f9409c43 	ldr	x3, [x2, #312]
  404e34:	b9401064 	ldr	w4, [x3, #16]
  404e38:	9b017c84 	mul	x4, x4, x1
  404e3c:	b40002c4 	cbz	x4, 404e94 <balance_input+0x74>
  404e40:	b26b6be1 	mov	x1, #0xffffffe00000        	// #281474974613504
  404e44:	d2a00203 	mov	x3, #0x100000              	// #1048576
  404e48:	f2e83be1 	movk	x1, #0x41df, lsl #48
  404e4c:	f2f83c03 	movk	x3, #0xc1e0, lsl #48
  404e50:	9e670022 	fmov	d2, x1
  404e54:	9e670063 	fmov	d3, x3
  404e58:	d2800001 	mov	x1, #0x0                   	// #0
  404e5c:	1e6c1004 	fmov	d4, #5.000000000000000000e-01
  404e60:	b8617803 	ldr	w3, [x0, x1, lsl #2]
  404e64:	1e620060 	scvtf	d0, w3
  404e68:	1e610800 	fmul	d0, d0, d1
  404e6c:	1e602018 	fcmpe	d0, #0.0
  404e70:	54000144 	b.mi	404e98 <balance_input+0x78>  // b.first
  404e74:	1e622010 	fcmpe	d0, d2
  404e78:	540001aa 	b.ge	404eac <balance_input+0x8c>  // b.tcont
  404e7c:	1e642800 	fadd	d0, d0, d4
  404e80:	1e780003 	fcvtzs	w3, d0
  404e84:	b8217803 	str	w3, [x0, x1, lsl #2]
  404e88:	91000421 	add	x1, x1, #0x1
  404e8c:	eb01009f 	cmp	x4, x1
  404e90:	54fffe81 	b.ne	404e60 <balance_input+0x40>  // b.any
  404e94:	d65f03c0 	ret
  404e98:	1e632010 	fcmpe	d0, d3
  404e9c:	54000129 	b.ls	404ec0 <balance_input+0xa0>  // b.plast
  404ea0:	1e643800 	fsub	d0, d0, d4
  404ea4:	1e780003 	fcvtzs	w3, d0
  404ea8:	17fffff7 	b	404e84 <balance_input+0x64>
  404eac:	f940a045 	ldr	x5, [x2, #320]
  404eb0:	12b00003 	mov	w3, #0x7fffffff            	// #2147483647
  404eb4:	910004a5 	add	x5, x5, #0x1
  404eb8:	f900a045 	str	x5, [x2, #320]
  404ebc:	17fffff2 	b	404e84 <balance_input+0x64>
  404ec0:	f940a045 	ldr	x5, [x2, #320]
  404ec4:	52b00003 	mov	w3, #0x80000000            	// #-2147483648
  404ec8:	910004a5 	add	x5, x5, #0x1
  404ecc:	f900a045 	str	x5, [x2, #320]
  404ed0:	17ffffed 	b	404e84 <balance_input+0x64>

0000000000404ed4 <ostart>:
  404ed4:	f9401001 	ldr	x1, [x0, #32]
  404ed8:	b4000201 	cbz	x1, 404f18 <ostart+0x44>
  404edc:	b9401402 	ldr	w2, [x0, #20]
  404ee0:	b9403400 	ldr	w0, [x0, #52]
  404ee4:	6b00005f 	cmp	w2, w0
  404ee8:	54000189 	b.ls	404f18 <ostart+0x44>  // b.plast
  404eec:	52b00003 	mov	w3, #0x80000000            	// #-2147483648
  404ef0:	d2a00402 	mov	x2, #0x200000              	// #2097152
  404ef4:	1ac02460 	lsr	w0, w3, w0
  404ef8:	f2e7c002 	movk	x2, #0x3e00, lsl #48
  404efc:	9e670042 	fmov	d2, x2
  404f00:	1e6e1001 	fmov	d1, #1.000000000000000000e+00
  404f04:	1e620003 	scvtf	d3, w0
  404f08:	fd400020 	ldr	d0, [x1]
  404f0c:	1f428461 	fmsub	d1, d3, d2, d1
  404f10:	1e610800 	fmul	d0, d0, d1
  404f14:	fd000020 	str	d0, [x1]
  404f18:	52800000 	mov	w0, #0x0                   	// #0
  404f1c:	d65f03c0 	ret

0000000000404f20 <strcmp_p>:
  404f20:	f9400000 	ldr	x0, [x0]
  404f24:	f9400021 	ldr	x1, [x1]
  404f28:	17fff646 	b	402840 <strcmp@plt>
  404f2c:	d503201f 	nop

0000000000404f30 <is_pseudo_effect>:
  404f30:	a9be7bfd 	stp	x29, x30, [sp, #-32]!
  404f34:	910003fd 	mov	x29, sp
  404f38:	a90153f3 	stp	x19, x20, [sp, #16]
  404f3c:	52800014 	mov	w20, #0x0                   	// #0
  404f40:	b4000260 	cbz	x0, 404f8c <is_pseudo_effect+0x5c>
  404f44:	aa0003f3 	mov	x19, x0
  404f48:	52800034 	mov	w20, #0x1                   	// #1
  404f4c:	b0000020 	adrp	x0, 409000 <combiner_drain+0x44c>
  404f50:	aa1303e1 	mov	x1, x19
  404f54:	911f0000 	add	x0, x0, #0x7c0
  404f58:	97fff63a 	bl	402840 <strcmp@plt>
  404f5c:	34000180 	cbz	w0, 404f8c <is_pseudo_effect+0x5c>
  404f60:	b0000020 	adrp	x0, 409000 <combiner_drain+0x44c>
  404f64:	aa1303e1 	mov	x1, x19
  404f68:	911f2000 	add	x0, x0, #0x7c8
  404f6c:	97fff635 	bl	402840 <strcmp@plt>
  404f70:	340000e0 	cbz	w0, 404f8c <is_pseudo_effect+0x5c>
  404f74:	39400261 	ldrb	w1, [x19]
  404f78:	52800740 	mov	w0, #0x3a                  	// #58
  404f7c:	6b010000 	subs	w0, w0, w1
  404f80:	540000e0 	b.eq	404f9c <is_pseudo_effect+0x6c>  // b.none
  404f84:	7100001f 	cmp	w0, #0x0
  404f88:	1a9f17f4 	cset	w20, eq  // eq = none
  404f8c:	2a1403e0 	mov	w0, w20
  404f90:	a94153f3 	ldp	x19, x20, [sp, #16]
  404f94:	a8c27bfd 	ldp	x29, x30, [sp], #32
  404f98:	d65f03c0 	ret
  404f9c:	39400660 	ldrb	w0, [x19, #1]
  404fa0:	4b0003e0 	neg	w0, w0
  404fa4:	7100001f 	cmp	w0, #0x0
  404fa8:	1a9f17f4 	cset	w20, eq  // eq = none
  404fac:	17fffff8 	b	404f8c <is_pseudo_effect+0x5c>

0000000000404fb0 <output_message>:
  404fb0:	a9af7bfd 	stp	x29, x30, [sp, #-272]!
  404fb4:	90000044 	adrp	x4, 40c000 <__dso_handle+0x2858>
  404fb8:	9115a084 	add	x4, x4, #0x568
  404fbc:	910003fd 	mov	x29, sp
  404fc0:	a90153f3 	stp	x19, x20, [sp, #16]
  404fc4:	9101a3f4 	add	x20, sp, #0x68
  404fc8:	2a0003f3 	mov	w19, w0
  404fcc:	a9025bf5 	stp	x21, x22, [sp, #32]
  404fd0:	aa0203f6 	mov	x22, x2
  404fd4:	aa0303f5 	mov	x21, x3
  404fd8:	f9001bf7 	str	x23, [sp, #48]
  404fdc:	aa0103f7 	mov	x23, x1
  404fe0:	4c40a080 	ld1	{v0.16b, v1.16b}, [x4]
  404fe4:	f00000c4 	adrp	x4, 41f000 <__FRAME_END__+0x11414>
  404fe8:	91370084 	add	x4, x4, #0xdc0
  404fec:	f9400080 	ldr	x0, [x4]
  404ff0:	f90087e0 	str	x0, [sp, #264]
  404ff4:	d2800000 	mov	x0, #0x0                   	// #0
  404ff8:	4c00a280 	st1	{v0.16b, v1.16b}, [x20]
  404ffc:	97fff5c5 	bl	402710 <sox_get_globals@plt>
  405000:	b9400000 	ldr	w0, [x0]
  405004:	6b13001f 	cmp	w0, w19
  405008:	54000182 	b.cs	405038 <output_message+0x88>  // b.hs, b.nlast
  40500c:	d00000c0 	adrp	x0, 41f000 <__FRAME_END__+0x11414>
  405010:	f94087e2 	ldr	x2, [sp, #264]
  405014:	f946e001 	ldr	x1, [x0, #3520]
  405018:	eb010042 	subs	x2, x2, x1
  40501c:	d2800001 	mov	x1, #0x0                   	// #0
  405020:	54000421 	b.ne	4050a4 <output_message+0xf4>  // b.any
  405024:	a94153f3 	ldp	x19, x20, [sp, #16]
  405028:	a9425bf5 	ldp	x21, x22, [sp, #32]
  40502c:	f9401bf7 	ldr	x23, [sp, #48]
  405030:	a8d17bfd 	ldp	x29, x30, [sp], #272
  405034:	d65f03c0 	ret
  405038:	aa1703e2 	mov	x2, x23
  40503c:	910223e0 	add	x0, sp, #0x88
  405040:	51000673 	sub	w19, w19, #0x1
  405044:	d2801001 	mov	x1, #0x80                  	// #128
  405048:	97fff646 	bl	402960 <sox_basename@plt>
  40504c:	f00000d7 	adrp	x23, 420000 <fputs@GLIBC_2.17>
  405050:	71000e7f 	cmp	w19, #0x3
  405054:	52800060 	mov	w0, #0x3                   	// #3
  405058:	1a809273 	csel	w19, w19, w0, ls  // ls = plast
  40505c:	f00000c0 	adrp	x0, 420000 <fputs@GLIBC_2.17>
  405060:	910223e4 	add	x4, sp, #0x88
  405064:	90000021 	adrp	x1, 409000 <combiner_drain+0x44c>
  405068:	f9425802 	ldr	x2, [x0, #1200]
  40506c:	911f4021 	add	x1, x1, #0x7d0
  405070:	f94252e0 	ldr	x0, [x23, #1184]
  405074:	f8737a83 	ldr	x3, [x20, x19, lsl #3]
  405078:	97fff4d6 	bl	4023d0 <fprintf@plt>
  40507c:	f94252e0 	ldr	x0, [x23, #1184]
  405080:	aa1603e1 	mov	x1, x22
  405084:	ad4006a0 	ldp	q0, q1, [x21]
  405088:	910103e2 	add	x2, sp, #0x40
  40508c:	ad0207e0 	stp	q0, q1, [sp, #64]
  405090:	97fff670 	bl	402a50 <vfprintf@plt>
  405094:	52800140 	mov	w0, #0xa                   	// #10
  405098:	f94252e1 	ldr	x1, [x23, #1184]
  40509c:	97fff595 	bl	4026f0 <fputc@plt>
  4050a0:	17ffffdb 	b	40500c <output_message+0x5c>
  4050a4:	97fff4d7 	bl	402400 <__stack_chk_fail@plt>
  4050a8:	d503201f 	nop
  4050ac:	d503201f 	nop

00000000004050b0 <size_and_bitrate>:
  4050b0:	a9bd7bfd 	stp	x29, x30, [sp, #-48]!
  4050b4:	910003fd 	mov	x29, sp
  4050b8:	a90153f3 	stp	x19, x20, [sp, #16]
  4050bc:	aa0003f3 	mov	x19, x0
  4050c0:	aa0103f4 	mov	x20, x1
  4050c4:	fd0013e8 	str	d8, [sp, #32]
  4050c8:	97fff50e 	bl	402500 <lsx_filelength@plt>
  4050cc:	9e670008 	fmov	d8, x0
  4050d0:	f9400e60 	ldr	x0, [x19, #24]
  4050d4:	b50000e0 	cbnz	x0, 4050f0 <size_and_bitrate+0x40>
  4050d8:	5e61d908 	scvtf	d8, d8
  4050dc:	1e604100 	fmov	d0, d8
  4050e0:	fd4013e8 	ldr	d8, [sp, #32]
  4050e4:	a94153f3 	ldp	x19, x20, [sp, #16]
  4050e8:	a8c37bfd 	ldp	x29, x30, [sp], #48
  4050ec:	17fff5a9 	b	402790 <lsx_sigfigs3@plt>
  4050f0:	b9401261 	ldr	w1, [x19, #16]
  4050f4:	5e61d908 	scvtf	d8, d8
  4050f8:	34ffff21 	cbz	w1, 4050dc <size_and_bitrate+0x2c>
  4050fc:	fd400661 	ldr	d1, [x19, #8]
  405100:	1e602028 	fcmp	d1, #0.0
  405104:	54fffec0 	b.eq	4050dc <size_and_bitrate+0x2c>  // b.none
  405108:	2a0103e1 	mov	w1, w1
  40510c:	1e641002 	fmov	d2, #8.000000000000000000e+00
  405110:	1e620902 	fmul	d2, d8, d2
  405114:	9ac10800 	udiv	x0, x0, x1
  405118:	9e630000 	ucvtf	d0, x0
  40511c:	1e611800 	fdiv	d0, d0, d1
  405120:	1e601840 	fdiv	d0, d2, d0
  405124:	97fff59b 	bl	402790 <lsx_sigfigs3@plt>
  405128:	f9000280 	str	x0, [x20]
  40512c:	17ffffec 	b	4050dc <size_and_bitrate+0x2c>

0000000000405130 <str_time>:
  405130:	d2e809c0 	mov	x0, #0x404e000000000000    	// #4633641066610819072
  405134:	9e670001 	fmov	d1, x0
  405138:	a9bd7bfd 	stp	x29, x30, [sp, #-48]!
  40513c:	52911122 	mov	w2, #0x8889                	// #34953
  405140:	72b11102 	movk	w2, #0x8888, lsl #16
  405144:	1e611801 	fdiv	d1, d0, d1
  405148:	910003fd 	mov	x29, sp
  40514c:	90000021 	adrp	x1, 409000 <combiner_drain+0x44c>
  405150:	a90153f3 	stp	x19, x20, [sp, #16]
  405154:	f00000d3 	adrp	x19, 420000 <fputs@GLIBC_2.17>
  405158:	9112c273 	add	x19, x19, #0x4b0
  40515c:	91004274 	add	x20, x19, #0x10
  405160:	f90013f5 	str	x21, [sp, #32]
  405164:	52800655 	mov	w21, #0x32                  	// #50
  405168:	911f8021 	add	x1, x1, #0x7e0
  40516c:	b9400a60 	ldr	w0, [x19, #8]
  405170:	11000400 	add	w0, w0, #0x1
  405174:	12000c00 	and	w0, w0, #0xf
  405178:	b9000a60 	str	w0, [x19, #8]
  40517c:	9b355000 	smaddl	x0, w0, w21, x20
  405180:	1e780024 	fcvtzs	w4, d1
  405184:	531c6c83 	lsl	w3, w4, #4
  405188:	9b227c82 	smull	x2, w4, w2
  40518c:	4b040063 	sub	w3, w3, w4
  405190:	531e7463 	lsl	w3, w3, #2
  405194:	d360fc42 	lsr	x2, x2, #32
  405198:	0b020082 	add	w2, w4, w2
  40519c:	1e620061 	scvtf	d1, w3
  4051a0:	13057c42 	asr	w2, w2, #5
  4051a4:	4b847c42 	sub	w2, w2, w4, asr #31
  4051a8:	1e613800 	fsub	d0, d0, d1
  4051ac:	4b021043 	sub	w3, w2, w2, lsl #4
  4051b0:	0b030883 	add	w3, w4, w3, lsl #2
  4051b4:	97fff507 	bl	4025d0 <sprintf@plt>
  4051b8:	b9400a60 	ldr	w0, [x19, #8]
  4051bc:	9b355000 	smaddl	x0, w0, w21, x20
  4051c0:	a94153f3 	ldp	x19, x20, [sp, #16]
  4051c4:	f94013f5 	ldr	x21, [sp, #32]
  4051c8:	a8c37bfd 	ldp	x29, x30, [sp], #48
  4051cc:	d65f03c0 	ret

00000000004051d0 <device_name>:
  4051d0:	a9be7bfd 	stp	x29, x30, [sp, #-32]!
  4051d4:	90000021 	adrp	x1, 409000 <combiner_drain+0x44c>
  4051d8:	910003fd 	mov	x29, sp
  4051dc:	a90153f3 	stp	x19, x20, [sp, #16]
  4051e0:	aa0003f4 	mov	x20, x0
  4051e4:	91200020 	add	x0, x1, #0x800
  4051e8:	97fff5c2 	bl	4028f0 <getenv@plt>
  4051ec:	b4000774 	cbz	x20, 4052d8 <device_name+0x108>
  4051f0:	aa0003f3 	mov	x19, x0
  4051f4:	90000021 	adrp	x1, 409000 <combiner_drain+0x44c>
  4051f8:	aa1403e0 	mov	x0, x20
  4051fc:	91204021 	add	x1, x1, #0x810
  405200:	97fff590 	bl	402840 <strcmp@plt>
  405204:	35000120 	cbnz	w0, 405228 <device_name+0x58>
  405208:	f100027f 	cmp	x19, #0x0
  40520c:	90000020 	adrp	x0, 409000 <combiner_drain+0x44c>
  405210:	911fe000 	add	x0, x0, #0x7f8
  405214:	9a930013 	csel	x19, x0, x19, eq  // eq = none
  405218:	aa1303e0 	mov	x0, x19
  40521c:	a94153f3 	ldp	x19, x20, [sp, #16]
  405220:	a8c27bfd 	ldp	x29, x30, [sp], #32
  405224:	d65f03c0 	ret
  405228:	90000021 	adrp	x1, 409000 <combiner_drain+0x44c>
  40522c:	aa1403e0 	mov	x0, x20
  405230:	91206021 	add	x1, x1, #0x818
  405234:	97fff583 	bl	402840 <strcmp@plt>
  405238:	34fffe80 	cbz	w0, 405208 <device_name+0x38>
  40523c:	90000021 	adrp	x1, 409000 <combiner_drain+0x44c>
  405240:	aa1403e0 	mov	x0, x20
  405244:	91208021 	add	x1, x1, #0x820
  405248:	97fff57e 	bl	402840 <strcmp@plt>
  40524c:	34fffde0 	cbz	w0, 405208 <device_name+0x38>
  405250:	90000021 	adrp	x1, 409000 <combiner_drain+0x44c>
  405254:	aa1403e0 	mov	x0, x20
  405258:	9120a021 	add	x1, x1, #0x828
  40525c:	97fff579 	bl	402840 <strcmp@plt>
  405260:	34fffd40 	cbz	w0, 405208 <device_name+0x38>
  405264:	39400280 	ldrb	w0, [x20]
  405268:	7101841f 	cmp	w0, #0x61
  40526c:	540000e1 	b.ne	405288 <device_name+0xb8>  // b.any
  405270:	39400680 	ldrb	w0, [x20, #1]
  405274:	7101bc1f 	cmp	w0, #0x6f
  405278:	54000081 	b.ne	405288 <device_name+0xb8>  // b.any
  40527c:	39400a80 	ldrb	w0, [x20, #2]
  405280:	34fffc40 	cbz	w0, 405208 <device_name+0x38>
  405284:	d503201f 	nop
  405288:	90000021 	adrp	x1, 409000 <combiner_drain+0x44c>
  40528c:	aa1403e0 	mov	x0, x20
  405290:	9120c021 	add	x1, x1, #0x830
  405294:	97fff56b 	bl	402840 <strcmp@plt>
  405298:	34fffb80 	cbz	w0, 405208 <device_name+0x38>
  40529c:	90000021 	adrp	x1, 409000 <combiner_drain+0x44c>
  4052a0:	aa1403e0 	mov	x0, x20
  4052a4:	9120e021 	add	x1, x1, #0x838
  4052a8:	97fff566 	bl	402840 <strcmp@plt>
  4052ac:	34fffae0 	cbz	w0, 405208 <device_name+0x38>
  4052b0:	90000021 	adrp	x1, 409000 <combiner_drain+0x44c>
  4052b4:	aa1403e0 	mov	x0, x20
  4052b8:	91212021 	add	x1, x1, #0x848
  4052bc:	97fff561 	bl	402840 <strcmp@plt>
  4052c0:	34fffa40 	cbz	w0, 405208 <device_name+0x38>
  4052c4:	90000021 	adrp	x1, 409000 <combiner_drain+0x44c>
  4052c8:	aa1403e0 	mov	x0, x20
  4052cc:	91216021 	add	x1, x1, #0x858
  4052d0:	97fff55c 	bl	402840 <strcmp@plt>
  4052d4:	34fff9a0 	cbz	w0, 405208 <device_name+0x38>
  4052d8:	d2800013 	mov	x19, #0x0                   	// #0
  4052dc:	17ffffcf 	b	405218 <device_name+0x48>

00000000004052e0 <free_eff_chain>:
  4052e0:	a9bb7bfd 	stp	x29, x30, [sp, #-80]!
  4052e4:	f00000c0 	adrp	x0, 420000 <fputs@GLIBC_2.17>
  4052e8:	9112c000 	add	x0, x0, #0x4b0
  4052ec:	910003fd 	mov	x29, sp
  4052f0:	a90363f7 	stp	x23, x24, [sp, #48]
  4052f4:	f9419818 	ldr	x24, [x0, #816]
  4052f8:	f90023f9 	str	x25, [sp, #64]
  4052fc:	f9419c19 	ldr	x25, [x0, #824]
  405300:	a9025bf5 	stp	x21, x22, [sp, #32]
  405304:	d37df315 	lsl	x21, x24, #3
  405308:	f941a000 	ldr	x0, [x0, #832]
  40530c:	8b150337 	add	x23, x25, x21
  405310:	f8787b21 	ldr	x1, [x25, x24, lsl #3]
  405314:	8b150015 	add	x21, x0, x21
  405318:	f8787800 	ldr	x0, [x0, x24, lsl #3]
  40531c:	b4000461 	cbz	x1, 4053a8 <free_eff_chain+0xc8>
  405320:	d2800016 	mov	x22, #0x0                   	// #0
  405324:	a90153f3 	stp	x19, x20, [sp, #16]
  405328:	d37bead4 	lsl	x20, x22, #5
  40532c:	f8746800 	ldr	x0, [x0, x20]
  405330:	97fff464 	bl	4024c0 <free@plt>
  405334:	f94002a0 	ldr	x0, [x21]
  405338:	8b140001 	add	x1, x0, x20
  40533c:	f834681f 	str	xzr, [x0, x20]
  405340:	b9400820 	ldr	w0, [x1, #8]
  405344:	7100001f 	cmp	w0, #0x0
  405348:	f9400820 	ldr	x0, [x1, #16]
  40534c:	540001ad 	b.le	405380 <free_eff_chain+0xa0>
  405350:	d2800013 	mov	x19, #0x0                   	// #0
  405354:	d503201f 	nop
  405358:	f8737800 	ldr	x0, [x0, x19, lsl #3]
  40535c:	97fff459 	bl	4024c0 <free@plt>
  405360:	f94002a1 	ldr	x1, [x21]
  405364:	8b140021 	add	x1, x1, x20
  405368:	f9400820 	ldr	x0, [x1, #16]
  40536c:	b9400822 	ldr	w2, [x1, #8]
  405370:	f833781f 	str	xzr, [x0, x19, lsl #3]
  405374:	91000673 	add	x19, x19, #0x1
  405378:	6b13005f 	cmp	w2, w19
  40537c:	54fffeec 	b.gt	405358 <free_eff_chain+0x78>
  405380:	b900083f 	str	wzr, [x1, #8]
  405384:	910006d6 	add	x22, x22, #0x1
  405388:	97fff44e 	bl	4024c0 <free@plt>
  40538c:	f94002a0 	ldr	x0, [x21]
  405390:	8b140014 	add	x20, x0, x20
  405394:	a9017e9f 	stp	xzr, xzr, [x20, #16]
  405398:	f94002e1 	ldr	x1, [x23]
  40539c:	eb16003f 	cmp	x1, x22
  4053a0:	54fffc48 	b.hi	405328 <free_eff_chain+0x48>  // b.pmore
  4053a4:	a94153f3 	ldp	x19, x20, [sp, #16]
  4053a8:	f8387b3f 	str	xzr, [x25, x24, lsl #3]
  4053ac:	a9425bf5 	ldp	x21, x22, [sp, #32]
  4053b0:	a94363f7 	ldp	x23, x24, [sp, #48]
  4053b4:	f94023f9 	ldr	x25, [sp, #64]
  4053b8:	a8c57bfd 	ldp	x29, x30, [sp], #80
  4053bc:	17fff441 	b	4024c0 <free@plt>

00000000004053c0 <combiner_stop>:
  4053c0:	a9bd7bfd 	stp	x29, x30, [sp, #-48]!
  4053c4:	f00000c1 	adrp	x1, 420000 <fputs@GLIBC_2.17>
  4053c8:	910003fd 	mov	x29, sp
  4053cc:	b943c821 	ldr	w1, [x1, #968]
  4053d0:	a90153f3 	stp	x19, x20, [sp, #16]
  4053d4:	f9406014 	ldr	x20, [x0, #192]
  4053d8:	7100043f 	cmp	w1, #0x1
  4053dc:	54000209 	b.ls	40541c <combiner_stop+0x5c>  // b.plast
  4053e0:	f00000c0 	adrp	x0, 420000 <fputs@GLIBC_2.17>
  4053e4:	f90013f5 	str	x21, [sp, #32]
  4053e8:	f943fc15 	ldr	x21, [x0, #2040]
  4053ec:	b4000135 	cbz	x21, 405410 <combiner_stop+0x50>
  4053f0:	d2800013 	mov	x19, #0x0                   	// #0
  4053f4:	d503201f 	nop
  4053f8:	f9400280 	ldr	x0, [x20]
  4053fc:	f8737800 	ldr	x0, [x0, x19, lsl #3]
  405400:	91000673 	add	x19, x19, #0x1
  405404:	97fff42f 	bl	4024c0 <free@plt>
  405408:	eb15027f 	cmp	x19, x21
  40540c:	54ffff61 	b.ne	4053f8 <combiner_stop+0x38>  // b.any
  405410:	f9400280 	ldr	x0, [x20]
  405414:	97fff42b 	bl	4024c0 <free@plt>
  405418:	f94013f5 	ldr	x21, [sp, #32]
  40541c:	f9400680 	ldr	x0, [x20, #8]
  405420:	97fff428 	bl	4024c0 <free@plt>
  405424:	52800000 	mov	w0, #0x0                   	// #0
  405428:	a94153f3 	ldp	x19, x20, [sp, #16]
  40542c:	a8c37bfd 	ldp	x29, x30, [sp], #48
  405430:	d65f03c0 	ret

0000000000405434 <delete_eff_chains>:
  405434:	a9be7bfd 	stp	x29, x30, [sp, #-32]!
  405438:	910003fd 	mov	x29, sp
  40543c:	a90153f3 	stp	x19, x20, [sp, #16]
  405440:	f00000d4 	adrp	x20, 420000 <fputs@GLIBC_2.17>
  405444:	9112c294 	add	x20, x20, #0x4b0
  405448:	f9419a93 	ldr	x19, [x20, #816]
  40544c:	b40000b3 	cbz	x19, 405460 <delete_eff_chains+0x2c>
  405450:	d1000673 	sub	x19, x19, #0x1
  405454:	f9019a93 	str	x19, [x20, #816]
  405458:	97ffffa2 	bl	4052e0 <free_eff_chain>
  40545c:	b5ffffb3 	cbnz	x19, 405450 <delete_eff_chains+0x1c>
  405460:	f941a280 	ldr	x0, [x20, #832]
  405464:	97fff417 	bl	4024c0 <free@plt>
  405468:	f941aa80 	ldr	x0, [x20, #848]
  40546c:	97fff415 	bl	4024c0 <free@plt>
  405470:	f9419e80 	ldr	x0, [x20, #824]
  405474:	97fff413 	bl	4024c0 <free@plt>
  405478:	f9019e9f 	str	xzr, [x20, #824]
  40547c:	f901a29f 	str	xzr, [x20, #832]
  405480:	f901aa9f 	str	xzr, [x20, #848]
  405484:	a94153f3 	ldp	x19, x20, [sp, #16]
  405488:	a8c27bfd 	ldp	x29, x30, [sp], #32
  40548c:	d65f03c0 	ret

0000000000405490 <strtoargv>:
  405490:	a9bb7bfd 	stp	x29, x30, [sp, #-80]!
  405494:	910003fd 	mov	x29, sp
  405498:	a90153f3 	stp	x19, x20, [sp, #16]
  40549c:	aa0003f3 	mov	x19, x0
  4054a0:	a9025bf5 	stp	x21, x22, [sp, #32]
  4054a4:	52800016 	mov	w22, #0x0                   	// #0
  4054a8:	a90363f7 	stp	x23, x24, [sp, #48]
  4054ac:	d2800018 	mov	x24, #0x0                   	// #0
  4054b0:	52800017 	mov	w23, #0x0                   	// #0
  4054b4:	f90023f9 	str	x25, [sp, #64]
  4054b8:	aa0103f9 	mov	x25, x1
  4054bc:	b900003f 	str	wzr, [x1]
  4054c0:	39400274 	ldrb	w20, [x19]
  4054c4:	34000154 	cbz	w20, 4054ec <strtoargv+0x5c>
  4054c8:	97fff49a 	bl	402730 <__ctype_b_loc@plt>
  4054cc:	aa0003f5 	mov	x21, x0
  4054d0:	f9400003 	ldr	x3, [x0]
  4054d4:	14000002 	b	4054dc <strtoargv+0x4c>
  4054d8:	38401e74 	ldrb	w20, [x19, #1]!
  4054dc:	d37f1e82 	ubfiz	x2, x20, #1, #8
  4054e0:	78626862 	ldrh	w2, [x3, x2]
  4054e4:	376fffa2 	tbnz	w2, #13, 4054d8 <strtoargv+0x48>
  4054e8:	35000114 	cbnz	w20, 405508 <strtoargv+0x78>
  4054ec:	aa1803e0 	mov	x0, x24
  4054f0:	a94153f3 	ldp	x19, x20, [sp, #16]
  4054f4:	a9425bf5 	ldp	x21, x22, [sp, #32]
  4054f8:	a94363f7 	ldp	x23, x24, [sp, #48]
  4054fc:	f94023f9 	ldr	x25, [sp, #64]
  405500:	a8c57bfd 	ldp	x29, x30, [sp], #80
  405504:	d65f03c0 	ret
  405508:	b9400321 	ldr	w1, [x25]
  40550c:	aa1803e0 	mov	x0, x24
  405510:	d2800102 	mov	x2, #0x8                   	// #8
  405514:	11000421 	add	w1, w1, #0x1
  405518:	93407c21 	sxtw	x1, w1
  40551c:	97fff381 	bl	402320 <lsx_realloc_array@plt>
  405520:	b9400323 	ldr	w3, [x25]
  405524:	aa0003f8 	mov	x24, x0
  405528:	aa1303e1 	mov	x1, x19
  40552c:	52800002 	mov	w2, #0x0                   	// #0
  405530:	11000460 	add	w0, w3, #0x1
  405534:	b9000320 	str	w0, [x25]
  405538:	f823db13 	str	x19, [x24, w3, sxtw #3]
  40553c:	39400260 	ldrb	w0, [x19]
  405540:	35000220 	cbnz	w0, 405584 <strtoargv+0xf4>
  405544:	1400001d 	b	4055b8 <strtoargv+0x128>
  405548:	f94002a3 	ldr	x3, [x21]
  40554c:	d37f1c02 	ubfiz	x2, x0, #1, #8
  405550:	78626862 	ldrh	w2, [x3, x2]
  405554:	376805e2 	tbnz	w2, #13, 405610 <strtoargv+0x180>
  405558:	7100881f 	cmp	w0, #0x22
  40555c:	54000360 	b.eq	4055c8 <strtoargv+0x138>  // b.none
  405560:	71009c1f 	cmp	w0, #0x27
  405564:	54000200 	b.eq	4055a4 <strtoargv+0x114>  // b.none
  405568:	7101701f 	cmp	w0, #0x5c
  40556c:	54000360 	b.eq	4055d8 <strtoargv+0x148>  // b.none
  405570:	38001420 	strb	w0, [x1], #1
  405574:	39400660 	ldrb	w0, [x19, #1]
  405578:	91000673 	add	x19, x19, #0x1
  40557c:	340001e0 	cbz	w0, 4055b8 <strtoargv+0x128>
  405580:	52800002 	mov	w2, #0x0                   	// #0
  405584:	2a0202e3 	orr	w3, w23, w2
  405588:	2a160064 	orr	w4, w3, w22
  40558c:	34fffde4 	cbz	w4, 405548 <strtoargv+0xb8>
  405590:	34000183 	cbz	w3, 4055c0 <strtoargv+0x130>
  405594:	2a0202c2 	orr	w2, w22, w2
  405598:	35fffec2 	cbnz	w2, 405570 <strtoargv+0xe0>
  40559c:	71009c1f 	cmp	w0, #0x27
  4055a0:	54fffe41 	b.ne	405568 <strtoargv+0xd8>  // b.any
  4055a4:	39400660 	ldrb	w0, [x19, #1]
  4055a8:	520002f7 	eor	w23, w23, #0x1
  4055ac:	91000673 	add	x19, x19, #0x1
  4055b0:	52800016 	mov	w22, #0x0                   	// #0
  4055b4:	35fffe60 	cbnz	w0, 405580 <strtoargv+0xf0>
  4055b8:	3900003f 	strb	wzr, [x1]
  4055bc:	17ffffc1 	b	4054c0 <strtoargv+0x30>
  4055c0:	7100881f 	cmp	w0, #0x22
  4055c4:	54fffd21 	b.ne	405568 <strtoargv+0xd8>  // b.any
  4055c8:	39400660 	ldrb	w0, [x19, #1]
  4055cc:	520002d6 	eor	w22, w22, #0x1
  4055d0:	52800017 	mov	w23, #0x0                   	// #0
  4055d4:	17ffffe9 	b	405578 <strtoargv+0xe8>
  4055d8:	39400663 	ldrb	w3, [x19, #1]
  4055dc:	520002e2 	eor	w2, w23, #0x1
  4055e0:	7100007f 	cmp	w3, #0x0
  4055e4:	1a9f07e4 	cset	w4, ne  // ne = any
  4055e8:	6a04005f 	tst	w2, w4
  4055ec:	54fffc20 	b.eq	405570 <strtoargv+0xe0>  // b.none
  4055f0:	7100887f 	cmp	w3, #0x22
  4055f4:	54000040 	b.eq	4055fc <strtoargv+0x16c>  // b.none
  4055f8:	35fffbd6 	cbnz	w22, 405570 <strtoargv+0xe0>
  4055fc:	91000673 	add	x19, x19, #0x1
  405600:	2a0303e0 	mov	w0, w3
  405604:	52800022 	mov	w2, #0x1                   	// #1
  405608:	52800017 	mov	w23, #0x0                   	// #0
  40560c:	17ffffde 	b	405584 <strtoargv+0xf4>
  405610:	91000673 	add	x19, x19, #0x1
  405614:	52800017 	mov	w23, #0x0                   	// #0
  405618:	52800016 	mov	w22, #0x0                   	// #0
  40561c:	3900003f 	strb	wzr, [x1]
  405620:	17ffffa8 	b	4054c0 <strtoargv+0x30>

0000000000405624 <add_eff_chain>:
  405624:	a9bd7bfd 	stp	x29, x30, [sp, #-48]!
  405628:	d2800102 	mov	x2, #0x8                   	// #8
  40562c:	910003fd 	mov	x29, sp
  405630:	a90153f3 	stp	x19, x20, [sp, #16]
  405634:	f00000d3 	adrp	x19, 420000 <fputs@GLIBC_2.17>
  405638:	9112c273 	add	x19, x19, #0x4b0
  40563c:	f90013f5 	str	x21, [sp, #32]
  405640:	f941a260 	ldr	x0, [x19, #832]
  405644:	f9419a61 	ldr	x1, [x19, #816]
  405648:	91000421 	add	x1, x1, #0x1
  40564c:	97fff335 	bl	402320 <lsx_realloc_array@plt>
  405650:	f9419a75 	ldr	x21, [x19, #816]
  405654:	aa0003f4 	mov	x20, x0
  405658:	d2800400 	mov	x0, #0x20                  	// #32
  40565c:	f901a274 	str	x20, [x19, #832]
  405660:	97fff464 	bl	4027f0 <lsx_malloc@plt>
  405664:	f8357a80 	str	x0, [x20, x21, lsl #3]
  405668:	d2800102 	mov	x2, #0x8                   	// #8
  40566c:	f941aa60 	ldr	x0, [x19, #848]
  405670:	f9419a61 	ldr	x1, [x19, #816]
  405674:	91000421 	add	x1, x1, #0x1
  405678:	97fff32a 	bl	402320 <lsx_realloc_array@plt>
  40567c:	f9419a64 	ldr	x4, [x19, #816]
  405680:	aa0003e3 	mov	x3, x0
  405684:	f9419e60 	ldr	x0, [x19, #824]
  405688:	91000481 	add	x1, x4, #0x1
  40568c:	f824787f 	str	xzr, [x3, x4, lsl #3]
  405690:	d2800102 	mov	x2, #0x8                   	// #8
  405694:	f901aa63 	str	x3, [x19, #848]
  405698:	97fff322 	bl	402320 <lsx_realloc_array@plt>
  40569c:	f9019e60 	str	x0, [x19, #824]
  4056a0:	f9419a61 	ldr	x1, [x19, #816]
  4056a4:	a94153f3 	ldp	x19, x20, [sp, #16]
  4056a8:	f821781f 	str	xzr, [x0, x1, lsl #3]
  4056ac:	f94013f5 	ldr	x21, [sp, #32]
  4056b0:	a8c37bfd 	ldp	x29, x30, [sp], #48
  4056b4:	d65f03c0 	ret
  4056b8:	d503201f 	nop
  4056bc:	d503201f 	nop

00000000004056c0 <parse_effects>:
  4056c0:	a9b97bfd 	stp	x29, x30, [sp, #-112]!
  4056c4:	910003fd 	mov	x29, sp
  4056c8:	a90153f3 	stp	x19, x20, [sp, #16]
  4056cc:	f00000d4 	adrp	x20, 420000 <fputs@GLIBC_2.17>
  4056d0:	9112c294 	add	x20, x20, #0x4b0
  4056d4:	a90363f7 	stp	x23, x24, [sp, #48]
  4056d8:	2a0003f8 	mov	w24, w0
  4056dc:	b9438a80 	ldr	w0, [x20, #904]
  4056e0:	6b18001f 	cmp	w0, w24
  4056e4:	54000f0a 	b.ge	4058c4 <parse_effects+0x204>  // b.tcont
  4056e8:	a9046bf9 	stp	x25, x26, [sp, #64]
  4056ec:	90000039 	adrp	x25, 409000 <combiner_drain+0x44c>
  4056f0:	911f0320 	add	x0, x25, #0x7c0
  4056f4:	a9025bf5 	stp	x21, x22, [sp, #32]
  4056f8:	aa0103f6 	mov	x22, x1
  4056fc:	a90573fb 	stp	x27, x28, [sp, #80]
  405700:	9000003b 	adrp	x27, 409000 <combiner_drain+0x44c>
  405704:	f90033e0 	str	x0, [sp, #96]
  405708:	911f2360 	add	x0, x27, #0x7c8
  40570c:	f90037e0 	str	x0, [sp, #104]
  405710:	1400000a 	b	405738 <parse_effects+0x78>
  405714:	39400720 	ldrb	w0, [x25, #1]
  405718:	350002a0 	cbnz	w0, 40576c <parse_effects+0xac>
  40571c:	f9419e80 	ldr	x0, [x20, #824]
  405720:	f87b6800 	ldr	x0, [x0, x27]
  405724:	b5000f20 	cbnz	x0, 405908 <parse_effects+0x248>
  405728:	110006b5 	add	w21, w21, #0x1
  40572c:	b9038a95 	str	w21, [x20, #904]
  405730:	6b15031f 	cmp	w24, w21
  405734:	54000c2d 	b.le	4058b8 <parse_effects+0x1f8>
  405738:	f9419a93 	ldr	x19, [x20, #816]
  40573c:	f9419e81 	ldr	x1, [x20, #824]
  405740:	f941aa80 	ldr	x0, [x20, #848]
  405744:	d37df27b 	lsl	x27, x19, #3
  405748:	f8737837 	ldr	x23, [x1, x19, lsl #3]
  40574c:	f8737815 	ldr	x21, [x0, x19, lsl #3]
  405750:	eb1702bf 	cmp	x21, x23
  405754:	54000e80 	b.eq	405924 <parse_effects+0x264>  // b.none
  405758:	b9438a95 	ldr	w21, [x20, #904]
  40575c:	f875dad9 	ldr	x25, [x22, w21, sxtw #3]
  405760:	39400320 	ldrb	w0, [x25]
  405764:	7100e81f 	cmp	w0, #0x3a
  405768:	54fffd60 	b.eq	405714 <parse_effects+0x54>  // b.none
  40576c:	f94033e1 	ldr	x1, [sp, #96]
  405770:	aa1903e0 	mov	x0, x25
  405774:	97fff433 	bl	402840 <strcmp@plt>
  405778:	35000ae0 	cbnz	w0, 4058d4 <parse_effects+0x214>
  40577c:	f9419e80 	ldr	x0, [x20, #824]
  405780:	f87b6800 	ldr	x0, [x0, x27]
  405784:	b5000b80 	cbnz	x0, 4058f4 <parse_effects+0x234>
  405788:	52800020 	mov	w0, #0x1                   	// #1
  40578c:	2a0003fa 	mov	w26, w0
  405790:	b903a280 	str	w0, [x20, #928]
  405794:	f941a281 	ldr	x1, [x20, #832]
  405798:	910d629c 	add	x28, x20, #0x358
  40579c:	d37beaf7 	lsl	x23, x23, #5
  4057a0:	aa1903e0 	mov	x0, x25
  4057a4:	d2800013 	mov	x19, #0x0                   	// #0
  4057a8:	f87b683b 	ldr	x27, [x1, x27]
  4057ac:	97fff3ad 	bl	402660 <lsx_strdup@plt>
  4057b0:	b9403395 	ldr	w21, [x28, #48]
  4057b4:	52800004 	mov	w4, #0x0                   	// #0
  4057b8:	f8376b60 	str	x0, [x27, x23]
  4057bc:	110006b5 	add	w21, w21, #0x1
  4057c0:	b9003395 	str	w21, [x28, #48]
  4057c4:	6b1802bf 	cmp	w21, w24
  4057c8:	540001a1 	b.ne	4057fc <parse_effects+0x13c>  // b.any
  4057cc:	14000028 	b	40586c <parse_effects+0x1ac>
  4057d0:	b9803380 	ldrsw	x0, [x28, #48]
  4057d4:	f9400ab9 	ldr	x25, [x21, #16]
  4057d8:	8b130000 	add	x0, x0, x19
  4057dc:	f8607ac0 	ldr	x0, [x22, x0, lsl #3]
  4057e0:	97fff3a0 	bl	402660 <lsx_strdup@plt>
  4057e4:	b9403395 	ldr	w21, [x28, #48]
  4057e8:	f8337b20 	str	x0, [x25, x19, lsl #3]
  4057ec:	91000673 	add	x19, x19, #0x1
  4057f0:	4b150300 	sub	w0, w24, w21
  4057f4:	eb20c27f 	cmp	x19, w0, sxtw
  4057f8:	54000382 	b.cs	405868 <parse_effects+0x1a8>  // b.hs, b.nlast
  4057fc:	8b35c260 	add	x0, x19, w21, sxtw
  405800:	f8607ad9 	ldr	x25, [x22, x0, lsl #3]
  405804:	aa1903e0 	mov	x0, x25
  405808:	97fff34e 	bl	402540 <sox_find_effect@plt>
  40580c:	aa0003e2 	mov	x2, x0
  405810:	aa1903e0 	mov	x0, x25
  405814:	f9419a99 	ldr	x25, [x20, #816]
  405818:	f941a29b 	ldr	x27, [x20, #832]
  40581c:	b5000262 	cbnz	x2, 405868 <parse_effects+0x1a8>
  405820:	97fffdc4 	bl	404f30 <is_pseudo_effect>
  405824:	35000220 	cbnz	w0, 405868 <parse_effects+0x1a8>
  405828:	f8797b75 	ldr	x21, [x27, x25, lsl #3]
  40582c:	8b1702b5 	add	x21, x21, x23
  405830:	f9400ea1 	ldr	x1, [x21, #24]
  405834:	eb13003f 	cmp	x1, x19
  405838:	54fffcc8 	b.hi	4057d0 <parse_effects+0x110>  // b.pmore
  40583c:	f9400aa0 	ldr	x0, [x21, #16]
  405840:	91002021 	add	x1, x1, #0x8
  405844:	f9000ea1 	str	x1, [x21, #24]
  405848:	d2800102 	mov	x2, #0x8                   	// #8
  40584c:	97fff2b5 	bl	402320 <lsx_realloc_array@plt>
  405850:	f9000aa0 	str	x0, [x21, #16]
  405854:	f9419a81 	ldr	x1, [x20, #816]
  405858:	f941a280 	ldr	x0, [x20, #832]
  40585c:	f8617815 	ldr	x21, [x0, x1, lsl #3]
  405860:	8b1702b5 	add	x21, x21, x23
  405864:	17ffffdb 	b	4057d0 <parse_effects+0x110>
  405868:	2a1303e4 	mov	w4, w19
  40586c:	f9419a80 	ldr	x0, [x20, #816]
  405870:	0b1302b5 	add	w21, w21, w19
  405874:	f941a281 	ldr	x1, [x20, #832]
  405878:	f9419e83 	ldr	x3, [x20, #824]
  40587c:	f8607822 	ldr	x2, [x1, x0, lsl #3]
  405880:	f8607861 	ldr	x1, [x3, x0, lsl #3]
  405884:	8b170042 	add	x2, x2, x23
  405888:	91000421 	add	x1, x1, #0x1
  40588c:	b9000844 	str	w4, [x2, #8]
  405890:	b9038a95 	str	w21, [x20, #904]
  405894:	f8207861 	str	x1, [x3, x0, lsl #3]
  405898:	34fff4da 	cbz	w26, 405730 <parse_effects+0x70>
  40589c:	91000400 	add	x0, x0, #0x1
  4058a0:	f9019a80 	str	x0, [x20, #816]
  4058a4:	97ffff60 	bl	405624 <add_eff_chain>
  4058a8:	b9438a95 	ldr	w21, [x20, #904]
  4058ac:	6b15031f 	cmp	w24, w21
  4058b0:	54fff44c 	b.gt	405738 <parse_effects+0x78>
  4058b4:	d503201f 	nop
  4058b8:	a9425bf5 	ldp	x21, x22, [sp, #32]
  4058bc:	a9446bf9 	ldp	x25, x26, [sp, #64]
  4058c0:	a94573fb 	ldp	x27, x28, [sp, #80]
  4058c4:	a94153f3 	ldp	x19, x20, [sp, #16]
  4058c8:	a94363f7 	ldp	x23, x24, [sp, #48]
  4058cc:	a8c77bfd 	ldp	x29, x30, [sp], #112
  4058d0:	d65f03c0 	ret
  4058d4:	f94037e1 	ldr	x1, [sp, #104]
  4058d8:	aa1903e0 	mov	x0, x25
  4058dc:	97fff3d9 	bl	402840 <strcmp@plt>
  4058e0:	350001e0 	cbnz	w0, 40591c <parse_effects+0x25c>
  4058e4:	f9419e80 	ldr	x0, [x20, #824]
  4058e8:	5280003a 	mov	w26, #0x1                   	// #1
  4058ec:	f87b6800 	ldr	x0, [x0, x27]
  4058f0:	b4fff520 	cbz	x0, 405794 <parse_effects+0xd4>
  4058f4:	91000673 	add	x19, x19, #0x1
  4058f8:	f9019a93 	str	x19, [x20, #816]
  4058fc:	97ffff4a 	bl	405624 <add_eff_chain>
  405900:	b9438a95 	ldr	w21, [x20, #904]
  405904:	17ffff8b 	b	405730 <parse_effects+0x70>
  405908:	91000673 	add	x19, x19, #0x1
  40590c:	f9019a93 	str	x19, [x20, #816]
  405910:	97ffff45 	bl	405624 <add_eff_chain>
  405914:	b9438a95 	ldr	w21, [x20, #904]
  405918:	17ffff84 	b	405728 <parse_effects+0x68>
  40591c:	5280001a 	mov	w26, #0x0                   	// #0
  405920:	17ffff9d 	b	405794 <parse_effects+0xd4>
  405924:	f941a29a 	ldr	x26, [x20, #832]
  405928:	910022a1 	add	x1, x21, #0x8
  40592c:	f8337801 	str	x1, [x0, x19, lsl #3]
  405930:	d2800402 	mov	x2, #0x20                  	// #32
  405934:	f8737b40 	ldr	x0, [x26, x19, lsl #3]
  405938:	97fff27a 	bl	402320 <lsx_realloc_array@plt>
  40593c:	f8337b40 	str	x0, [x26, x19, lsl #3]
  405940:	f9419a93 	ldr	x19, [x20, #816]
  405944:	f941aa80 	ldr	x0, [x20, #848]
  405948:	d37df27b 	lsl	x27, x19, #3
  40594c:	8b1b0002 	add	x2, x0, x27
  405950:	f8737800 	ldr	x0, [x0, x19, lsl #3]
  405954:	eb0002bf 	cmp	x21, x0
  405958:	54fff002 	b.cs	405758 <parse_effects+0x98>  // b.hs, b.nlast
  40595c:	f941a280 	ldr	x0, [x20, #832]
  405960:	f8737800 	ldr	x0, [x0, x19, lsl #3]
  405964:	8b151400 	add	x0, x0, x21, lsl #5
  405968:	a9017c1f 	stp	xzr, xzr, [x0, #16]
  40596c:	910006b5 	add	x21, x21, #0x1
  405970:	91008000 	add	x0, x0, #0x20
  405974:	f9400041 	ldr	x1, [x2]
  405978:	eb15003f 	cmp	x1, x21
  40597c:	54ffff68 	b.hi	405968 <parse_effects+0x2a8>  // b.pmore
  405980:	17ffff76 	b	405758 <parse_effects+0x98>

0000000000405984 <display_supported_effects>:
  405984:	a9bd7bfd 	stp	x29, x30, [sp, #-48]!
  405988:	90000020 	adrp	x0, 409000 <combiner_drain+0x44c>
  40598c:	91220000 	add	x0, x0, #0x880
  405990:	910003fd 	mov	x29, sp
  405994:	a90153f3 	stp	x19, x20, [sp, #16]
  405998:	90000034 	adrp	x20, 409000 <combiner_drain+0x44c>
  40599c:	9121c294 	add	x20, x20, #0x870
  4059a0:	a9025bf5 	stp	x21, x22, [sp, #32]
  4059a4:	90000035 	adrp	x21, 409000 <combiner_drain+0x44c>
  4059a8:	912242b5 	add	x21, x21, #0x890
  4059ac:	d2800013 	mov	x19, #0x0                   	// #0
  4059b0:	90000036 	adrp	x22, 409000 <combiner_drain+0x44c>
  4059b4:	97fff423 	bl	402a40 <printf@plt>
  4059b8:	97fff39e 	bl	402830 <sox_get_effect_fns@plt>
  4059bc:	f8736800 	ldr	x0, [x0, x19]
  4059c0:	91002273 	add	x19, x19, #0x8
  4059c4:	b40002e0 	cbz	x0, 405a20 <display_supported_effects+0x9c>
  4059c8:	d63f0000 	blr	x0
  4059cc:	aa0003e3 	mov	x3, x0
  4059d0:	b4ffff40 	cbz	x0, 4059b8 <display_supported_effects+0x34>
  4059d4:	f9400061 	ldr	x1, [x3]
  4059d8:	aa1503e0 	mov	x0, x21
  4059dc:	aa1403e2 	mov	x2, x20
  4059e0:	b4fffec1 	cbz	x1, 4059b8 <display_supported_effects+0x34>
  4059e4:	b9401063 	ldr	w3, [x3, #16]
  4059e8:	37300123 	tbnz	w3, #6, 405a0c <display_supported_effects+0x88>
  4059ec:	b0000022 	adrp	x2, 40a000 <__dso_handle+0x858>
  4059f0:	90000025 	adrp	x5, 409000 <combiner_drain+0x44c>
  4059f4:	910fa044 	add	x4, x2, #0x3e8
  4059f8:	9121e0a5 	add	x5, x5, #0x878
  4059fc:	9121a2c2 	add	x2, x22, #0x868
  405a00:	37480063 	tbnz	w3, #9, 405a0c <display_supported_effects+0x88>
  405a04:	f276007f 	tst	x3, #0x400
  405a08:	9a8410a2 	csel	x2, x5, x4, ne  // ne = any
  405a0c:	97fff40d 	bl	402a40 <printf@plt>
  405a10:	97fff388 	bl	402830 <sox_get_effect_fns@plt>
  405a14:	f8736800 	ldr	x0, [x0, x19]
  405a18:	91002273 	add	x19, x19, #0x8
  405a1c:	b5fffd60 	cbnz	x0, 4059c8 <display_supported_effects+0x44>
  405a20:	a94153f3 	ldp	x19, x20, [sp, #16]
  405a24:	90000020 	adrp	x0, 409000 <combiner_drain+0x44c>
  405a28:	a9425bf5 	ldp	x21, x22, [sp, #32]
  405a2c:	91226000 	add	x0, x0, #0x898
  405a30:	a8c37bfd 	ldp	x29, x30, [sp], #48
  405a34:	17fff24b 	b	402360 <puts@plt>
  405a38:	d503201f 	nop
  405a3c:	d503201f 	nop

0000000000405a40 <display_supported_formats>:
  405a40:	a9bc7bfd 	stp	x29, x30, [sp, #-64]!
  405a44:	910003fd 	mov	x29, sp
  405a48:	a90153f3 	stp	x19, x20, [sp, #16]
  405a4c:	d2800014 	mov	x20, #0x0                   	// #0
  405a50:	d2800013 	mov	x19, #0x0                   	// #0
  405a54:	a9025bf5 	stp	x21, x22, [sp, #32]
  405a58:	f9001bf7 	str	x23, [sp, #48]
  405a5c:	97fff389 	bl	402880 <sox_format_init@plt>
  405a60:	97fff254 	bl	4023b0 <sox_get_format_fns@plt>
  405a64:	8b140000 	add	x0, x0, x20
  405a68:	f9400400 	ldr	x0, [x0, #8]
  405a6c:	b40001e0 	cbz	x0, 405aa8 <display_supported_formats+0x68>
  405a70:	d63f0000 	blr	x0
  405a74:	f9400801 	ldr	x1, [x0, #16]
  405a78:	f9400020 	ldr	x0, [x1]
  405a7c:	b40000c0 	cbz	x0, 405a94 <display_supported_formats+0x54>
  405a80:	cb130c21 	sub	x1, x1, x19, lsl #3
  405a84:	d503201f 	nop
  405a88:	91000673 	add	x19, x19, #0x1
  405a8c:	f8737820 	ldr	x0, [x1, x19, lsl #3]
  405a90:	b5ffffc0 	cbnz	x0, 405a88 <display_supported_formats+0x48>
  405a94:	91004294 	add	x20, x20, #0x10
  405a98:	97fff246 	bl	4023b0 <sox_get_format_fns@plt>
  405a9c:	8b140000 	add	x0, x0, x20
  405aa0:	f9400400 	ldr	x0, [x0, #8]
  405aa4:	b5fffe60 	cbnz	x0, 405a70 <display_supported_formats+0x30>
  405aa8:	d37df260 	lsl	x0, x19, #3
  405aac:	97fff351 	bl	4027f0 <lsx_malloc@plt>
  405ab0:	90000021 	adrp	x1, 409000 <combiner_drain+0x44c>
  405ab4:	aa0003f5 	mov	x21, x0
  405ab8:	91238020 	add	x0, x1, #0x8e0
  405abc:	d2800017 	mov	x23, #0x0                   	// #0
  405ac0:	97fff3e0 	bl	402a40 <printf@plt>
  405ac4:	d2800016 	mov	x22, #0x0                   	// #0
  405ac8:	97fff23a 	bl	4023b0 <sox_get_format_fns@plt>
  405acc:	8b170000 	add	x0, x0, x23
  405ad0:	f9400400 	ldr	x0, [x0, #8]
  405ad4:	b4000120 	cbz	x0, 405af8 <display_supported_formats+0xb8>
  405ad8:	d63f0000 	blr	x0
  405adc:	b9401801 	ldr	w1, [x0, #24]
  405ae0:	36080921 	tbz	w1, #1, 405c04 <display_supported_formats+0x1c4>
  405ae4:	910042f7 	add	x23, x23, #0x10
  405ae8:	97fff232 	bl	4023b0 <sox_get_format_fns@plt>
  405aec:	8b170000 	add	x0, x0, x23
  405af0:	f9400400 	ldr	x0, [x0, #8]
  405af4:	b5ffff20 	cbnz	x0, 405ad8 <display_supported_formats+0x98>
  405af8:	f0fffff4 	adrp	x20, 404000 <main+0x1580>
  405afc:	913c8294 	add	x20, x20, #0xf20
  405b00:	aa1403e3 	mov	x3, x20
  405b04:	aa1603e1 	mov	x1, x22
  405b08:	aa1503e0 	mov	x0, x21
  405b0c:	d2800102 	mov	x2, #0x8                   	// #8
  405b10:	97fff284 	bl	402520 <qsort@plt>
  405b14:	b4000176 	cbz	x22, 405b40 <display_supported_formats+0x100>
  405b18:	b0000037 	adrp	x23, 40a000 <__dso_handle+0x858>
  405b1c:	9139c2f7 	add	x23, x23, #0xe70
  405b20:	d2800013 	mov	x19, #0x0                   	// #0
  405b24:	d503201f 	nop
  405b28:	f8737aa1 	ldr	x1, [x21, x19, lsl #3]
  405b2c:	aa1703e0 	mov	x0, x23
  405b30:	91000673 	add	x19, x19, #0x1
  405b34:	97fff3c3 	bl	402a40 <printf@plt>
  405b38:	eb1302df 	cmp	x22, x19
  405b3c:	54ffff61 	b.ne	405b28 <display_supported_formats+0xe8>  // b.any
  405b40:	f00000c1 	adrp	x1, 420000 <fputs@GLIBC_2.17>
  405b44:	52800140 	mov	w0, #0xa                   	// #10
  405b48:	d2800016 	mov	x22, #0x0                   	// #0
  405b4c:	d10022b7 	sub	x23, x21, #0x8
  405b50:	f9424c21 	ldr	x1, [x1, #1176]
  405b54:	d2800013 	mov	x19, #0x0                   	// #0
  405b58:	97fff232 	bl	402420 <putc@plt>
  405b5c:	90000020 	adrp	x0, 409000 <combiner_drain+0x44c>
  405b60:	9123e000 	add	x0, x0, #0x8f8
  405b64:	97fff3b7 	bl	402a40 <printf@plt>
  405b68:	97fff212 	bl	4023b0 <sox_get_format_fns@plt>
  405b6c:	8b160000 	add	x0, x0, x22
  405b70:	f9400400 	ldr	x0, [x0, #8]
  405b74:	b4000160 	cbz	x0, 405ba0 <display_supported_formats+0x160>
  405b78:	d63f0000 	blr	x0
  405b7c:	f9400c01 	ldr	x1, [x0, #24]
  405b80:	927f0421 	and	x1, x1, #0x6
  405b84:	f100083f 	cmp	x1, #0x2
  405b88:	54000580 	b.eq	405c38 <display_supported_formats+0x1f8>  // b.none
  405b8c:	910042d6 	add	x22, x22, #0x10
  405b90:	97fff208 	bl	4023b0 <sox_get_format_fns@plt>
  405b94:	8b160000 	add	x0, x0, x22
  405b98:	f9400400 	ldr	x0, [x0, #8]
  405b9c:	b5fffee0 	cbnz	x0, 405b78 <display_supported_formats+0x138>
  405ba0:	aa1403e3 	mov	x3, x20
  405ba4:	aa1303e1 	mov	x1, x19
  405ba8:	aa1503e0 	mov	x0, x21
  405bac:	d2800102 	mov	x2, #0x8                   	// #8
  405bb0:	97fff25c 	bl	402520 <qsort@plt>
  405bb4:	b4000173 	cbz	x19, 405be0 <display_supported_formats+0x1a0>
  405bb8:	b0000037 	adrp	x23, 40a000 <__dso_handle+0x858>
  405bbc:	9139c2f7 	add	x23, x23, #0xe70
  405bc0:	d2800014 	mov	x20, #0x0                   	// #0
  405bc4:	d503201f 	nop
  405bc8:	f8747aa1 	ldr	x1, [x21, x20, lsl #3]
  405bcc:	aa1703e0 	mov	x0, x23
  405bd0:	91000694 	add	x20, x20, #0x1
  405bd4:	97fff39b 	bl	402a40 <printf@plt>
  405bd8:	eb14027f 	cmp	x19, x20
  405bdc:	54ffff61 	b.ne	405bc8 <display_supported_formats+0x188>  // b.any
  405be0:	b0000020 	adrp	x0, 40a000 <__dso_handle+0x858>
  405be4:	9128e000 	add	x0, x0, #0xa38
  405be8:	97fff1de 	bl	402360 <puts@plt>
  405bec:	aa1503e0 	mov	x0, x21
  405bf0:	a94153f3 	ldp	x19, x20, [sp, #16]
  405bf4:	a9425bf5 	ldp	x21, x22, [sp, #32]
  405bf8:	f9401bf7 	ldr	x23, [sp, #48]
  405bfc:	a8c47bfd 	ldp	x29, x30, [sp], #64
  405c00:	17fff230 	b	4024c0 <free@plt>
  405c04:	f9400814 	ldr	x20, [x0, #16]
  405c08:	f9400293 	ldr	x19, [x20]
  405c0c:	b5000093 	cbnz	x19, 405c1c <display_supported_formats+0x1dc>
  405c10:	17ffffb5 	b	405ae4 <display_supported_formats+0xa4>
  405c14:	f8408e93 	ldr	x19, [x20, #8]!
  405c18:	b4fff673 	cbz	x19, 405ae4 <display_supported_formats+0xa4>
  405c1c:	aa1303e0 	mov	x0, x19
  405c20:	528005e1 	mov	w1, #0x2f                  	// #47
  405c24:	97fff233 	bl	4024f0 <strchr@plt>
  405c28:	b5ffff60 	cbnz	x0, 405c14 <display_supported_formats+0x1d4>
  405c2c:	f8367ab3 	str	x19, [x21, x22, lsl #3]
  405c30:	910006d6 	add	x22, x22, #0x1
  405c34:	17fffff8 	b	405c14 <display_supported_formats+0x1d4>
  405c38:	f9400801 	ldr	x1, [x0, #16]
  405c3c:	f9400020 	ldr	x0, [x1]
  405c40:	b4fffa60 	cbz	x0, 405b8c <display_supported_formats+0x14c>
  405c44:	cb130c21 	sub	x1, x1, x19, lsl #3
  405c48:	91000673 	add	x19, x19, #0x1
  405c4c:	f8337ae0 	str	x0, [x23, x19, lsl #3]
  405c50:	f8737820 	ldr	x0, [x1, x19, lsl #3]
  405c54:	b5ffffa0 	cbnz	x0, 405c48 <display_supported_formats+0x208>
  405c58:	910042d6 	add	x22, x22, #0x10
  405c5c:	17ffffcd 	b	405b90 <display_supported_formats+0x150>

0000000000405c60 <usage_format1>:
  405c60:	a9ba7bfd 	stp	x29, x30, [sp, #-96]!
  405c64:	90000021 	adrp	x1, 409000 <combiner_drain+0x44c>
  405c68:	910003fd 	mov	x29, sp
  405c6c:	a9046bf9 	stp	x25, x26, [sp, #64]
  405c70:	aa0003f9 	mov	x25, x0
  405c74:	9124a020 	add	x0, x1, #0x928
  405c78:	a90153f3 	stp	x19, x20, [sp, #16]
  405c7c:	f9400b21 	ldr	x1, [x25, #16]
  405c80:	f9400021 	ldr	x1, [x1]
  405c84:	97fff36f 	bl	402a40 <printf@plt>
  405c88:	f9400721 	ldr	x1, [x25, #8]
  405c8c:	90000020 	adrp	x0, 409000 <combiner_drain+0x44c>
  405c90:	9124e000 	add	x0, x0, #0x938
  405c94:	97fff36b 	bl	402a40 <printf@plt>
  405c98:	f9400b20 	ldr	x0, [x25, #16]
  405c9c:	f9400400 	ldr	x0, [x0, #8]
  405ca0:	b4000240 	cbz	x0, 405ce8 <usage_format1+0x88>
  405ca4:	90000020 	adrp	x0, 409000 <combiner_drain+0x44c>
  405ca8:	91254000 	add	x0, x0, #0x950
  405cac:	97fff365 	bl	402a40 <printf@plt>
  405cb0:	b0000034 	adrp	x20, 40a000 <__dso_handle+0x858>
  405cb4:	f9400b20 	ldr	x0, [x25, #16]
  405cb8:	9139c294 	add	x20, x20, #0xe70
  405cbc:	91002013 	add	x19, x0, #0x8
  405cc0:	f9400401 	ldr	x1, [x0, #8]
  405cc4:	b40000a1 	cbz	x1, 405cd8 <usage_format1+0x78>
  405cc8:	aa1403e0 	mov	x0, x20
  405ccc:	97fff35d 	bl	402a40 <printf@plt>
  405cd0:	f8408e61 	ldr	x1, [x19, #8]!
  405cd4:	b5ffffa1 	cbnz	x1, 405cc8 <usage_format1+0x68>
  405cd8:	f00000c1 	adrp	x1, 420000 <fputs@GLIBC_2.17>
  405cdc:	52800140 	mov	w0, #0xa                   	// #10
  405ce0:	f9424c21 	ldr	x1, [x1, #1176]
  405ce4:	97fff1cf 	bl	402420 <putc@plt>
  405ce8:	b9401b20 	ldr	w0, [x25, #24]
  405cec:	7218081f 	tst	w0, #0x700
  405cf0:	54000b01 	b.ne	405e50 <usage_format1+0x1f0>  // b.any
  405cf4:	f9403333 	ldr	x19, [x25, #96]
  405cf8:	b4000273 	cbz	x19, 405d44 <usage_format1+0xe4>
  405cfc:	90000020 	adrp	x0, 409000 <combiner_drain+0x44c>
  405d00:	91264000 	add	x0, x0, #0x990
  405d04:	97fff34f 	bl	402a40 <printf@plt>
  405d08:	90000034 	adrp	x20, 409000 <combiner_drain+0x44c>
  405d0c:	fd400260 	ldr	d0, [x19]
  405d10:	9126c294 	add	x20, x20, #0x9b0
  405d14:	1e602008 	fcmp	d0, #0.0
  405d18:	540000e0 	b.eq	405d34 <usage_format1+0xd4>  // b.none
  405d1c:	d503201f 	nop
  405d20:	aa1403e0 	mov	x0, x20
  405d24:	97fff347 	bl	402a40 <printf@plt>
  405d28:	fc408e60 	ldr	d0, [x19, #8]!
  405d2c:	1e602008 	fcmp	d0, #0.0
  405d30:	54ffff81 	b.ne	405d20 <usage_format1+0xc0>  // b.any
  405d34:	f00000c1 	adrp	x1, 420000 <fputs@GLIBC_2.17>
  405d38:	52800140 	mov	w0, #0xa                   	// #10
  405d3c:	f9424c21 	ldr	x1, [x1, #1176]
  405d40:	97fff1b8 	bl	402420 <putc@plt>
  405d44:	f9401320 	ldr	x0, [x25, #32]
  405d48:	90000021 	adrp	x1, 409000 <combiner_drain+0x44c>
  405d4c:	91282021 	add	x1, x1, #0xa08
  405d50:	b4000a80 	cbz	x0, 405ea0 <usage_format1+0x240>
  405d54:	90000020 	adrp	x0, 409000 <combiner_drain+0x44c>
  405d58:	9126e000 	add	x0, x0, #0x9b8
  405d5c:	97fff339 	bl	402a40 <printf@plt>
  405d60:	f9401f20 	ldr	x0, [x25, #56]
  405d64:	b40008e0 	cbz	x0, 405e80 <usage_format1+0x220>
  405d68:	f9402f20 	ldr	x0, [x25, #88]
  405d6c:	b4000a60 	cbz	x0, 405eb8 <usage_format1+0x258>
  405d70:	90000020 	adrp	x0, 409000 <combiner_drain+0x44c>
  405d74:	91272000 	add	x0, x0, #0x9c8
  405d78:	a9025bf5 	stp	x21, x22, [sp, #32]
  405d7c:	52800034 	mov	w20, #0x1                   	// #1
  405d80:	a90363f7 	stp	x23, x24, [sp, #48]
  405d84:	97fff177 	bl	402360 <puts@plt>
  405d88:	f9402f37 	ldr	x23, [x25, #88]
  405d8c:	b94002f6 	ldr	w22, [x23]
  405d90:	340002d6 	cbz	w22, 405de8 <usage_format1+0x188>
  405d94:	9000003a 	adrp	x26, 409000 <combiner_drain+0x44c>
  405d98:	9127a35a 	add	x26, x26, #0x9e8
  405d9c:	a90573fb 	stp	x27, x28, [sp, #80]
  405da0:	9000003b 	adrp	x27, 409000 <combiner_drain+0x44c>
  405da4:	9127437b 	add	x27, x27, #0x9d0
  405da8:	d37f7ed8 	ubfiz	x24, x22, #1, #32
  405dac:	9000003c 	adrp	x28, 409000 <combiner_drain+0x44c>
  405db0:	8b364318 	add	x24, x24, w22, uxtw
  405db4:	d37df318 	lsl	x24, x24, #3
  405db8:	2a1403f5 	mov	w21, w20
  405dbc:	2a1603e0 	mov	w0, w22
  405dc0:	11000694 	add	w20, w20, #0x1
  405dc4:	b8755af3 	ldr	w19, [x23, w21, uxtw #2]
  405dc8:	2a1303e1 	mov	w1, w19
  405dcc:	97fff239 	bl	4026b0 <sox_precision@plt>
  405dd0:	35000180 	cbnz	w0, 405e00 <usage_format1+0x1a0>
  405dd4:	35ffff33 	cbnz	w19, 405db8 <usage_format1+0x158>
  405dd8:	b8745af6 	ldr	w22, [x23, w20, uxtw #2]
  405ddc:	11000ab4 	add	w20, w21, #0x2
  405de0:	35fffe56 	cbnz	w22, 405da8 <usage_format1+0x148>
  405de4:	a94573fb 	ldp	x27, x28, [sp, #80]
  405de8:	a94153f3 	ldp	x19, x20, [sp, #16]
  405dec:	a9425bf5 	ldp	x21, x22, [sp, #32]
  405df0:	a94363f7 	ldp	x23, x24, [sp, #48]
  405df4:	a9446bf9 	ldp	x25, x26, [sp, #64]
  405df8:	a8c67bfd 	ldp	x29, x30, [sp], #96
  405dfc:	d65f03c0 	ret
  405e00:	aa1b03e0 	mov	x0, x27
  405e04:	97fff30f 	bl	402a40 <printf@plt>
  405e08:	350001d3 	cbnz	w19, 405e40 <usage_format1+0x1e0>
  405e0c:	97fff2a1 	bl	402890 <sox_get_encodings_info@plt>
  405e10:	aa0003f7 	mov	x23, x0
  405e14:	8b1802f7 	add	x23, x23, x24
  405e18:	2a1303e1 	mov	w1, w19
  405e1c:	2a1603e0 	mov	w0, w22
  405e20:	97fff224 	bl	4026b0 <sox_precision@plt>
  405e24:	2a0003e2 	mov	w2, w0
  405e28:	aa1a03e0 	mov	x0, x26
  405e2c:	f9400ae1 	ldr	x1, [x23, #16]
  405e30:	97fff304 	bl	402a40 <printf@plt>
  405e34:	f9402f37 	ldr	x23, [x25, #88]
  405e38:	35fffc13 	cbnz	w19, 405db8 <usage_format1+0x158>
  405e3c:	17ffffe7 	b	405dd8 <usage_format1+0x178>
  405e40:	2a1303e1 	mov	w1, w19
  405e44:	91276380 	add	x0, x28, #0x9d8
  405e48:	97fff2fe 	bl	402a40 <printf@plt>
  405e4c:	17fffff0 	b	405e0c <usage_format1+0x1ac>
  405e50:	90000020 	adrp	x0, 409000 <combiner_drain+0x44c>
  405e54:	91258000 	add	x0, x0, #0x960
  405e58:	97fff2fa 	bl	402a40 <printf@plt>
  405e5c:	b9401b20 	ldr	w0, [x25, #24]
  405e60:	374004a0 	tbnz	w0, #8, 405ef4 <usage_format1+0x294>
  405e64:	37480360 	tbnz	w0, #9, 405ed0 <usage_format1+0x270>
  405e68:	375003e0 	tbnz	w0, #10, 405ee4 <usage_format1+0x284>
  405e6c:	f00000c1 	adrp	x1, 420000 <fputs@GLIBC_2.17>
  405e70:	52800140 	mov	w0, #0xa                   	// #10
  405e74:	f9424c21 	ldr	x1, [x1, #1176]
  405e78:	97fff16a 	bl	402420 <putc@plt>
  405e7c:	17ffff9e 	b	405cf4 <usage_format1+0x94>
  405e80:	f9402320 	ldr	x0, [x25, #64]
  405e84:	b5fff720 	cbnz	x0, 405d68 <usage_format1+0x108>
  405e88:	a94153f3 	ldp	x19, x20, [sp, #16]
  405e8c:	90000020 	adrp	x0, 409000 <combiner_drain+0x44c>
  405e90:	a9446bf9 	ldp	x25, x26, [sp, #64]
  405e94:	91284000 	add	x0, x0, #0xa10
  405e98:	a8c67bfd 	ldp	x29, x30, [sp], #96
  405e9c:	17fff131 	b	402360 <puts@plt>
  405ea0:	f9401722 	ldr	x2, [x25, #40]
  405ea4:	90000020 	adrp	x0, 409000 <combiner_drain+0x44c>
  405ea8:	91286000 	add	x0, x0, #0xa18
  405eac:	f100005f 	cmp	x2, #0x0
  405eb0:	9a801021 	csel	x1, x1, x0, ne  // ne = any
  405eb4:	17ffffa8 	b	405d54 <usage_format1+0xf4>
  405eb8:	a94153f3 	ldp	x19, x20, [sp, #16]
  405ebc:	90000020 	adrp	x0, 409000 <combiner_drain+0x44c>
  405ec0:	a9446bf9 	ldp	x25, x26, [sp, #64]
  405ec4:	91280000 	add	x0, x0, #0xa00
  405ec8:	a8c67bfd 	ldp	x29, x30, [sp], #96
  405ecc:	17fff125 	b	402360 <puts@plt>
  405ed0:	90000020 	adrp	x0, 409000 <combiner_drain+0x44c>
  405ed4:	91260000 	add	x0, x0, #0x980
  405ed8:	97fff2da 	bl	402a40 <printf@plt>
  405edc:	b9401b20 	ldr	w0, [x25, #24]
  405ee0:	3657fc60 	tbz	w0, #10, 405e6c <usage_format1+0x20c>
  405ee4:	90000020 	adrp	x0, 409000 <combiner_drain+0x44c>
  405ee8:	91262000 	add	x0, x0, #0x988
  405eec:	97fff2d5 	bl	402a40 <printf@plt>
  405ef0:	17ffffdf 	b	405e6c <usage_format1+0x20c>
  405ef4:	90000020 	adrp	x0, 409000 <combiner_drain+0x44c>
  405ef8:	9125e000 	add	x0, x0, #0x978
  405efc:	97fff2d1 	bl	402a40 <printf@plt>
  405f00:	b9401b20 	ldr	w0, [x25, #24]
  405f04:	364ffb20 	tbz	w0, #9, 405e68 <usage_format1+0x208>
  405f08:	17fffff2 	b	405ed0 <usage_format1+0x270>
  405f0c:	d503201f 	nop

0000000000405f10 <init_file>:
  405f10:	a9be7bfd 	stp	x29, x30, [sp, #-32]!
  405f14:	d2802a02 	mov	x2, #0x150                 	// #336
  405f18:	52800001 	mov	w1, #0x0                   	// #0
  405f1c:	910003fd 	mov	x29, sp
  405f20:	f9000bf3 	str	x19, [sp, #16]
  405f24:	aa0003f3 	mov	x19, x0
  405f28:	97fff16a 	bl	4024d0 <memset@plt>
  405f2c:	9100c260 	add	x0, x19, #0x30
  405f30:	97fff268 	bl	4028d0 <sox_init_encodinginfo@plt>
  405f34:	d2effe00 	mov	x0, #0x7ff0000000000000    	// #9218868437227405312
  405f38:	9e670000 	fmov	d0, x0
  405f3c:	6d050260 	stp	d0, d0, [x19, #80]
  405f40:	f9400bf3 	ldr	x19, [sp, #16]
  405f44:	a8c27bfd 	ldp	x29, x30, [sp], #32
  405f48:	d65f03c0 	ret
  405f4c:	d503201f 	nop

0000000000405f50 <try_device>:
  405f50:	d10c03ff 	sub	sp, sp, #0x300
  405f54:	d00000c1 	adrp	x1, 41f000 <__FRAME_END__+0x11414>
  405f58:	91370021 	add	x1, x1, #0xdc0
  405f5c:	a9007bfd 	stp	x29, x30, [sp]
  405f60:	910003fd 	mov	x29, sp
  405f64:	a90153f3 	stp	x19, x20, [sp, #16]
  405f68:	aa0003f4 	mov	x20, x0
  405f6c:	f9400022 	ldr	x2, [x1]
  405f70:	f9017fe2 	str	x2, [sp, #760]
  405f74:	d2800002 	mov	x2, #0x0                   	// #0
  405f78:	52800001 	mov	w1, #0x0                   	// #0
  405f7c:	97fff14d 	bl	4024b0 <sox_find_format@plt>
  405f80:	aa0003f3 	mov	x19, x0
  405f84:	b40003e0 	cbz	x0, 406000 <try_device+0xb0>
  405f88:	97fff1e2 	bl	402710 <sox_get_globals@plt>
  405f8c:	90000022 	adrp	x2, 409000 <combiner_drain+0x44c>
  405f90:	91288042 	add	x2, x2, #0xa20
  405f94:	90000023 	adrp	x3, 409000 <combiner_drain+0x44c>
  405f98:	f9002002 	str	x2, [x0, #64]
  405f9c:	aa1403e1 	mov	x1, x20
  405fa0:	9128a060 	add	x0, x3, #0xa28
  405fa4:	97fff1a3 	bl	402630 <lsx_debug_impl@plt>
  405fa8:	d2805b02 	mov	x2, #0x2d8                 	// #728
  405fac:	52800001 	mov	w1, #0x0                   	// #0
  405fb0:	910083e0 	add	x0, sp, #0x20
  405fb4:	97fff147 	bl	4024d0 <memset@plt>
  405fb8:	aa1403e0 	mov	x0, x20
  405fbc:	97fffc85 	bl	4051d0 <device_name>
  405fc0:	f9403661 	ldr	x1, [x19, #104]
  405fc4:	aa0003e2 	mov	x2, x0
  405fc8:	d2800020 	mov	x0, #0x1                   	// #1
  405fcc:	f90013e2 	str	x2, [sp, #32]
  405fd0:	97fff1ec 	bl	402780 <lsx_calloc@plt>
  405fd4:	f9401e61 	ldr	x1, [x19, #56]
  405fd8:	f9017be0 	str	x0, [sp, #752]
  405fdc:	910083e0 	add	x0, sp, #0x20
  405fe0:	d63f0020 	blr	x1
  405fe4:	35000240 	cbnz	w0, 40602c <try_device+0xdc>
  405fe8:	f9402661 	ldr	x1, [x19, #72]
  405fec:	910083e0 	add	x0, sp, #0x20
  405ff0:	aa1403f3 	mov	x19, x20
  405ff4:	d63f0020 	blr	x1
  405ff8:	f9417be0 	ldr	x0, [sp, #752]
  405ffc:	97fff131 	bl	4024c0 <free@plt>
  406000:	b00000c0 	adrp	x0, 41f000 <__FRAME_END__+0x11414>
  406004:	f9417fe2 	ldr	x2, [sp, #760]
  406008:	f946e001 	ldr	x1, [x0, #3520]
  40600c:	eb010042 	subs	x2, x2, x1
  406010:	d2800001 	mov	x1, #0x0                   	// #0
  406014:	54000141 	b.ne	40603c <try_device+0xec>  // b.any
  406018:	aa1303e0 	mov	x0, x19
  40601c:	a9407bfd 	ldp	x29, x30, [sp]
  406020:	a94153f3 	ldp	x19, x20, [sp, #16]
  406024:	910c03ff 	add	sp, sp, #0x300
  406028:	d65f03c0 	ret
  40602c:	f9417be0 	ldr	x0, [sp, #752]
  406030:	d2800013 	mov	x19, #0x0                   	// #0
  406034:	97fff123 	bl	4024c0 <free@plt>
  406038:	17fffff2 	b	406000 <try_device+0xb0>
  40603c:	97fff0f1 	bl	402400 <__stack_chk_fail@plt>

0000000000406040 <set_default_device>:
  406040:	a9be7bfd 	stp	x29, x30, [sp, #-32]!
  406044:	910003fd 	mov	x29, sp
  406048:	f9000bf3 	str	x19, [sp, #16]
  40604c:	aa0003f3 	mov	x19, x0
  406050:	f9400400 	ldr	x0, [x0, #8]
  406054:	b4000080 	cbz	x0, 406064 <set_default_device+0x24>
  406058:	f9400bf3 	ldr	x19, [sp, #16]
  40605c:	a8c27bfd 	ldp	x29, x30, [sp], #32
  406060:	17fffc5c 	b	4051d0 <device_name>
  406064:	f0000000 	adrp	x0, 409000 <combiner_drain+0x44c>
  406068:	91298000 	add	x0, x0, #0xa60
  40606c:	97fff221 	bl	4028f0 <getenv@plt>
  406070:	f9000660 	str	x0, [x19, #8]
  406074:	b5ffff20 	cbnz	x0, 406058 <set_default_device+0x18>
  406078:	f0000000 	adrp	x0, 409000 <combiner_drain+0x44c>
  40607c:	9120e000 	add	x0, x0, #0x838
  406080:	97ffffb4 	bl	405f50 <try_device>
  406084:	f9000660 	str	x0, [x19, #8]
  406088:	b5fffe80 	cbnz	x0, 406058 <set_default_device+0x18>
  40608c:	f0000000 	adrp	x0, 409000 <combiner_drain+0x44c>
  406090:	91212000 	add	x0, x0, #0x848
  406094:	97ffffaf 	bl	405f50 <try_device>
  406098:	f9000660 	str	x0, [x19, #8]
  40609c:	b5fffde0 	cbnz	x0, 406058 <set_default_device+0x18>
  4060a0:	f0000000 	adrp	x0, 409000 <combiner_drain+0x44c>
  4060a4:	9120a000 	add	x0, x0, #0x828
  4060a8:	97ffffaa 	bl	405f50 <try_device>
  4060ac:	f9000660 	str	x0, [x19, #8]
  4060b0:	b5fffd40 	cbnz	x0, 406058 <set_default_device+0x18>
  4060b4:	f0000000 	adrp	x0, 409000 <combiner_drain+0x44c>
  4060b8:	91216000 	add	x0, x0, #0x858
  4060bc:	97ffffa5 	bl	405f50 <try_device>
  4060c0:	f9000660 	str	x0, [x19, #8]
  4060c4:	b5fffca0 	cbnz	x0, 406058 <set_default_device+0x18>
  4060c8:	f0000000 	adrp	x0, 409000 <combiner_drain+0x44c>
  4060cc:	9120c000 	add	x0, x0, #0x830
  4060d0:	97ffffa0 	bl	405f50 <try_device>
  4060d4:	f9000660 	str	x0, [x19, #8]
  4060d8:	b5fffc00 	cbnz	x0, 406058 <set_default_device+0x18>
  4060dc:	f0000000 	adrp	x0, 409000 <combiner_drain+0x44c>
  4060e0:	91206000 	add	x0, x0, #0x818
  4060e4:	97ffff9b 	bl	405f50 <try_device>
  4060e8:	f9000660 	str	x0, [x19, #8]
  4060ec:	b5fffb60 	cbnz	x0, 406058 <set_default_device+0x18>
  4060f0:	f0000000 	adrp	x0, 409000 <combiner_drain+0x44c>
  4060f4:	91204000 	add	x0, x0, #0x810
  4060f8:	97ffff96 	bl	405f50 <try_device>
  4060fc:	f9000660 	str	x0, [x19, #8]
  406100:	b5fffac0 	cbnz	x0, 406058 <set_default_device+0x18>
  406104:	d00000c0 	adrp	x0, 420000 <fputs@GLIBC_2.17>
  406108:	f9442c00 	ldr	x0, [x0, #2136]
  40610c:	b5000160 	cbnz	x0, 406138 <set_default_device+0xf8>
  406110:	97fff180 	bl	402710 <sox_get_globals@plt>
  406114:	aa0003e2 	mov	x2, x0
  406118:	f0000001 	adrp	x1, 409000 <combiner_drain+0x44c>
  40611c:	91288021 	add	x1, x1, #0xa20
  406120:	f0000000 	adrp	x0, 409000 <combiner_drain+0x44c>
  406124:	9129c000 	add	x0, x0, #0xa70
  406128:	f9002041 	str	x1, [x2, #64]
  40612c:	97fff0c5 	bl	402440 <lsx_fail_impl@plt>
  406130:	52800020 	mov	w0, #0x1                   	// #1
  406134:	97fff1fb 	bl	402920 <exit@plt>
  406138:	f0000000 	adrp	x0, 409000 <combiner_drain+0x44c>
  40613c:	912aa000 	add	x0, x0, #0xaa8
  406140:	97ffff84 	bl	405f50 <try_device>
  406144:	f9000660 	str	x0, [x19, #8]
  406148:	b4fffe40 	cbz	x0, 406110 <set_default_device+0xd0>
  40614c:	f9400bf3 	ldr	x19, [sp, #16]
  406150:	a8c27bfd 	ldp	x29, x30, [sp], #32
  406154:	17fffc1f 	b	4051d0 <device_name>
  406158:	d503201f 	nop
  40615c:	d503201f 	nop

0000000000406160 <display_SoX_version>:
  406160:	a9a57bfd 	stp	x29, x30, [sp, #-432]!
  406164:	b00000c1 	adrp	x1, 41f000 <__FRAME_END__+0x11414>
  406168:	91370021 	add	x1, x1, #0xdc0
  40616c:	910003fd 	mov	x29, sp
  406170:	a90153f3 	stp	x19, x20, [sp, #16]
  406174:	aa0003f4 	mov	x20, x0
  406178:	f9400020 	ldr	x0, [x1]
  40617c:	f900d7e0 	str	x0, [sp, #424]
  406180:	d2800000 	mov	x0, #0x0                   	// #0
  406184:	97fff0eb 	bl	402530 <sox_version_info@plt>
  406188:	aa0003f3 	mov	x19, x0
  40618c:	a9411403 	ldp	x3, x5, [x0, #16]
  406190:	d00000c1 	adrp	x1, 420000 <fputs@GLIBC_2.17>
  406194:	f0000004 	adrp	x4, 409000 <combiner_drain+0x44c>
  406198:	912ac084 	add	x4, x4, #0xab0
  40619c:	f9425822 	ldr	x2, [x1, #1200]
  4061a0:	b40005a5 	cbz	x5, 406254 <display_SoX_version+0xf4>
  4061a4:	f0000001 	adrp	x1, 409000 <combiner_drain+0x44c>
  4061a8:	912ae021 	add	x1, x1, #0xab8
  4061ac:	aa1403e0 	mov	x0, x20
  4061b0:	97fff088 	bl	4023d0 <fprintf@plt>
  4061b4:	97fff157 	bl	402710 <sox_get_globals@plt>
  4061b8:	b9400000 	ldr	w0, [x0]
  4061bc:	71000c1f 	cmp	w0, #0x3
  4061c0:	54000389 	b.ls	406230 <display_SoX_version+0xd0>  // b.plast
  4061c4:	f9401262 	ldr	x2, [x19, #32]
  4061c8:	b40000a2 	cbz	x2, 4061dc <display_SoX_version+0x7c>
  4061cc:	f0000001 	adrp	x1, 409000 <combiner_drain+0x44c>
  4061d0:	aa1403e0 	mov	x0, x20
  4061d4:	912b4021 	add	x1, x1, #0xad0
  4061d8:	97fff07e 	bl	4023d0 <fprintf@plt>
  4061dc:	f9401662 	ldr	x2, [x19, #40]
  4061e0:	b40000a2 	cbz	x2, 4061f4 <display_SoX_version+0x94>
  4061e4:	f0000001 	adrp	x1, 409000 <combiner_drain+0x44c>
  4061e8:	aa1403e0 	mov	x0, x20
  4061ec:	912b8021 	add	x1, x1, #0xae0
  4061f0:	97fff078 	bl	4023d0 <fprintf@plt>
  4061f4:	910083e0 	add	x0, sp, #0x20
  4061f8:	97fff07a 	bl	4023e0 <uname@plt>
  4061fc:	34000340 	cbz	w0, 406264 <display_SoX_version+0x104>
  406200:	f9401a62 	ldr	x2, [x19, #48]
  406204:	b40000a2 	cbz	x2, 406218 <display_SoX_version+0xb8>
  406208:	f0000001 	adrp	x1, 409000 <combiner_drain+0x44c>
  40620c:	aa1403e0 	mov	x0, x20
  406210:	912c4021 	add	x1, x1, #0xb10
  406214:	97fff06f 	bl	4023d0 <fprintf@plt>
  406218:	f9401e62 	ldr	x2, [x19, #56]
  40621c:	b40000a2 	cbz	x2, 406230 <display_SoX_version+0xd0>
  406220:	f0000001 	adrp	x1, 409000 <combiner_drain+0x44c>
  406224:	aa1403e0 	mov	x0, x20
  406228:	912c8021 	add	x1, x1, #0xb20
  40622c:	97fff069 	bl	4023d0 <fprintf@plt>
  406230:	b00000c0 	adrp	x0, 41f000 <__FRAME_END__+0x11414>
  406234:	f940d7e2 	ldr	x2, [sp, #424]
  406238:	f946e001 	ldr	x1, [x0, #3520]
  40623c:	eb010042 	subs	x2, x2, x1
  406240:	d2800001 	mov	x1, #0x0                   	// #0
  406244:	54000281 	b.ne	406294 <display_SoX_version+0x134>  // b.any
  406248:	a94153f3 	ldp	x19, x20, [sp, #16]
  40624c:	a8db7bfd 	ldp	x29, x30, [sp], #432
  406250:	d65f03c0 	ret
  406254:	90000024 	adrp	x4, 40a000 <__dso_handle+0x858>
  406258:	910fa084 	add	x4, x4, #0x3e8
  40625c:	aa0403e5 	mov	x5, x4
  406260:	17ffffd1 	b	4061a4 <display_SoX_version+0x44>
  406264:	910083e2 	add	x2, sp, #0x20
  406268:	910493e6 	add	x6, sp, #0x124
  40626c:	91038fe5 	add	x5, sp, #0xe3
  406270:	91028be4 	add	x4, sp, #0xa2
  406274:	910187e3 	add	x3, sp, #0x61
  406278:	aa1403e0 	mov	x0, x20
  40627c:	f0000001 	adrp	x1, 409000 <combiner_drain+0x44c>
  406280:	912bc021 	add	x1, x1, #0xaf0
  406284:	97fff053 	bl	4023d0 <fprintf@plt>
  406288:	f9401a62 	ldr	x2, [x19, #48]
  40628c:	b5fffbe2 	cbnz	x2, 406208 <display_SoX_version+0xa8>
  406290:	17ffffe2 	b	406218 <display_SoX_version+0xb8>
  406294:	97fff05b 	bl	402400 <__stack_chk_fail@plt>
  406298:	d503201f 	nop
  40629c:	d503201f 	nop

00000000004062a0 <soxi_usage>:
  4062a0:	a9be7bfd 	stp	x29, x30, [sp, #-32]!
  4062a4:	d00000c1 	adrp	x1, 420000 <fputs@GLIBC_2.17>
  4062a8:	910003fd 	mov	x29, sp
  4062ac:	f9000bf3 	str	x19, [sp, #16]
  4062b0:	2a0003f3 	mov	w19, w0
  4062b4:	f9424c20 	ldr	x0, [x1, #1176]
  4062b8:	97ffffaa 	bl	406160 <display_SoX_version>
  4062bc:	f0000000 	adrp	x0, 409000 <combiner_drain+0x44c>
  4062c0:	912cc000 	add	x0, x0, #0xb30
  4062c4:	97fff027 	bl	402360 <puts@plt>
  4062c8:	f0000000 	adrp	x0, 409000 <combiner_drain+0x44c>
  4062cc:	91310000 	add	x0, x0, #0xc40
  4062d0:	97fff024 	bl	402360 <puts@plt>
  4062d4:	2a1303e0 	mov	w0, w19
  4062d8:	97fff192 	bl	402920 <exit@plt>
  4062dc:	d503201f 	nop

00000000004062e0 <usage>:
  4062e0:	a9bc7bfd 	stp	x29, x30, [sp, #-64]!
  4062e4:	910003fd 	mov	x29, sp
  4062e8:	a90153f3 	stp	x19, x20, [sp, #16]
  4062ec:	a9025bf5 	stp	x21, x22, [sp, #32]
  4062f0:	aa0003f6 	mov	x22, x0
  4062f4:	f9001bf7 	str	x23, [sp, #48]
  4062f8:	97fff08e 	bl	402530 <sox_version_info@plt>
  4062fc:	aa0003f7 	mov	x23, x0
  406300:	97fff104 	bl	402710 <sox_get_globals@plt>
  406304:	b9400000 	ldr	w0, [x0]
  406308:	7100081f 	cmp	w0, #0x2
  40630c:	54000ac9 	b.ls	406464 <usage+0x184>  // b.plast
  406310:	b4000136 	cbz	x22, 406334 <usage+0x54>
  406314:	97fff0ff 	bl	402710 <sox_get_globals@plt>
  406318:	f0000002 	adrp	x2, 409000 <combiner_drain+0x44c>
  40631c:	91288042 	add	x2, x2, #0xa20
  406320:	f0000003 	adrp	x3, 409000 <combiner_drain+0x44c>
  406324:	f9002002 	str	x2, [x0, #64]
  406328:	aa1603e1 	mov	x1, x22
  40632c:	913a2060 	add	x0, x3, #0xe88
  406330:	97fff044 	bl	402440 <lsx_fail_impl@plt>
  406334:	d00000c0 	adrp	x0, 420000 <fputs@GLIBC_2.17>
  406338:	b9486000 	ldr	w0, [x0, #2144]
  40633c:	7100041f 	cmp	w0, #0x1
  406340:	54000a00 	b.eq	406480 <usage+0x1a0>  // b.none
  406344:	f0000001 	adrp	x1, 409000 <combiner_drain+0x44c>
  406348:	90000020 	adrp	x0, 40a000 <__dso_handle+0x858>
  40634c:	9138e021 	add	x1, x1, #0xe38
  406350:	910fa013 	add	x19, x0, #0x3e8
  406354:	f0000000 	adrp	x0, 409000 <combiner_drain+0x44c>
  406358:	913a4000 	add	x0, x0, #0xe90
  40635c:	97fff1b9 	bl	402a40 <printf@plt>
  406360:	f0000000 	adrp	x0, 409000 <combiner_drain+0x44c>
  406364:	913b8000 	add	x0, x0, #0xee0
  406368:	97ffeffe 	bl	402360 <puts@plt>
  40636c:	f0000000 	adrp	x0, 409000 <combiner_drain+0x44c>
  406370:	913c2000 	add	x0, x0, #0xf08
  406374:	97ffeffb 	bl	402360 <puts@plt>
  406378:	f0000000 	adrp	x0, 409000 <combiner_drain+0x44c>
  40637c:	913d6000 	add	x0, x0, #0xf58
  406380:	97ffeff8 	bl	402360 <puts@plt>
  406384:	f0000000 	adrp	x0, 409000 <combiner_drain+0x44c>
  406388:	913e8000 	add	x0, x0, #0xfa0
  40638c:	97ffeff5 	bl	402360 <puts@plt>
  406390:	f0000000 	adrp	x0, 409000 <combiner_drain+0x44c>
  406394:	913fc000 	add	x0, x0, #0xff0
  406398:	97ffeff2 	bl	402360 <puts@plt>
  40639c:	b9400ae0 	ldr	w0, [x23, #8]
  4063a0:	36000140 	tbz	w0, #0, 4063c8 <usage+0xe8>
  4063a4:	90000020 	adrp	x0, 40a000 <__dso_handle+0x858>
  4063a8:	91008000 	add	x0, x0, #0x20
  4063ac:	97ffefed 	bl	402360 <puts@plt>
  4063b0:	90000020 	adrp	x0, 40a000 <__dso_handle+0x858>
  4063b4:	91012000 	add	x0, x0, #0x48
  4063b8:	97ffefea 	bl	402360 <puts@plt>
  4063bc:	90000020 	adrp	x0, 40a000 <__dso_handle+0x858>
  4063c0:	91026000 	add	x0, x0, #0x98
  4063c4:	97ffefe7 	bl	402360 <puts@plt>
  4063c8:	d0000034 	adrp	x20, 40c000 <__dso_handle+0x2858>
  4063cc:	9115a294 	add	x20, x20, #0x568
  4063d0:	aa1303e0 	mov	x0, x19
  4063d4:	9102e295 	add	x21, x20, #0xb8
  4063d8:	9100a293 	add	x19, x20, #0x28
  4063dc:	14000002 	b	4063e4 <usage+0x104>
  4063e0:	f8408660 	ldr	x0, [x19], #8
  4063e4:	97ffefdf 	bl	402360 <puts@plt>
  4063e8:	eb15027f 	cmp	x19, x21
  4063ec:	54ffffa1 	b.ne	4063e0 <usage+0x100>  // b.any
  4063f0:	b9400ae0 	ldr	w0, [x23, #8]
  4063f4:	37080260 	tbnz	w0, #1, 406440 <usage+0x160>
  4063f8:	371002e0 	tbnz	w0, #2, 406454 <usage+0x174>
  4063fc:	91030293 	add	x19, x20, #0xc0
  406400:	f0000001 	adrp	x1, 409000 <combiner_drain+0x44c>
  406404:	91080294 	add	x20, x20, #0x200
  406408:	91392020 	add	x0, x1, #0xe48
  40640c:	14000002 	b	406414 <usage+0x134>
  406410:	f8408660 	ldr	x0, [x19], #8
  406414:	97ffefd3 	bl	402360 <puts@plt>
  406418:	eb13029f 	cmp	x20, x19
  40641c:	54ffffa1 	b.ne	406410 <usage+0x130>  // b.any
  406420:	97fffd88 	bl	405a40 <display_supported_formats>
  406424:	97fffd58 	bl	405984 <display_supported_effects>
  406428:	90000020 	adrp	x0, 40a000 <__dso_handle+0x858>
  40642c:	9104a000 	add	x0, x0, #0x128
  406430:	97ffefcc 	bl	402360 <puts@plt>
  406434:	f10002df 	cmp	x22, #0x0
  406438:	1a9f07e0 	cset	w0, ne  // ne = any
  40643c:	97fff139 	bl	402920 <exit@plt>
  406440:	90000020 	adrp	x0, 40a000 <__dso_handle+0x858>
  406444:	9103a000 	add	x0, x0, #0xe8
  406448:	97ffefc6 	bl	402360 <puts@plt>
  40644c:	b9400ae0 	ldr	w0, [x23, #8]
  406450:	3617fd60 	tbz	w0, #2, 4063fc <usage+0x11c>
  406454:	90000020 	adrp	x0, 40a000 <__dso_handle+0x858>
  406458:	9105a000 	add	x0, x0, #0x168
  40645c:	97ffefc1 	bl	402360 <puts@plt>
  406460:	17ffffe7 	b	4063fc <usage+0x11c>
  406464:	d00000d3 	adrp	x19, 420000 <fputs@GLIBC_2.17>
  406468:	f9424e60 	ldr	x0, [x19, #1176]
  40646c:	97ffff3d 	bl	406160 <display_SoX_version>
  406470:	f9424e61 	ldr	x1, [x19, #1176]
  406474:	52800140 	mov	w0, #0xa                   	// #10
  406478:	97ffefea 	bl	402420 <putc@plt>
  40647c:	17ffffa5 	b	406310 <usage+0x30>
  406480:	90000020 	adrp	x0, 40a000 <__dso_handle+0x858>
  406484:	910fa013 	add	x19, x0, #0x3e8
  406488:	aa1303e1 	mov	x1, x19
  40648c:	17ffffb2 	b	406354 <usage+0x74>

0000000000406490 <add_file>:
  406490:	a9bd7bfd 	stp	x29, x30, [sp, #-48]!
  406494:	910003fd 	mov	x29, sp
  406498:	a90153f3 	stp	x19, x20, [sp, #16]
  40649c:	aa0103f3 	mov	x19, x1
  4064a0:	f90013f5 	str	x21, [sp, #32]
  4064a4:	aa0003f5 	mov	x21, x0
  4064a8:	d2802a00 	mov	x0, #0x150                 	// #336
  4064ac:	97fff0d1 	bl	4027f0 <lsx_malloc@plt>
  4064b0:	aa1503e1 	mov	x1, x21
  4064b4:	aa0003f4 	mov	x20, x0
  4064b8:	d2802a02 	mov	x2, #0x150                 	// #336
  4064bc:	97ffef91 	bl	402300 <memcpy@plt>
  4064c0:	b40002d3 	cbz	x19, 406518 <add_file+0x88>
  4064c4:	aa1303e0 	mov	x0, x19
  4064c8:	d00000d3 	adrp	x19, 420000 <fputs@GLIBC_2.17>
  4064cc:	9112c273 	add	x19, x19, #0x4b0
  4064d0:	97fff064 	bl	402660 <lsx_strdup@plt>
  4064d4:	f9000280 	str	x0, [x20]
  4064d8:	f941d661 	ldr	x1, [x19, #936]
  4064dc:	f941de60 	ldr	x0, [x19, #952]
  4064e0:	91000421 	add	x1, x1, #0x1
  4064e4:	d37df021 	lsl	x1, x1, #3
  4064e8:	97ffef9a 	bl	402350 <lsx_realloc@plt>
  4064ec:	aa0003e1 	mov	x1, x0
  4064f0:	f941d662 	ldr	x2, [x19, #936]
  4064f4:	52800000 	mov	w0, #0x0                   	// #0
  4064f8:	f94013f5 	ldr	x21, [sp, #32]
  4064fc:	91000443 	add	x3, x2, #0x1
  406500:	f8227834 	str	x20, [x1, x2, lsl #3]
  406504:	f901d663 	str	x3, [x19, #936]
  406508:	f901de61 	str	x1, [x19, #952]
  40650c:	a94153f3 	ldp	x19, x20, [sp, #16]
  406510:	a8c37bfd 	ldp	x29, x30, [sp], #48
  406514:	d65f03c0 	ret
  406518:	90000020 	adrp	x0, 40a000 <__dso_handle+0x858>
  40651c:	9106c000 	add	x0, x0, #0x1b0
  406520:	97ffff70 	bl	4062e0 <usage>

0000000000406524 <since>:
  406524:	a9bb7bfd 	stp	x29, x30, [sp, #-80]!
  406528:	910003fd 	mov	x29, sp
  40652c:	fd0013e8 	str	d8, [sp, #32]
  406530:	1e604008 	fmov	d8, d0
  406534:	a90153f3 	stp	x19, x20, [sp, #16]
  406538:	aa0003f4 	mov	x20, x0
  40653c:	b00000c0 	adrp	x0, 41f000 <__FRAME_END__+0x11414>
  406540:	91370000 	add	x0, x0, #0xdc0
  406544:	2a0103f3 	mov	w19, w1
  406548:	f9400001 	ldr	x1, [x0]
  40654c:	f90027e1 	str	x1, [sp, #72]
  406550:	d2800001 	mov	x1, #0x0                   	// #0
  406554:	9100e3e0 	add	x0, sp, #0x38
  406558:	97fff01a 	bl	4025c0 <gettimeofday@plt>
  40655c:	1e64c100 	frintp	d0, d8
  406560:	f9400280 	ldr	x0, [x20]
  406564:	f9401fe2 	ldr	x2, [sp, #56]
  406568:	cb000042 	sub	x2, x2, x0
  40656c:	9e620041 	scvtf	d1, x2
  406570:	1e602030 	fcmpe	d1, d0
  406574:	540001ec 	b.gt	4065b0 <since+0x8c>
  406578:	f9400682 	ldr	x2, [x20, #8]
  40657c:	d2d09001 	mov	x1, #0x848000000000        	// #145685290680320
  406580:	f94023e0 	ldr	x0, [sp, #64]
  406584:	f2e825c1 	movk	x1, #0x412e, lsl #48
  406588:	9e670022 	fmov	d2, x1
  40658c:	cb020000 	sub	x0, x0, x2
  406590:	1e620908 	fmul	d8, d8, d2
  406594:	9e620000 	scvtf	d0, x0
  406598:	1f420020 	fmadd	d0, d1, d2, d0
  40659c:	1e682010 	fcmpe	d0, d8
  4065a0:	5400008a 	b.ge	4065b0 <since+0x8c>  // b.tcont
  4065a4:	340000d3 	cbz	w19, 4065bc <since+0x98>
  4065a8:	52800013 	mov	w19, #0x0                   	// #0
  4065ac:	14000002 	b	4065b4 <since+0x90>
  4065b0:	52800033 	mov	w19, #0x1                   	// #1
  4065b4:	a94387e0 	ldp	x0, x1, [sp, #56]
  4065b8:	a9000680 	stp	x0, x1, [x20]
  4065bc:	b00000c0 	adrp	x0, 41f000 <__FRAME_END__+0x11414>
  4065c0:	f94027e2 	ldr	x2, [sp, #72]
  4065c4:	f946e001 	ldr	x1, [x0, #3520]
  4065c8:	eb010042 	subs	x2, x2, x1
  4065cc:	d2800001 	mov	x1, #0x0                   	// #0
  4065d0:	540000c1 	b.ne	4065e8 <since+0xc4>  // b.any
  4065d4:	2a1303e0 	mov	w0, w19
  4065d8:	fd4013e8 	ldr	d8, [sp, #32]
  4065dc:	a94153f3 	ldp	x19, x20, [sp, #16]
  4065e0:	a8c57bfd 	ldp	x29, x30, [sp], #80
  4065e4:	d65f03c0 	ret
  4065e8:	97ffef86 	bl	402400 <__stack_chk_fail@plt>
  4065ec:	d503201f 	nop

00000000004065f0 <vu>:
  4065f0:	a9bc7bfd 	stp	x29, x30, [sp, #-64]!
  4065f4:	b26a67e1 	mov	x1, #0xffffffc00000        	// #281474972516352
  4065f8:	f2e83be1 	movk	x1, #0x41df, lsl #48
  4065fc:	910003fd 	mov	x29, sp
  406600:	a90153f3 	stp	x19, x20, [sp, #16]
  406604:	d00000d4 	adrp	x20, 420000 <fputs@GLIBC_2.17>
  406608:	9112c294 	add	x20, x20, #0x4b0
  40660c:	8b204a82 	add	x2, x20, w0, uxtw #2
  406610:	9e670022 	fmov	d2, x1
  406614:	d2f7c001 	mov	x1, #0xbe00000000000000    	// #-4755801206503243776
  406618:	9e670021 	fmov	d1, x1
  40661c:	2a0003f3 	mov	w19, w0
  406620:	a9025bf5 	stp	x21, x22, [sp, #32]
  406624:	b943c041 	ldr	w1, [x2, #960]
  406628:	b943c840 	ldr	w0, [x2, #968]
  40662c:	52800016 	mov	w22, #0x0                   	// #0
  406630:	fd001be8 	str	d8, [sp, #48]
  406634:	1e620028 	scvtf	d8, w1
  406638:	1e620000 	scvtf	d0, w0
  40663c:	1e621908 	fdiv	d8, d8, d2
  406640:	1e610800 	fmul	d0, d0, d1
  406644:	1e602110 	fcmpe	d8, d0
  406648:	1e60ad08 	fcsel	d8, d8, d0, ge  // ge = tcont
  40664c:	1e604100 	fmov	d0, d8
  406650:	97ffeff0 	bl	402610 <log10@plt>
  406654:	1e602108 	fcmp	d8, #0.0
  406658:	1e669001 	fmov	d1, #2.000000000000000000e+01
  40665c:	1e610808 	fmul	d8, d0, d1
  406660:	540000e0 	b.eq	40667c <vu+0x8c>  // b.none
  406664:	1e677000 	fmov	d0, #2.700000000000000000e+01
  406668:	528001b6 	mov	w22, #0xd                   	// #13
  40666c:	1e602900 	fadd	d0, d8, d0
  406670:	1e700001 	fcvtms	w1, d0
  406674:	7100643f 	cmp	w1, #0x19
  406678:	540003ed 	b.le	4066f4 <vu+0x104>
  40667c:	d00000d5 	adrp	x21, 420000 <fputs@GLIBC_2.17>
  406680:	910f22b5 	add	x21, x21, #0x3c8
  406684:	1e614108 	fneg	d8, d8
  406688:	8b130a80 	add	x0, x20, x19, lsl #2
  40668c:	fd4006a0 	ldr	d0, [x21, #8]
  406690:	b903c01f 	str	wzr, [x0, #960]
  406694:	b903c81f 	str	wzr, [x0, #968]
  406698:	1e602110 	fcmpe	d8, d0
  40669c:	54000224 	b.mi	4066e0 <vu+0xf0>  // b.first
  4066a0:	1e611000 	fmov	d0, #3.000000000000000000e+00
  4066a4:	910f4280 	add	x0, x20, #0x3d0
  4066a8:	52800001 	mov	w1, #0x0                   	// #0
  4066ac:	97ffff9e 	bl	406524 <since>
  4066b0:	34000040 	cbz	w0, 4066b8 <vu+0xc8>
  4066b4:	fd0006a8 	str	d8, [x21, #8]
  4066b8:	d0000021 	adrp	x1, 40c000 <__dso_handle+0x2858>
  4066bc:	9115a021 	add	x1, x1, #0x568
  4066c0:	8b36c660 	add	x0, x19, w22, sxtw #1
  4066c4:	91080021 	add	x1, x1, #0x200
  4066c8:	a94153f3 	ldp	x19, x20, [sp, #16]
  4066cc:	f8607820 	ldr	x0, [x1, x0, lsl #3]
  4066d0:	a9425bf5 	ldp	x21, x22, [sp, #32]
  4066d4:	fd401be8 	ldr	d8, [sp, #48]
  4066d8:	a8c47bfd 	ldp	x29, x30, [sp], #64
  4066dc:	d65f03c0 	ret
  4066e0:	910f4280 	add	x0, x20, #0x3d0
  4066e4:	d2800001 	mov	x1, #0x0                   	// #0
  4066e8:	97ffefb6 	bl	4025c0 <gettimeofday@plt>
  4066ec:	fd0006a8 	str	d8, [x21, #8]
  4066f0:	17fffff2 	b	4066b8 <vu+0xc8>
  4066f4:	0b417c20 	add	w0, w1, w1, lsr #31
  4066f8:	3100083f 	cmn	w1, #0x2
  4066fc:	13017c00 	asr	w0, w0, #1
  406700:	1a9fc016 	csel	w22, w0, wzr, gt
  406704:	17ffffde 	b	40667c <vu+0x8c>
  406708:	d503201f 	nop
  40670c:	d503201f 	nop

0000000000406710 <update_status>:
  406710:	d10743ff 	sub	sp, sp, #0x1d0
  406714:	b00000c1 	adrp	x1, 41f000 <__FRAME_END__+0x11414>
  406718:	91370021 	add	x1, x1, #0xdc0
  40671c:	a9027bfd 	stp	x29, x30, [sp, #32]
  406720:	910083fd 	add	x29, sp, #0x20
  406724:	a90353f3 	stp	x19, x20, [sp, #48]
  406728:	d00000d3 	adrp	x19, 420000 <fputs@GLIBC_2.17>
  40672c:	9112c273 	add	x19, x19, #0x4b0
  406730:	a9045bf5 	stp	x21, x22, [sp, #64]
  406734:	a90563f7 	stp	x23, x24, [sp, #80]
  406738:	2a0003f8 	mov	w24, w0
  40673c:	a90773fb 	stp	x27, x28, [sp, #112]
  406740:	f9400022 	ldr	x2, [x1]
  406744:	f900e7e2 	str	x2, [sp, #456]
  406748:	d2800002 	mov	x2, #0x0                   	// #0
  40674c:	b943f261 	ldr	w1, [x19, #1008]
  406750:	34000601 	cbz	w1, 406810 <update_status+0x100>
  406754:	d00000d6 	adrp	x22, 420000 <fputs@GLIBC_2.17>
  406758:	910323f4 	add	x20, sp, #0xc8
  40675c:	4f000400 	movi	v0.4s, #0x0
  406760:	911242d6 	add	x22, x22, #0x490
  406764:	d2800037 	mov	x23, #0x1                   	// #1
  406768:	14000004 	b	406778 <update_status+0x68>
  40676c:	f94002c0 	ldr	x0, [x22]
  406770:	97ffefd4 	bl	4026c0 <getc@plt>
  406774:	4f000400 	movi	v0.4s, #0x0
  406778:	f94002c0 	ldr	x0, [x22]
  40677c:	ad000280 	stp	q0, q0, [x20]
  406780:	ad010280 	stp	q0, q0, [x20, #32]
  406784:	ad020280 	stp	q0, q0, [x20, #64]
  406788:	ad030280 	stp	q0, q0, [x20, #96]
  40678c:	a90bffff 	stp	xzr, xzr, [sp, #184]
  406790:	97ffef20 	bl	402410 <fileno@plt>
  406794:	9ac022f5 	lsl	x21, x23, x0
  406798:	f94002c0 	ldr	x0, [x22]
  40679c:	97ffef1d 	bl	402410 <fileno@plt>
  4067a0:	7100001f 	cmp	w0, #0x0
  4067a4:	1100fc01 	add	w1, w0, #0x3f
  4067a8:	1a80b021 	csel	w1, w1, w0, lt  // lt = tstop
  4067ac:	f94002c0 	ldr	x0, [x22]
  4067b0:	13067c21 	asr	w1, w1, #6
  4067b4:	93407c21 	sxtw	x1, w1
  4067b8:	f8617a82 	ldr	x2, [x20, x1, lsl #3]
  4067bc:	aa0202b5 	orr	x21, x21, x2
  4067c0:	f8217a95 	str	x21, [x20, x1, lsl #3]
  4067c4:	97ffef13 	bl	402410 <fileno@plt>
  4067c8:	11000400 	add	w0, w0, #0x1
  4067cc:	9102e3e4 	add	x4, sp, #0xb8
  4067d0:	aa1403e1 	mov	x1, x20
  4067d4:	d2800003 	mov	x3, #0x0                   	// #0
  4067d8:	d2800002 	mov	x2, #0x0                   	// #0
  4067dc:	97ffeecd 	bl	402310 <select@plt>
  4067e0:	f94002c0 	ldr	x0, [x22]
  4067e4:	97ffef0b 	bl	402410 <fileno@plt>
  4067e8:	7100001f 	cmp	w0, #0x0
  4067ec:	1100fc01 	add	w1, w0, #0x3f
  4067f0:	1a80b021 	csel	w1, w1, w0, lt  // lt = tstop
  4067f4:	f94002c0 	ldr	x0, [x22]
  4067f8:	13067c21 	asr	w1, w1, #6
  4067fc:	f861da95 	ldr	x21, [x20, w1, sxtw #3]
  406800:	97ffef04 	bl	402410 <fileno@plt>
  406804:	9ac022e0 	lsl	x0, x23, x0
  406808:	ea15001f 	tst	x0, x21
  40680c:	54fffb01 	b.ne	40676c <update_status+0x5c>  // b.any
  406810:	d00000dc 	adrp	x28, 420000 <fputs@GLIBC_2.17>
  406814:	910f239c 	add	x28, x28, #0x3c8
  406818:	b9401380 	ldr	w0, [x28, #16]
  40681c:	34000cf8 	cbz	w24, 4069b8 <update_status+0x2a8>
  406820:	52800035 	mov	w21, #0x1                   	// #1
  406824:	34000a60 	cbz	w0, 406970 <update_status+0x260>
  406828:	fd420660 	ldr	d0, [x19, #1032]
  40682c:	a9066bf9 	stp	x25, x26, [sp, #96]
  406830:	fd420a61 	ldr	d1, [x19, #1040]
  406834:	f9421a60 	ldr	x0, [x19, #1072]
  406838:	7e61d800 	ucvtf	d0, d0
  40683c:	6d0827e8 	stp	d8, d9, [sp, #128]
  406840:	1e611809 	fdiv	d9, d0, d1
  406844:	b5000c60 	cbnz	x0, 4069d0 <update_status+0x2c0>
  406848:	2f00e400 	movi	d0, #0x0
  40684c:	1e604008 	fmov	d8, d0
  406850:	b9401794 	ldr	w20, [x28, #20]
  406854:	52801000 	mov	w0, #0x80                  	// #128
  406858:	11000a94 	add	w20, w20, #0x2
  40685c:	7102069f 	cmp	w20, #0x81
  406860:	1a803294 	csel	w20, w20, w0, cc  // cc = lo, ul, last
  406864:	97fff06f 	bl	402a20 <lsx_sigfigs3p@plt>
  406868:	1e604120 	fmov	d0, d9
  40686c:	aa0003f6 	mov	x22, x0
  406870:	93407e94 	sxtw	x20, w20
  406874:	97fffa2f 	bl	405130 <str_time>
  406878:	1e604100 	fmov	d0, d8
  40687c:	aa0003f7 	mov	x23, x0
  406880:	97fffa2c 	bl	405130 <str_time>
  406884:	aa0003f8 	mov	x24, x0
  406888:	fd421e60 	ldr	d0, [x19, #1080]
  40688c:	7e61d800 	ucvtf	d0, d0
  406890:	97ffefc0 	bl	402790 <lsx_sigfigs3@plt>
  406894:	aa0003f9 	mov	x25, x0
  406898:	52800000 	mov	w0, #0x0                   	// #0
  40689c:	97ffff55 	bl	4065f0 <vu>
  4068a0:	aa0003fa 	mov	x26, x0
  4068a4:	52800020 	mov	w0, #0x1                   	// #1
  4068a8:	97ffff52 	bl	4065f0 <vu>
  4068ac:	aa0003fb 	mov	x27, x0
  4068b0:	fd400780 	ldr	d0, [x28, #8]
  4068b4:	1e631001 	fmov	d1, #6.000000000000000000e+00
  4068b8:	1e612010 	fcmpe	d0, d1
  4068bc:	54000d04 	b.mi	406a5c <update_status+0x34c>  // b.first
  4068c0:	90000020 	adrp	x0, 40a000 <__dso_handle+0x858>
  4068c4:	91072000 	add	x0, x0, #0x1c8
  4068c8:	f90057e0 	str	x0, [sp, #168]
  4068cc:	f941d662 	ldr	x2, [x19, #936]
  4068d0:	b4000162 	cbz	x2, 4068fc <update_status+0x1ec>
  4068d4:	f941de61 	ldr	x1, [x19, #952]
  4068d8:	8b020c25 	add	x5, x1, x2, lsl #3
  4068dc:	d2800002 	mov	x2, #0x0                   	// #0
  4068e0:	f8408420 	ldr	x0, [x1], #8
  4068e4:	a9538c04 	ldp	x4, x3, [x0, #312]
  4068e8:	f9409880 	ldr	x0, [x4, #304]
  4068ec:	8b030000 	add	x0, x0, x3
  4068f0:	8b000042 	add	x2, x2, x0
  4068f4:	eb05003f 	cmp	x1, x5
  4068f8:	54ffff41 	b.ne	4068e0 <update_status+0x1d0>  // b.any
  4068fc:	f9422261 	ldr	x1, [x19, #1088]
  406900:	a9098be1 	stp	x1, x2, [sp, #152]
  406904:	d00000dc 	adrp	x28, 420000 <fputs@GLIBC_2.17>
  406908:	f9422660 	ldr	x0, [x19, #1096]
  40690c:	97ffefad 	bl	4027c0 <sox_effects_clips@plt>
  406910:	a9498be1 	ldp	x1, x2, [sp, #152]
  406914:	8b020000 	add	x0, x0, x2
  406918:	8b010000 	add	x0, x0, x1
  40691c:	9e630000 	ucvtf	d0, x0
  406920:	97ffef9c 	bl	402790 <lsx_sigfigs3@plt>
  406924:	f9000be0 	str	x0, [sp, #16]
  406928:	f94057e1 	ldr	x1, [sp, #168]
  40692c:	a90007fb 	stp	x27, x1, [sp]
  406930:	aa1a03e7 	mov	x7, x26
  406934:	aa1403e1 	mov	x1, x20
  406938:	aa1903e6 	mov	x6, x25
  40693c:	aa1803e5 	mov	x5, x24
  406940:	aa1703e4 	mov	x4, x23
  406944:	aa1603e3 	mov	x3, x22
  406948:	910523e0 	add	x0, sp, #0x148
  40694c:	90000022 	adrp	x2, 40a000 <__dso_handle+0x858>
  406950:	91078042 	add	x2, x2, #0x1e0
  406954:	97ffef87 	bl	402770 <snprintf@plt>
  406958:	f9425381 	ldr	x1, [x28, #1184]
  40695c:	910523e0 	add	x0, sp, #0x148
  406960:	97ffee64 	bl	4022f0 <fputs@plt>
  406964:	35000715 	cbnz	w21, 406a44 <update_status+0x334>
  406968:	a9466bf9 	ldp	x25, x26, [sp, #96]
  40696c:	6d4827e8 	ldp	d8, d9, [sp, #128]
  406970:	b943f660 	ldr	w0, [x19, #1012]
  406974:	350002a0 	cbnz	w0, 4069c8 <update_status+0x2b8>
  406978:	b9445260 	ldr	w0, [x19, #1104]
  40697c:	7100001f 	cmp	w0, #0x0
  406980:	5a9f03e0 	csetm	w0, ne  // ne = any
  406984:	b00000c1 	adrp	x1, 41f000 <__FRAME_END__+0x11414>
  406988:	f940e7e3 	ldr	x3, [sp, #456]
  40698c:	f946e022 	ldr	x2, [x1, #3520]
  406990:	eb020063 	subs	x3, x3, x2
  406994:	d2800002 	mov	x2, #0x0                   	// #0
  406998:	54000821 	b.ne	406a9c <update_status+0x38c>  // b.any
  40699c:	a9427bfd 	ldp	x29, x30, [sp, #32]
  4069a0:	a94353f3 	ldp	x19, x20, [sp, #48]
  4069a4:	a9445bf5 	ldp	x21, x22, [sp, #64]
  4069a8:	a94563f7 	ldp	x23, x24, [sp, #80]
  4069ac:	a94773fb 	ldp	x27, x28, [sp, #112]
  4069b0:	910743ff 	add	sp, sp, #0x1d0
  4069b4:	d65f03c0 	ret
  4069b8:	b943f675 	ldr	w21, [x19, #1012]
  4069bc:	34000255 	cbz	w21, 406a04 <update_status+0x2f4>
  4069c0:	52800035 	mov	w21, #0x1                   	// #1
  4069c4:	35fff320 	cbnz	w0, 406828 <update_status+0x118>
  4069c8:	12800000 	mov	w0, #0xffffffff            	// #-1
  4069cc:	17ffffee 	b	406984 <update_status+0x274>
  4069d0:	9e630002 	ucvtf	d2, x0
  4069d4:	d2e80b20 	mov	x0, #0x4059000000000000    	// #4636737291354636288
  4069d8:	9e670003 	fmov	d3, x0
  4069dc:	2f00e404 	movi	d4, #0x0
  4069e0:	1e630800 	fmul	d0, d0, d3
  4069e4:	1e611841 	fdiv	d1, d2, d1
  4069e8:	1e621800 	fdiv	d0, d0, d2
  4069ec:	1e693828 	fsub	d8, d1, d9
  4069f0:	1e642110 	fcmpe	d8, d4
  4069f4:	1e64ad08 	fcsel	d8, d8, d4, ge  // ge = tcont
  4069f8:	1e642010 	fcmpe	d0, d4
  4069fc:	1e64ac00 	fcsel	d0, d0, d4, ge  // ge = tcont
  406a00:	17ffff94 	b	406850 <update_status+0x140>
  406a04:	34fffba0 	cbz	w0, 406978 <update_status+0x268>
  406a08:	d0000020 	adrp	x0, 40c000 <__dso_handle+0x2858>
  406a0c:	52800001 	mov	w1, #0x0                   	// #0
  406a10:	fd47f000 	ldr	d0, [x0, #4064]
  406a14:	910fe260 	add	x0, x19, #0x3f8
  406a18:	97fffec3 	bl	406524 <since>
  406a1c:	34fffae0 	cbz	w0, 406978 <update_status+0x268>
  406a20:	fd420660 	ldr	d0, [x19, #1032]
  406a24:	a9066bf9 	stp	x25, x26, [sp, #96]
  406a28:	fd420a61 	ldr	d1, [x19, #1040]
  406a2c:	f9421a60 	ldr	x0, [x19, #1072]
  406a30:	7e61d800 	ucvtf	d0, d0
  406a34:	6d0827e8 	stp	d8, d9, [sp, #128]
  406a38:	1e611809 	fdiv	d9, d0, d1
  406a3c:	b4fff060 	cbz	x0, 406848 <update_status+0x138>
  406a40:	17ffffe4 	b	4069d0 <update_status+0x2c0>
  406a44:	f9425381 	ldr	x1, [x28, #1184]
  406a48:	52800140 	mov	w0, #0xa                   	// #10
  406a4c:	97ffef29 	bl	4026f0 <fputc@plt>
  406a50:	a9466bf9 	ldp	x25, x26, [sp, #96]
  406a54:	6d4827e8 	ldp	d8, d9, [sp, #128]
  406a58:	17ffffc6 	b	406970 <update_status+0x260>
  406a5c:	1e649001 	fmov	d1, #1.000000000000000000e+01
  406a60:	529999a3 	mov	w3, #0xcccd                	// #52429
  406a64:	72b99983 	movk	w3, #0xcccc, lsl #16
  406a68:	910f8260 	add	x0, x19, #0x3e0
  406a6c:	1e610800 	fmul	d0, d0, d1
  406a70:	90000022 	adrp	x2, 40a000 <__dso_handle+0x858>
  406a74:	d2800201 	mov	x1, #0x10                  	// #16
  406a78:	91074042 	add	x2, x2, #0x1d0
  406a7c:	f90057e0 	str	x0, [sp, #168]
  406a80:	1e790005 	fcvtzu	w5, d0
  406a84:	9ba37ca3 	umull	x3, w5, w3
  406a88:	d363fc63 	lsr	x3, x3, #35
  406a8c:	0b030864 	add	w4, w3, w3, lsl #2
  406a90:	4b0404a4 	sub	w4, w5, w4, lsl #1
  406a94:	97ffef37 	bl	402770 <snprintf@plt>
  406a98:	17ffff8d 	b	4068cc <update_status+0x1bc>
  406a9c:	a9066bf9 	stp	x25, x26, [sp, #96]
  406aa0:	6d0827e8 	stp	d8, d9, [sp, #128]
  406aa4:	97ffee57 	bl	402400 <__stack_chk_fail@plt>
  406aa8:	d503201f 	nop
  406aac:	d503201f 	nop

0000000000406ab0 <add_effect>:
  406ab0:	a9ba7bfd 	stp	x29, x30, [sp, #-96]!
  406ab4:	b00000c5 	adrp	x5, 41f000 <__FRAME_END__+0x11414>
  406ab8:	910003fd 	mov	x29, sp
  406abc:	a90153f3 	stp	x19, x20, [sp, #16]
  406ac0:	aa0403f4 	mov	x20, x4
  406ac4:	913700a4 	add	x4, x5, #0xdc0
  406ac8:	a9025bf5 	stp	x21, x22, [sp, #32]
  406acc:	aa0103f3 	mov	x19, x1
  406ad0:	aa0203f5 	mov	x21, x2
  406ad4:	f9001bf7 	str	x23, [sp, #48]
  406ad8:	aa0003f6 	mov	x22, x0
  406adc:	aa0303f7 	mov	x23, x3
  406ae0:	f9400085 	ldr	x5, [x4]
  406ae4:	f9002fe5 	str	x5, [sp, #88]
  406ae8:	d2800005 	mov	x5, #0x0                   	// #0
  406aec:	b9400284 	ldr	w4, [x20]
  406af0:	12800005 	mov	w5, #0xffffffff            	// #-1
  406af4:	b9004fe5 	str	w5, [sp, #76]
  406af8:	7100049f 	cmp	w4, #0x1
  406afc:	54000260 	b.eq	406b48 <add_effect+0x98>  // b.none
  406b00:	7100089f 	cmp	w4, #0x2
  406b04:	54000620 	b.eq	406bc8 <add_effect+0x118>  // b.none
  406b08:	34000404 	cbz	w4, 406b88 <add_effect+0xd8>
  406b0c:	b00000c1 	adrp	x1, 41f000 <__FRAME_END__+0x11414>
  406b10:	f9402fe0 	ldr	x0, [sp, #88]
  406b14:	f946e022 	ldr	x2, [x1, #3520]
  406b18:	eb020000 	subs	x0, x0, x2
  406b1c:	d2800002 	mov	x2, #0x0                   	// #0
  406b20:	540006a1 	b.ne	406bf4 <add_effect+0x144>  // b.any
  406b24:	aa1703e3 	mov	x3, x23
  406b28:	aa1503e2 	mov	x2, x21
  406b2c:	aa1303e1 	mov	x1, x19
  406b30:	aa1603e0 	mov	x0, x22
  406b34:	a94153f3 	ldp	x19, x20, [sp, #16]
  406b38:	a9425bf5 	ldp	x21, x22, [sp, #32]
  406b3c:	f9401bf7 	ldr	x23, [sp, #48]
  406b40:	a8c67bfd 	ldp	x29, x30, [sp], #96
  406b44:	17ffee3b 	b	402430 <sox_add_effect@plt>
  406b48:	b9406821 	ldr	w1, [x1, #104]
  406b4c:	363ffe01 	tbz	w1, #7, 406b0c <add_effect+0x5c>
  406b50:	90000026 	adrp	x6, 40a000 <__dso_handle+0x858>
  406b54:	9108a0c6 	add	x6, x6, #0x228
  406b58:	2a0403e2 	mov	w2, w4
  406b5c:	910133e5 	add	x5, sp, #0x4c
  406b60:	aa1503e4 	mov	x4, x21
  406b64:	910143e3 	add	x3, sp, #0x50
  406b68:	90000021 	adrp	x1, 40a000 <__dso_handle+0x858>
  406b6c:	91088021 	add	x1, x1, #0x220
  406b70:	f9002be6 	str	x6, [sp, #80]
  406b74:	94000023 	bl	406c00 <auto_effect>
  406b78:	b9400280 	ldr	w0, [x20]
  406b7c:	51000400 	sub	w0, w0, #0x1
  406b80:	b9000280 	str	w0, [x20]
  406b84:	17ffffe2 	b	406b0c <add_effect+0x5c>
  406b88:	b9406821 	ldr	w1, [x1, #104]
  406b8c:	373ffc01 	tbnz	w1, #7, 406b0c <add_effect+0x5c>
  406b90:	90000026 	adrp	x6, 40a000 <__dso_handle+0x858>
  406b94:	910860c6 	add	x6, x6, #0x218
  406b98:	aa0203e4 	mov	x4, x2
  406b9c:	910133e5 	add	x5, sp, #0x4c
  406ba0:	910143e3 	add	x3, sp, #0x50
  406ba4:	90000021 	adrp	x1, 40a000 <__dso_handle+0x858>
  406ba8:	52800022 	mov	w2, #0x1                   	// #1
  406bac:	91088021 	add	x1, x1, #0x220
  406bb0:	f9002be6 	str	x6, [sp, #80]
  406bb4:	94000013 	bl	406c00 <auto_effect>
  406bb8:	b9400280 	ldr	w0, [x20]
  406bbc:	11000400 	add	w0, w0, #0x1
  406bc0:	b9000280 	str	w0, [x20]
  406bc4:	17ffffd2 	b	406b0c <add_effect+0x5c>
  406bc8:	b9406820 	ldr	w0, [x1, #104]
  406bcc:	3747fa00 	tbnz	w0, #8, 406b0c <add_effect+0x5c>
  406bd0:	97ffeed0 	bl	402710 <sox_get_globals@plt>
  406bd4:	f9402e61 	ldr	x1, [x19, #88]
  406bd8:	f0000002 	adrp	x2, 409000 <combiner_drain+0x44c>
  406bdc:	91288042 	add	x2, x2, #0xa20
  406be0:	f9002002 	str	x2, [x0, #64]
  406be4:	90000020 	adrp	x0, 40a000 <__dso_handle+0x858>
  406be8:	9108c000 	add	x0, x0, #0x230
  406bec:	97ffee29 	bl	402490 <lsx_warn_impl@plt>
  406bf0:	17ffffc7 	b	406b0c <add_effect+0x5c>
  406bf4:	97ffee03 	bl	402400 <__stack_chk_fail@plt>
  406bf8:	d503201f 	nop
  406bfc:	d503201f 	nop

0000000000406c00 <auto_effect>:
  406c00:	a9bc7bfd 	stp	x29, x30, [sp, #-64]!
  406c04:	910003fd 	mov	x29, sp
  406c08:	a90153f3 	stp	x19, x20, [sp, #16]
  406c0c:	2a0203f4 	mov	w20, w2
  406c10:	a9025bf5 	stp	x21, x22, [sp, #32]
  406c14:	aa0303f5 	mov	x21, x3
  406c18:	aa0003f6 	mov	x22, x0
  406c1c:	aa0103e0 	mov	x0, x1
  406c20:	a90363f7 	stp	x23, x24, [sp, #48]
  406c24:	aa0403f7 	mov	x23, x4
  406c28:	aa0503f8 	mov	x24, x5
  406c2c:	97ffee45 	bl	402540 <sox_find_effect@plt>
  406c30:	97ffee98 	bl	402690 <sox_create_effect@plt>
  406c34:	aa0003f3 	mov	x19, x0
  406c38:	aa1503e2 	mov	x2, x21
  406c3c:	2a1403e1 	mov	w1, w20
  406c40:	97ffeed8 	bl	4027a0 <sox_effect_options@plt>
  406c44:	3100041f 	cmn	w0, #0x1
  406c48:	540002a0 	b.eq	406c9c <auto_effect+0x9c>  // b.none
  406c4c:	d00000c3 	adrp	x3, 420000 <fputs@GLIBC_2.17>
  406c50:	9112c063 	add	x3, x3, #0x4b0
  406c54:	aa1803e4 	mov	x4, x24
  406c58:	aa1703e2 	mov	x2, x23
  406c5c:	aa1603e0 	mov	x0, x22
  406c60:	aa1303e1 	mov	x1, x19
  406c64:	f941d465 	ldr	x5, [x3, #936]
  406c68:	f941dc63 	ldr	x3, [x3, #952]
  406c6c:	8b050c63 	add	x3, x3, x5, lsl #3
  406c70:	f85f8063 	ldur	x3, [x3, #-8]
  406c74:	f9409c63 	ldr	x3, [x3, #312]
  406c78:	91002063 	add	x3, x3, #0x8
  406c7c:	97ffff8d 	bl	406ab0 <add_effect>
  406c80:	35000120 	cbnz	w0, 406ca4 <auto_effect+0xa4>
  406c84:	aa1303e0 	mov	x0, x19
  406c88:	a94153f3 	ldp	x19, x20, [sp, #16]
  406c8c:	a9425bf5 	ldp	x21, x22, [sp, #32]
  406c90:	a94363f7 	ldp	x23, x24, [sp, #48]
  406c94:	a8c47bfd 	ldp	x29, x30, [sp], #64
  406c98:	17ffee0a 	b	4024c0 <free@plt>
  406c9c:	52800020 	mov	w0, #0x1                   	// #1
  406ca0:	97ffef20 	bl	402920 <exit@plt>
  406ca4:	52800040 	mov	w0, #0x2                   	// #2
  406ca8:	97ffef1e 	bl	402920 <exit@plt>
  406cac:	d503201f 	nop

0000000000406cb0 <output_flow>:
  406cb0:	a9bd7bfd 	stp	x29, x30, [sp, #-48]!
  406cb4:	d00000c2 	adrp	x2, 420000 <fputs@GLIBC_2.17>
  406cb8:	910003fd 	mov	x29, sp
  406cbc:	b943d842 	ldr	w2, [x2, #984]
  406cc0:	a90153f3 	stp	x19, x20, [sp, #16]
  406cc4:	aa0303f4 	mov	x20, x3
  406cc8:	f90013f5 	str	x21, [sp, #32]
  406ccc:	340004c2 	cbz	w2, 406d64 <output_flow+0xb4>
  406cd0:	f940006a 	ldr	x10, [x3]
  406cd4:	b400048a 	cbz	x10, 406d64 <output_flow+0xb4>
  406cd8:	d00000d3 	adrp	x19, 420000 <fputs@GLIBC_2.17>
  406cdc:	9112c273 	add	x19, x19, #0x4b0
  406ce0:	b940100b 	ldr	w11, [x0, #16]
  406ce4:	91001029 	add	x9, x1, #0x4
  406ce8:	d2800000 	mov	x0, #0x0                   	// #0
  406cec:	b943c265 	ldr	w5, [x19, #960]
  406cf0:	2a0b03e3 	mov	w3, w11
  406cf4:	b943ca62 	ldr	w2, [x19, #968]
  406cf8:	1400000e 	b	406d30 <output_flow+0x80>
  406cfc:	b8607928 	ldr	w8, [x9, x0, lsl #2]
  406d00:	b943c667 	ldr	w7, [x19, #964]
  406d04:	b943ce66 	ldr	w6, [x19, #972]
  406d08:	6b0800ff 	cmp	w7, w8
  406d0c:	1a88a0e7 	csel	w7, w7, w8, ge  // ge = tcont
  406d10:	b903c667 	str	w7, [x19, #964]
  406d14:	b8607927 	ldr	w7, [x9, x0, lsl #2]
  406d18:	6b0700df 	cmp	w6, w7
  406d1c:	1a87d0c6 	csel	w6, w6, w7, le
  406d20:	8b030000 	add	x0, x0, x3
  406d24:	b903ce66 	str	w6, [x19, #972]
  406d28:	eb0a001f 	cmp	x0, x10
  406d2c:	54000202 	b.cs	406d6c <output_flow+0xbc>  // b.hs, b.nlast
  406d30:	b8607826 	ldr	w6, [x1, x0, lsl #2]
  406d34:	6b0600bf 	cmp	w5, w6
  406d38:	1a86a0a5 	csel	w5, w5, w6, ge  // ge = tcont
  406d3c:	b903c265 	str	w5, [x19, #960]
  406d40:	b8607826 	ldr	w6, [x1, x0, lsl #2]
  406d44:	6b06005f 	cmp	w2, w6
  406d48:	1a86d042 	csel	w2, w2, w6, le
  406d4c:	b903ca62 	str	w2, [x19, #968]
  406d50:	2a0203e6 	mov	w6, w2
  406d54:	7100057f 	cmp	w11, #0x1
  406d58:	54fffd28 	b.hi	406cfc <output_flow+0x4c>  // b.pmore
  406d5c:	b903c665 	str	w5, [x19, #964]
  406d60:	17fffff0 	b	406d20 <output_flow+0x70>
  406d64:	d00000d3 	adrp	x19, 420000 <fputs@GLIBC_2.17>
  406d68:	9112c273 	add	x19, x19, #0x4b0
  406d6c:	f900009f 	str	xzr, [x4]
  406d70:	f9400282 	ldr	x2, [x20]
  406d74:	b50002c2 	cbnz	x2, 406dcc <output_flow+0x11c>
  406d78:	d2800001 	mov	x1, #0x0                   	// #0
  406d7c:	f941d660 	ldr	x0, [x19, #936]
  406d80:	eb01005f 	cmp	x2, x1
  406d84:	f941de63 	ldr	x3, [x19, #952]
  406d88:	1a9f07e4 	cset	w4, ne  // ne = any
  406d8c:	f9421e61 	ldr	x1, [x19, #1080]
  406d90:	b9045664 	str	w4, [x19, #1108]
  406d94:	8b000c60 	add	x0, x3, x0, lsl #3
  406d98:	52800015 	mov	w21, #0x0                   	// #0
  406d9c:	f85f8000 	ldur	x0, [x0, #-8]
  406da0:	f9409c14 	ldr	x20, [x0, #312]
  406da4:	b9401280 	ldr	w0, [x20, #16]
  406da8:	9ac00842 	udiv	x2, x2, x0
  406dac:	8b010042 	add	x2, x2, x1
  406db0:	f9021e62 	str	x2, [x19, #1080]
  406db4:	540001e1 	b.ne	406df0 <output_flow+0x140>  // b.any
  406db8:	2a1503e0 	mov	w0, w21
  406dbc:	a94153f3 	ldp	x19, x20, [sp, #16]
  406dc0:	f94013f5 	ldr	x21, [sp, #32]
  406dc4:	a8c37bfd 	ldp	x29, x30, [sp], #48
  406dc8:	d65f03c0 	ret
  406dcc:	f941d660 	ldr	x0, [x19, #936]
  406dd0:	f941de63 	ldr	x3, [x19, #952]
  406dd4:	8b000c60 	add	x0, x3, x0, lsl #3
  406dd8:	f85f8000 	ldur	x0, [x0, #-8]
  406ddc:	f9409c00 	ldr	x0, [x0, #312]
  406de0:	97ffee08 	bl	402600 <sox_write@plt>
  406de4:	aa0003e2 	mov	x2, x0
  406de8:	f9400281 	ldr	x1, [x20]
  406dec:	17ffffe4 	b	406d7c <output_flow+0xcc>
  406df0:	b9413a93 	ldr	w19, [x20, #312]
  406df4:	12800015 	mov	w21, #0xffffffff            	// #-1
  406df8:	34fffe13 	cbz	w19, 406db8 <output_flow+0x108>
  406dfc:	97ffee45 	bl	402710 <sox_get_globals@plt>
  406e00:	aa0003e2 	mov	x2, x0
  406e04:	f0000001 	adrp	x1, 409000 <combiner_drain+0x44c>
  406e08:	91288021 	add	x1, x1, #0xa20
  406e0c:	2a1303e0 	mov	w0, w19
  406e10:	f9002041 	str	x1, [x2, #64]
  406e14:	97ffedf7 	bl	4025f0 <sox_strerror@plt>
  406e18:	aa0003e3 	mov	x3, x0
  406e1c:	f9400281 	ldr	x1, [x20]
  406e20:	9104f282 	add	x2, x20, #0x13c
  406e24:	90000020 	adrp	x0, 40a000 <__dso_handle+0x858>
  406e28:	9109a000 	add	x0, x0, #0x268
  406e2c:	97ffed85 	bl	402440 <lsx_fail_impl@plt>
  406e30:	17ffffe2 	b	406db8 <output_flow+0x108>

0000000000406e34 <get_termwidth>:
  406e34:	a9be7bfd 	stp	x29, x30, [sp, #-32]!
  406e38:	b00000c0 	adrp	x0, 41f000 <__FRAME_END__+0x11414>
  406e3c:	91370000 	add	x0, x0, #0xdc0
  406e40:	910003fd 	mov	x29, sp
  406e44:	f9400001 	ldr	x1, [x0]
  406e48:	f9000fe1 	str	x1, [sp, #24]
  406e4c:	d2800001 	mov	x1, #0x0                   	// #0
  406e50:	910043e2 	add	x2, sp, #0x10
  406e54:	d28a8261 	mov	x1, #0x5413                	// #21523
  406e58:	52800040 	mov	w0, #0x2                   	// #2
  406e5c:	97ffedf1 	bl	402620 <ioctl@plt>
  406e60:	35000080 	cbnz	w0, 406e70 <get_termwidth+0x3c>
  406e64:	d00000c0 	adrp	x0, 420000 <fputs@GLIBC_2.17>
  406e68:	794027e1 	ldrh	w1, [sp, #18]
  406e6c:	b903dc01 	str	w1, [x0, #988]
  406e70:	b00000c0 	adrp	x0, 41f000 <__FRAME_END__+0x11414>
  406e74:	f9400fe2 	ldr	x2, [sp, #24]
  406e78:	f946e001 	ldr	x1, [x0, #3520]
  406e7c:	eb010042 	subs	x2, x2, x1
  406e80:	d2800001 	mov	x1, #0x0                   	// #0
  406e84:	54000061 	b.ne	406e90 <get_termwidth+0x5c>  // b.any
  406e88:	a8c27bfd 	ldp	x29, x30, [sp], #32
  406e8c:	d65f03c0 	ret
  406e90:	97ffed5c 	bl	402400 <__stack_chk_fail@plt>

0000000000406e94 <cleanup>:
  406e94:	a9b37bfd 	stp	x29, x30, [sp, #-208]!
  406e98:	b00000c0 	adrp	x0, 41f000 <__FRAME_END__+0x11414>
  406e9c:	91370000 	add	x0, x0, #0xdc0
  406ea0:	910003fd 	mov	x29, sp
  406ea4:	a90153f3 	stp	x19, x20, [sp, #16]
  406ea8:	a9025bf5 	stp	x21, x22, [sp, #32]
  406eac:	d00000d5 	adrp	x21, 420000 <fputs@GLIBC_2.17>
  406eb0:	9112c2b5 	add	x21, x21, #0x4b0
  406eb4:	f9400001 	ldr	x1, [x0]
  406eb8:	f90067e1 	str	x1, [sp, #200]
  406ebc:	d2800001 	mov	x1, #0x0                   	// #0
  406ec0:	b9445ea1 	ldr	w1, [x21, #1116]
  406ec4:	b9445aa0 	ldr	w0, [x21, #1112]
  406ec8:	2a010000 	orr	w0, w0, w1
  406ecc:	34000c80 	cbz	w0, 40705c <cleanup+0x1c8>
  406ed0:	f941a6a0 	ldr	x0, [x21, #840]
  406ed4:	f941deb4 	ldr	x20, [x21, #952]
  406ed8:	b40002c0 	cbz	x0, 406f30 <cleanup+0x9c>
  406edc:	d2800013 	mov	x19, #0x0                   	// #0
  406ee0:	f9001bf7 	str	x23, [sp, #48]
  406ee4:	d503201f 	nop
  406ee8:	f8737a81 	ldr	x1, [x20, x19, lsl #3]
  406eec:	d37df277 	lsl	x23, x19, #3
  406ef0:	8b170296 	add	x22, x20, x23
  406ef4:	f9409c20 	ldr	x0, [x1, #312]
  406ef8:	b40000a0 	cbz	x0, 406f0c <cleanup+0x78>
  406efc:	97ffeddd 	bl	402670 <sox_close@plt>
  406f00:	f941deb4 	ldr	x20, [x21, #952]
  406f04:	8b170296 	add	x22, x20, x23
  406f08:	f8737a81 	ldr	x1, [x20, x19, lsl #3]
  406f0c:	91000673 	add	x19, x19, #0x1
  406f10:	f9400020 	ldr	x0, [x1]
  406f14:	97ffed6b 	bl	4024c0 <free@plt>
  406f18:	f94002c0 	ldr	x0, [x22]
  406f1c:	97ffed69 	bl	4024c0 <free@plt>
  406f20:	f941a6a0 	ldr	x0, [x21, #840]
  406f24:	eb13001f 	cmp	x0, x19
  406f28:	54fffe08 	b.hi	406ee8 <cleanup+0x54>  // b.pmore
  406f2c:	f9401bf7 	ldr	x23, [sp, #48]
  406f30:	f941d6a0 	ldr	x0, [x21, #936]
  406f34:	b4000480 	cbz	x0, 406fc4 <cleanup+0x130>
  406f38:	d37df000 	lsl	x0, x0, #3
  406f3c:	d1002000 	sub	x0, x0, #0x8
  406f40:	8b000293 	add	x19, x20, x0
  406f44:	f8606a81 	ldr	x1, [x20, x0]
  406f48:	f9409c20 	ldr	x0, [x1, #312]
  406f4c:	b4000340 	cbz	x0, 406fb4 <cleanup+0x120>
  406f50:	b9445aa1 	ldr	w1, [x21, #1112]
  406f54:	35000221 	cbnz	w1, 406f98 <cleanup+0x104>
  406f58:	b9424801 	ldr	w1, [x0, #584]
  406f5c:	350001e1 	cbnz	w1, 406f98 <cleanup+0x104>
  406f60:	f9400000 	ldr	x0, [x0]
  406f64:	910123e1 	add	x1, sp, #0x48
  406f68:	97ffedc6 	bl	402680 <stat@plt>
  406f6c:	35000120 	cbnz	w0, 406f90 <cleanup+0xfc>
  406f70:	b9405be0 	ldr	w0, [sp, #88]
  406f74:	12140c00 	and	w0, w0, #0xf000
  406f78:	7140201f 	cmp	w0, #0x8, lsl #12
  406f7c:	540000a1 	b.ne	406f90 <cleanup+0xfc>  // b.any
  406f80:	f9400260 	ldr	x0, [x19]
  406f84:	f9409c00 	ldr	x0, [x0, #312]
  406f88:	f9400000 	ldr	x0, [x0]
  406f8c:	97ffedb1 	bl	402650 <unlink@plt>
  406f90:	f9400260 	ldr	x0, [x19]
  406f94:	f9409c00 	ldr	x0, [x0, #312]
  406f98:	97ffedb6 	bl	402670 <sox_close@plt>
  406f9c:	f941d6a0 	ldr	x0, [x21, #936]
  406fa0:	f941deb4 	ldr	x20, [x21, #952]
  406fa4:	d37df000 	lsl	x0, x0, #3
  406fa8:	d1002000 	sub	x0, x0, #0x8
  406fac:	8b000293 	add	x19, x20, x0
  406fb0:	f8606a81 	ldr	x1, [x20, x0]
  406fb4:	f9400020 	ldr	x0, [x1]
  406fb8:	97ffed42 	bl	4024c0 <free@plt>
  406fbc:	f9400260 	ldr	x0, [x19]
  406fc0:	97ffed40 	bl	4024c0 <free@plt>
  406fc4:	aa1403e0 	mov	x0, x20
  406fc8:	97ffed3e 	bl	4024c0 <free@plt>
  406fcc:	b94462a0 	ldr	w0, [x21, #1120]
  406fd0:	35000380 	cbnz	w0, 407040 <cleanup+0x1ac>
  406fd4:	f94256a0 	ldr	x0, [x21, #1192]
  406fd8:	97ffed3a 	bl	4024c0 <free@plt>
  406fdc:	97ffedcd 	bl	402710 <sox_get_globals@plt>
  406fe0:	f9402400 	ldr	x0, [x0, #72]
  406fe4:	97ffed37 	bl	4024c0 <free@plt>
  406fe8:	97ffedca 	bl	402710 <sox_get_globals@plt>
  406fec:	aa0003e1 	mov	x1, x0
  406ff0:	f9425aa0 	ldr	x0, [x21, #1200]
  406ff4:	f900243f 	str	xzr, [x1, #72]
  406ff8:	97ffed32 	bl	4024c0 <free@plt>
  406ffc:	f9425ea0 	ldr	x0, [x21, #1208]
  407000:	97ffed30 	bl	4024c0 <free@plt>
  407004:	f94262a0 	ldr	x0, [x21, #1216]
  407008:	97ffed2e 	bl	4024c0 <free@plt>
  40700c:	97ffed1d 	bl	402480 <sox_quit@plt>
  407010:	52800020 	mov	w0, #0x1                   	// #1
  407014:	b904caa0 	str	w0, [x21, #1224]
  407018:	900000c0 	adrp	x0, 41f000 <__FRAME_END__+0x11414>
  40701c:	f94067e2 	ldr	x2, [sp, #200]
  407020:	f946e001 	ldr	x1, [x0, #3520]
  407024:	eb010042 	subs	x2, x2, x1
  407028:	d2800001 	mov	x1, #0x0                   	// #0
  40702c:	54000381 	b.ne	40709c <cleanup+0x208>  // b.any
  407030:	a94153f3 	ldp	x19, x20, [sp, #16]
  407034:	a9425bf5 	ldp	x21, x22, [sp, #32]
  407038:	a8cd7bfd 	ldp	x29, x30, [sp], #208
  40703c:	d65f03c0 	ret
  407040:	b00000c0 	adrp	x0, 420000 <fputs@GLIBC_2.17>
  407044:	f9424800 	ldr	x0, [x0, #1168]
  407048:	97ffecf2 	bl	402410 <fileno@plt>
  40704c:	9111a2a2 	add	x2, x21, #0x468
  407050:	52800001 	mov	w1, #0x0                   	// #0
  407054:	97ffee2f 	bl	402910 <tcsetattr@plt>
  407058:	17ffffdf 	b	406fd4 <cleanup+0x140>
  40705c:	f0000000 	adrp	x0, 40a000 <__dso_handle+0x858>
  407060:	9109e000 	add	x0, x0, #0x278
  407064:	97ffee23 	bl	4028f0 <getenv@plt>
  407068:	aa0003f3 	mov	x19, x0
  40706c:	b4fff320 	cbz	x0, 406ed0 <cleanup+0x3c>
  407070:	39400000 	ldrb	w0, [x0]
  407074:	34fff2e0 	cbz	w0, 406ed0 <cleanup+0x3c>
  407078:	97ffeda6 	bl	402710 <sox_get_globals@plt>
  40707c:	d0000002 	adrp	x2, 409000 <combiner_drain+0x44c>
  407080:	91288042 	add	x2, x2, #0xa20
  407084:	f0000003 	adrp	x3, 40a000 <__dso_handle+0x858>
  407088:	f9002002 	str	x2, [x0, #64]
  40708c:	aa1303e1 	mov	x1, x19
  407090:	910a2060 	add	x0, x3, #0x288
  407094:	97ffedaf 	bl	402750 <lsx_report_impl@plt>
  407098:	17ffff8e 	b	406ed0 <cleanup+0x3c>
  40709c:	f9001bf7 	str	x23, [sp, #48]
  4070a0:	97ffecd8 	bl	402400 <__stack_chk_fail@plt>

00000000004070a4 <atexit_cleanup>:
  4070a4:	b00000c0 	adrp	x0, 420000 <fputs@GLIBC_2.17>
  4070a8:	b9497800 	ldr	w0, [x0, #2424]
  4070ac:	34000040 	cbz	w0, 4070b4 <atexit_cleanup+0x10>
  4070b0:	d65f03c0 	ret
  4070b4:	17ffff78 	b	406e94 <cleanup>
  4070b8:	d503201f 	nop
  4070bc:	d503201f 	nop

00000000004070c0 <enum_option>:
  4070c0:	a9bc7bfd 	stp	x29, x30, [sp, #-64]!
  4070c4:	910003fd 	mov	x29, sp
  4070c8:	a90153f3 	stp	x19, x20, [sp, #16]
  4070cc:	aa0203f3 	mov	x19, x2
  4070d0:	aa0003f4 	mov	x20, x0
  4070d4:	a9025bf5 	stp	x21, x22, [sp, #32]
  4070d8:	2a0103f5 	mov	w21, w1
  4070dc:	aa0203e1 	mov	x1, x2
  4070e0:	52800002 	mov	w2, #0x0                   	// #0
  4070e4:	97ffecaf 	bl	4023a0 <lsx_find_enum_text@plt>
  4070e8:	b40000c0 	cbz	x0, 407100 <enum_option+0x40>
  4070ec:	b9400800 	ldr	w0, [x0, #8]
  4070f0:	a94153f3 	ldp	x19, x20, [sp, #16]
  4070f4:	a9425bf5 	ldp	x21, x22, [sp, #32]
  4070f8:	a8c47bfd 	ldp	x29, x30, [sp], #64
  4070fc:	d65f03c0 	ret
  407100:	d2800020 	mov	x0, #0x1                   	// #1
  407104:	a90363f7 	stp	x23, x24, [sp, #48]
  407108:	97ffedba 	bl	4027f0 <lsx_malloc@plt>
  40710c:	3900001f 	strb	wzr, [x0]
  407110:	aa0003f6 	mov	x22, x0
  407114:	f9400260 	ldr	x0, [x19]
  407118:	b4000320 	cbz	x0, 40717c <enum_option+0xbc>
  40711c:	f0000018 	adrp	x24, 40a000 <__dso_handle+0x858>
  407120:	910a8318 	add	x24, x24, #0x2a0
  407124:	d2800037 	mov	x23, #0x1                   	// #1
  407128:	97ffeca6 	bl	4023c0 <strlen@plt>
  40712c:	aa0003e1 	mov	x1, x0
  407130:	91000821 	add	x1, x1, #0x2
  407134:	aa1603e0 	mov	x0, x22
  407138:	8b0102f7 	add	x23, x23, x1
  40713c:	aa1703e1 	mov	x1, x23
  407140:	97ffec84 	bl	402350 <lsx_realloc@plt>
  407144:	aa0003f6 	mov	x22, x0
  407148:	97ffec9e 	bl	4023c0 <strlen@plt>
  40714c:	aa0003e1 	mov	x1, x0
  407150:	8b0002c2 	add	x2, x22, x0
  407154:	79400304 	ldrh	w4, [x24]
  407158:	39400b03 	ldrb	w3, [x24, #2]
  40715c:	91000800 	add	x0, x0, #0x2
  407160:	78216ac4 	strh	w4, [x22, x1]
  407164:	8b0002c0 	add	x0, x22, x0
  407168:	39000843 	strb	w3, [x2, #2]
  40716c:	f9400261 	ldr	x1, [x19]
  407170:	97ffed08 	bl	402590 <strcpy@plt>
  407174:	f8410e60 	ldr	x0, [x19, #16]!
  407178:	b5fffd80 	cbnz	x0, 407128 <enum_option+0x68>
  40717c:	97ffed65 	bl	402710 <sox_get_globals@plt>
  407180:	b0000024 	adrp	x4, 40c000 <__dso_handle+0x2858>
  407184:	9115a084 	add	x4, x4, #0x568
  407188:	910b8084 	add	x4, x4, #0x2e0
  40718c:	937b7ea1 	sbfiz	x1, x21, #5, #32
  407190:	d0000005 	adrp	x5, 409000 <combiner_drain+0x44c>
  407194:	912880a5 	add	x5, x5, #0xa20
  407198:	aa1403e2 	mov	x2, x20
  40719c:	91000ac3 	add	x3, x22, #0x2
  4071a0:	f8616881 	ldr	x1, [x4, x1]
  4071a4:	f9002005 	str	x5, [x0, #64]
  4071a8:	f0000000 	adrp	x0, 40a000 <__dso_handle+0x858>
  4071ac:	910aa000 	add	x0, x0, #0x2a8
  4071b0:	97ffeca4 	bl	402440 <lsx_fail_impl@plt>
  4071b4:	aa1603e0 	mov	x0, x22
  4071b8:	97ffecc2 	bl	4024c0 <free@plt>
  4071bc:	52800020 	mov	w0, #0x1                   	// #1
  4071c0:	97ffedd8 	bl	402920 <exit@plt>

00000000004071c4 <parse_gopts_and_fopts>:
  4071c4:	a9b77bfd 	stp	x29, x30, [sp, #-144]!
  4071c8:	900000c1 	adrp	x1, 41f000 <__FRAME_END__+0x11414>
  4071cc:	91370021 	add	x1, x1, #0xdc0
  4071d0:	910003fd 	mov	x29, sp
  4071d4:	a90153f3 	stp	x19, x20, [sp, #16]
  4071d8:	b00000d3 	adrp	x19, 420000 <fputs@GLIBC_2.17>
  4071dc:	9112c273 	add	x19, x19, #0x4b0
  4071e0:	a9025bf5 	stp	x21, x22, [sp, #32]
  4071e4:	aa0003f5 	mov	x21, x0
  4071e8:	b0000036 	adrp	x22, 40c000 <__dso_handle+0x2858>
  4071ec:	a90363f7 	stp	x23, x24, [sp, #48]
  4071f0:	911102d6 	add	x22, x22, #0x440
  4071f4:	f0000017 	adrp	x23, 40a000 <__dso_handle+0x858>
  4071f8:	a9046bf9 	stp	x25, x26, [sp, #64]
  4071fc:	910c42f7 	add	x23, x23, #0x310
  407200:	a90573fb 	stp	x27, x28, [sp, #80]
  407204:	fd0033e8 	str	d8, [sp, #96]
  407208:	f9400020 	ldr	x0, [x1]
  40720c:	f90047e0 	str	x0, [sp, #136]
  407210:	d2800000 	mov	x0, #0x0                   	// #0
  407214:	97ffecc7 	bl	402530 <sox_version_info@plt>
  407218:	aa0003fb 	mov	x27, x0
  40721c:	d2c80000 	mov	x0, #0x400000000000        	// #70368744177664
  407220:	f2e811e0 	movk	x0, #0x408f, lsl #48
  407224:	9e670008 	fmov	d8, x0
  407228:	910d6260 	add	x0, x19, #0x358
  40722c:	97ffec59 	bl	402390 <lsx_getopt@plt>
  407230:	11000401 	add	w1, w0, #0x1
  407234:	7101e43f 	cmp	w1, #0x79
  407238:	54ffff88 	b.hi	407228 <parse_gopts_and_fopts+0x64>  // b.pmore
  40723c:	78615ac1 	ldrh	w1, [x22, w1, uxtw #1]
  407240:	10000062 	adr	x2, 40724c <parse_gopts_and_fopts+0x88>
  407244:	8b21a841 	add	x1, x2, w1, sxth #2
  407248:	d61f0020 	br	x1
  40724c:	12001c00 	and	w0, w0, #0xff
  407250:	900000c1 	adrp	x1, 41f000 <__FRAME_END__+0x11414>
  407254:	f94047e3 	ldr	x3, [sp, #136]
  407258:	f946e022 	ldr	x2, [x1, #3520]
  40725c:	eb020063 	subs	x3, x3, x2
  407260:	d2800002 	mov	x2, #0x0                   	// #0
  407264:	540058a1 	b.ne	407d78 <parse_gopts_and_fopts+0xbb4>  // b.any
  407268:	a94153f3 	ldp	x19, x20, [sp, #16]
  40726c:	a9425bf5 	ldp	x21, x22, [sp, #32]
  407270:	a94363f7 	ldp	x23, x24, [sp, #48]
  407274:	a9446bf9 	ldp	x25, x26, [sp, #64]
  407278:	a94573fb 	ldp	x27, x28, [sp, #80]
  40727c:	fd4033e8 	ldr	d8, [sp, #96]
  407280:	a8c97bfd 	ldp	x29, x30, [sp], #144
  407284:	d65f03c0 	ret
  407288:	b94042a1 	ldr	w1, [x21, #64]
  40728c:	7100083f 	cmp	w1, #0x2
  407290:	54005761 	b.ne	407d7c <parse_gopts_and_fopts+0xbb8>  // b.any
  407294:	b9404ea1 	ldr	w1, [x21, #76]
  407298:	35005721 	cbnz	w1, 407d7c <parse_gopts_and_fopts+0xbb8>
  40729c:	7101301f 	cmp	w0, #0x4c
  4072a0:	54001ec0 	b.eq	407678 <parse_gopts_and_fopts+0x4b4>  // b.none
  4072a4:	7101e01f 	cmp	w0, #0x78
  4072a8:	54001c20 	b.eq	40762c <parse_gopts_and_fopts+0x468>  // b.none
  4072ac:	7101081f 	cmp	w0, #0x42
  4072b0:	54fffbc1 	b.ne	407228 <parse_gopts_and_fopts+0x64>  // b.any
  4072b4:	52800020 	mov	w0, #0x1                   	// #1
  4072b8:	b90042a0 	str	w0, [x21, #64]
  4072bc:	17ffffdb 	b	407228 <parse_gopts_and_fopts+0x64>
  4072c0:	f941ca60 	ldr	x0, [x19, #912]
  4072c4:	f0000001 	adrp	x1, 40a000 <__dso_handle+0x858>
  4072c8:	91020fe3 	add	x3, sp, #0x83
  4072cc:	91154021 	add	x1, x1, #0x550
  4072d0:	910213e2 	add	x2, sp, #0x84
  4072d4:	97ffed1b 	bl	402740 <__isoc99_sscanf@plt>
  4072d8:	7100041f 	cmp	w0, #0x1
  4072dc:	54005201 	b.ne	407d1c <parse_gopts_and_fopts+0xb58>  // b.any
  4072e0:	b94087e0 	ldr	w0, [sp, #132]
  4072e4:	7100001f 	cmp	w0, #0x0
  4072e8:	540051ad 	b.le	407d1c <parse_gopts_and_fopts+0xb58>
  4072ec:	b90036a0 	str	w0, [x21, #52]
  4072f0:	17ffffce 	b	407228 <parse_gopts_and_fopts+0x64>
  4072f4:	52800020 	mov	w0, #0x1                   	// #1
  4072f8:	b9004aa0 	str	w0, [x21, #72]
  4072fc:	17ffffcb 	b	407228 <parse_gopts_and_fopts+0x64>
  407300:	f941ca60 	ldr	x0, [x19, #912]
  407304:	b4001700 	cbz	x0, 4075e4 <parse_gopts_and_fopts+0x420>
  407308:	f0000001 	adrp	x1, 40a000 <__dso_handle+0x858>
  40730c:	91020fe3 	add	x3, sp, #0x83
  407310:	91154021 	add	x1, x1, #0x550
  407314:	910213e2 	add	x2, sp, #0x84
  407318:	97ffed0a 	bl	402740 <__isoc99_sscanf@plt>
  40731c:	7100041f 	cmp	w0, #0x1
  407320:	54005121 	b.ne	407d44 <parse_gopts_and_fopts+0xb80>  // b.any
  407324:	b94087f4 	ldr	w20, [sp, #132]
  407328:	37f850f4 	tbnz	w20, #31, 407d44 <parse_gopts_and_fopts+0xb80>
  40732c:	97ffecf9 	bl	402710 <sox_get_globals@plt>
  407330:	b9000014 	str	w20, [x0]
  407334:	17ffffbd 	b	407228 <parse_gopts_and_fopts+0x64>
  407338:	b00000c0 	adrp	x0, 420000 <fputs@GLIBC_2.17>
  40733c:	528000a1 	mov	w1, #0x5                   	// #5
  407340:	b903c801 	str	w1, [x0, #968]
  407344:	17ffffb9 	b	407228 <parse_gopts_and_fopts+0x64>
  407348:	b00000c0 	adrp	x0, 420000 <fputs@GLIBC_2.17>
  40734c:	52800021 	mov	w1, #0x1                   	// #1
  407350:	b903d801 	str	w1, [x0, #984]
  407354:	17ffffb5 	b	407228 <parse_gopts_and_fopts+0x64>
  407358:	97ffecee 	bl	402710 <sox_get_globals@plt>
  40735c:	52800021 	mov	w1, #0x1                   	// #1
  407360:	b9001001 	str	w1, [x0, #16]
  407364:	17ffffb1 	b	407228 <parse_gopts_and_fopts+0x64>
  407368:	f941ca60 	ldr	x0, [x19, #912]
  40736c:	f0000001 	adrp	x1, 40a000 <__dso_handle+0x858>
  407370:	91020fe3 	add	x3, sp, #0x83
  407374:	91154021 	add	x1, x1, #0x550
  407378:	910213e2 	add	x2, sp, #0x84
  40737c:	97ffecf1 	bl	402740 <__isoc99_sscanf@plt>
  407380:	7100041f 	cmp	w0, #0x1
  407384:	54004b81 	b.ne	407cf4 <parse_gopts_and_fopts+0xb30>  // b.any
  407388:	b94087e0 	ldr	w0, [sp, #132]
  40738c:	7100001f 	cmp	w0, #0x0
  407390:	54004b2d 	b.le	407cf4 <parse_gopts_and_fopts+0xb30>
  407394:	b9001aa0 	str	w0, [x21, #24]
  407398:	17ffffa4 	b	407228 <parse_gopts_and_fopts+0x64>
  40739c:	f941ca60 	ldr	x0, [x19, #912]
  4073a0:	910d6274 	add	x20, x19, #0x358
  4073a4:	f0000001 	adrp	x1, 40a000 <__dso_handle+0x858>
  4073a8:	91020fe3 	add	x3, sp, #0x83
  4073ac:	91136021 	add	x1, x1, #0x4d8
  4073b0:	9100e2a2 	add	x2, x21, #0x38
  4073b4:	97ffece3 	bl	402740 <__isoc99_sscanf@plt>
  4073b8:	7100041f 	cmp	w0, #0x1
  4073bc:	54fff360 	b.eq	407228 <parse_gopts_and_fopts+0x64>  // b.none
  4073c0:	97ffecd4 	bl	402710 <sox_get_globals@plt>
  4073c4:	f9401e81 	ldr	x1, [x20, #56]
  4073c8:	d0000002 	adrp	x2, 409000 <combiner_drain+0x44c>
  4073cc:	91288042 	add	x2, x2, #0xa20
  4073d0:	f9002002 	str	x2, [x0, #64]
  4073d4:	f0000000 	adrp	x0, 40a000 <__dso_handle+0x858>
  4073d8:	91162000 	add	x0, x0, #0x588
  4073dc:	97ffec19 	bl	402440 <lsx_fail_impl@plt>
  4073e0:	52800020 	mov	w0, #0x1                   	// #1
  4073e4:	97ffed4f 	bl	402920 <exit@plt>
  4073e8:	b9439a60 	ldr	w0, [x19, #920]
  4073ec:	7100641f 	cmp	w0, #0x19
  4073f0:	54fff1c8 	b.hi	407228 <parse_gopts_and_fopts+0x64>  // b.pmore
  4073f4:	b0000021 	adrp	x1, 40c000 <__dso_handle+0x2858>
  4073f8:	9114d021 	add	x1, x1, #0x534
  4073fc:	78605821 	ldrh	w1, [x1, w0, uxtw #1]
  407400:	10000060 	adr	x0, 40740c <parse_gopts_and_fopts+0x248>
  407404:	8b21a801 	add	x1, x0, w1, sxth #2
  407408:	d61f0020 	br	x1
  40740c:	52800020 	mov	w0, #0x1                   	// #1
  407410:	b90046a0 	str	w0, [x21, #68]
  407414:	17ffff85 	b	407228 <parse_gopts_and_fopts+0x64>
  407418:	b00000c0 	adrp	x0, 420000 <fputs@GLIBC_2.17>
  40741c:	52800081 	mov	w1, #0x4                   	// #4
  407420:	b903c801 	str	w1, [x0, #968]
  407424:	17ffff81 	b	407228 <parse_gopts_and_fopts+0x64>
  407428:	52800020 	mov	w0, #0x1                   	// #1
  40742c:	b904ce60 	str	w0, [x19, #1228]
  407430:	17ffff7e 	b	407228 <parse_gopts_and_fopts+0x64>
  407434:	52800020 	mov	w0, #0x1                   	// #1
  407438:	b904de60 	str	w0, [x19, #1244]
  40743c:	17ffff7b 	b	407228 <parse_gopts_and_fopts+0x64>
  407440:	f941ca60 	ldr	x0, [x19, #912]
  407444:	910d6274 	add	x20, x19, #0x358
  407448:	f0000001 	adrp	x1, 40a000 <__dso_handle+0x858>
  40744c:	91020fe3 	add	x3, sp, #0x83
  407450:	91136021 	add	x1, x1, #0x4d8
  407454:	910142a2 	add	x2, x21, #0x50
  407458:	97ffecba 	bl	402740 <__isoc99_sscanf@plt>
  40745c:	7100041f 	cmp	w0, #0x1
  407460:	54004361 	b.ne	407ccc <parse_gopts_and_fopts+0xb08>  // b.any
  407464:	fd402aa0 	ldr	d0, [x21, #80]
  407468:	b904da60 	str	w0, [x19, #1240]
  40746c:	1e602018 	fcmpe	d0, #0.0
  407470:	54000c84 	b.mi	407600 <parse_gopts_and_fopts+0x43c>  // b.first
  407474:	17ffff6d 	b	407228 <parse_gopts_and_fopts+0x64>
  407478:	f941ca61 	ldr	x1, [x19, #912]
  40747c:	f90006a1 	str	x1, [x21, #8]
  407480:	aa0103e0 	mov	x0, x1
  407484:	38401402 	ldrb	w2, [x0], #1
  407488:	7100b85f 	cmp	w2, #0x2e
  40748c:	9a810000 	csel	x0, x0, x1, eq  // eq = none
  407490:	f90006a0 	str	x0, [x21, #8]
  407494:	17ffff65 	b	407228 <parse_gopts_and_fopts+0x64>
  407498:	f941ca60 	ldr	x0, [x19, #912]
  40749c:	f0000001 	adrp	x1, 40a000 <__dso_handle+0x858>
  4074a0:	91126021 	add	x1, x1, #0x498
  4074a4:	91020fe4 	add	x4, sp, #0x83
  4074a8:	910213e3 	add	x3, sp, #0x84
  4074ac:	910042a2 	add	x2, x21, #0x10
  4074b0:	390213ff 	strb	wzr, [sp, #132]
  4074b4:	97ffeca3 	bl	402740 <__isoc99_sscanf@plt>
  4074b8:	93407c01 	sxtw	x1, w0
  4074bc:	34000e20 	cbz	w0, 407680 <parse_gopts_and_fopts+0x4bc>
  4074c0:	fd400aa0 	ldr	d0, [x21, #16]
  4074c4:	1e602018 	fcmpe	d0, #0.0
  4074c8:	54000dc9 	b.ls	407680 <parse_gopts_and_fopts+0x4bc>  // b.plast
  4074cc:	394213e0 	ldrb	w0, [sp, #132]
  4074d0:	f100043f 	cmp	x1, #0x1
  4074d4:	54000800 	b.eq	4075d4 <parse_gopts_and_fopts+0x410>  // b.none
  4074d8:	7101ac1f 	cmp	w0, #0x6b
  4074dc:	54000d21 	b.ne	407680 <parse_gopts_and_fopts+0x4bc>  // b.any
  4074e0:	f100083f 	cmp	x1, #0x2
  4074e4:	54000ce1 	b.ne	407680 <parse_gopts_and_fopts+0x4bc>  // b.any
  4074e8:	1e680800 	fmul	d0, d0, d8
  4074ec:	fd000aa0 	str	d0, [x21, #16]
  4074f0:	17ffff4e 	b	407228 <parse_gopts_and_fopts+0x64>
  4074f4:	b00000c0 	adrp	x0, 420000 <fputs@GLIBC_2.17>
  4074f8:	b903d81f 	str	wzr, [x0, #984]
  4074fc:	17ffff4b 	b	407228 <parse_gopts_and_fopts+0x64>
  407500:	b0000022 	adrp	x2, 40c000 <__dso_handle+0x2858>
  407504:	9115a042 	add	x2, x2, #0x568
  407508:	f941ca60 	ldr	x0, [x19, #912]
  40750c:	910b8043 	add	x3, x2, #0x2e0
  407510:	52800001 	mov	w1, #0x0                   	// #0
  407514:	d503201f 	nop
  407518:	f8420c64 	ldr	x4, [x3, #32]!
  40751c:	11000421 	add	w1, w1, #0x1
  407520:	b40006c4 	cbz	x4, 4075f8 <parse_gopts_and_fopts+0x434>
  407524:	b9401864 	ldr	w4, [x3, #24]
  407528:	7101949f 	cmp	w4, #0x65
  40752c:	54ffff61 	b.ne	407518 <parse_gopts_and_fopts+0x354>  // b.any
  407530:	91268042 	add	x2, x2, #0x9a0
  407534:	97fffee3 	bl	4070c0 <enum_option>
  407538:	7100101f 	cmp	w0, #0x4
  40753c:	54002f60 	b.eq	407b28 <parse_gopts_and_fopts+0x964>  // b.none
  407540:	5400024c 	b.gt	407588 <parse_gopts_and_fopts+0x3c4>
  407544:	7100081f 	cmp	w0, #0x2
  407548:	54002f60 	b.eq	407b34 <parse_gopts_and_fopts+0x970>  // b.none
  40754c:	71000c1f 	cmp	w0, #0x3
  407550:	54000101 	b.ne	407570 <parse_gopts_and_fopts+0x3ac>  // b.any
  407554:	528001e0 	mov	w0, #0xf                   	// #15
  407558:	b90032a0 	str	w0, [x21, #48]
  40755c:	17ffff33 	b	407228 <parse_gopts_and_fopts+0x64>
  407560:	b00000c0 	adrp	x0, 420000 <fputs@GLIBC_2.17>
  407564:	52800041 	mov	w1, #0x2                   	// #2
  407568:	b903c801 	str	w1, [x0, #968]
  40756c:	17ffff2f 	b	407228 <parse_gopts_and_fopts+0x64>
  407570:	34002e80 	cbz	w0, 407b40 <parse_gopts_and_fopts+0x97c>
  407574:	7100041f 	cmp	w0, #0x1
  407578:	54ffe581 	b.ne	407228 <parse_gopts_and_fopts+0x64>  // b.any
  40757c:	52800040 	mov	w0, #0x2                   	// #2
  407580:	b90032a0 	str	w0, [x21, #48]
  407584:	17ffff29 	b	407228 <parse_gopts_and_fopts+0x64>
  407588:	71001c1f 	cmp	w0, #0x7
  40758c:	54002c20 	b.eq	407b10 <parse_gopts_and_fopts+0x94c>  // b.none
  407590:	5400014d 	b.le	4075b8 <parse_gopts_and_fopts+0x3f4>
  407594:	7100201f 	cmp	w0, #0x8
  407598:	54ffe481 	b.ne	407228 <parse_gopts_and_fopts+0x64>  // b.any
  40759c:	b94036a0 	ldr	w0, [x21, #52]
  4075a0:	52800141 	mov	w1, #0xa                   	// #10
  4075a4:	b90032a1 	str	w1, [x21, #48]
  4075a8:	35ffe400 	cbnz	w0, 407228 <parse_gopts_and_fopts+0x64>
  4075ac:	52800100 	mov	w0, #0x8                   	// #8
  4075b0:	b90036a0 	str	w0, [x21, #52]
  4075b4:	17ffff1d 	b	407228 <parse_gopts_and_fopts+0x64>
  4075b8:	7100141f 	cmp	w0, #0x5
  4075bc:	54002a40 	b.eq	407b04 <parse_gopts_and_fopts+0x940>  // b.none
  4075c0:	7100181f 	cmp	w0, #0x6
  4075c4:	54ffe321 	b.ne	407228 <parse_gopts_and_fopts+0x64>  // b.any
  4075c8:	528002a0 	mov	w0, #0x15                  	// #21
  4075cc:	b90032a0 	str	w0, [x21, #48]
  4075d0:	17ffff16 	b	407228 <parse_gopts_and_fopts+0x64>
  4075d4:	7101ac1f 	cmp	w0, #0x6b
  4075d8:	54fff880 	b.eq	4074e8 <parse_gopts_and_fopts+0x324>  // b.none
  4075dc:	fd000aa0 	str	d0, [x21, #16]
  4075e0:	17ffff12 	b	407228 <parse_gopts_and_fopts+0x64>
  4075e4:	97ffec4b 	bl	402710 <sox_get_globals@plt>
  4075e8:	b9400001 	ldr	w1, [x0]
  4075ec:	11000421 	add	w1, w1, #0x1
  4075f0:	b9000001 	str	w1, [x0]
  4075f4:	17ffff0d 	b	407228 <parse_gopts_and_fopts+0x64>
  4075f8:	12800001 	mov	w1, #0xffffffff            	// #-1
  4075fc:	17ffffcd 	b	407530 <parse_gopts_and_fopts+0x36c>
  407600:	97ffec44 	bl	402710 <sox_get_globals@plt>
  407604:	aa0003e2 	mov	x2, x0
  407608:	d0000001 	adrp	x1, 409000 <combiner_drain+0x44c>
  40760c:	91288021 	add	x1, x1, #0xa20
  407610:	f0000000 	adrp	x0, 40a000 <__dso_handle+0x858>
  407614:	91142000 	add	x0, x0, #0x508
  407618:	f9002041 	str	x1, [x2, #64]
  40761c:	97ffec4d 	bl	402750 <lsx_report_impl@plt>
  407620:	17ffff02 	b	407228 <parse_gopts_and_fopts+0x64>
  407624:	52800000 	mov	w0, #0x0                   	// #0
  407628:	17ffff0a 	b	407250 <parse_gopts_and_fopts+0x8c>
  40762c:	52800020 	mov	w0, #0x1                   	// #1
  407630:	b9004ea0 	str	w0, [x21, #76]
  407634:	17fffefd 	b	407228 <parse_gopts_and_fopts+0x64>
  407638:	b94042a0 	ldr	w0, [x21, #64]
  40763c:	7100081f 	cmp	w0, #0x2
  407640:	540039e1 	b.ne	407d7c <parse_gopts_and_fopts+0xbb8>  // b.any
  407644:	b9404ea0 	ldr	w0, [x21, #76]
  407648:	350039a0 	cbnz	w0, 407d7c <parse_gopts_and_fopts+0xbb8>
  40764c:	f941ca60 	ldr	x0, [x19, #912]
  407650:	b0000022 	adrp	x2, 40c000 <__dso_handle+0x2858>
  407654:	9115a042 	add	x2, x2, #0x568
  407658:	528000a1 	mov	w1, #0x5                   	// #5
  40765c:	91234042 	add	x2, x2, #0x8d0
  407660:	97fffe98 	bl	4070c0 <enum_option>
  407664:	7100041f 	cmp	w0, #0x1
  407668:	54ffe280 	b.eq	4072b8 <parse_gopts_and_fopts+0xf4>  // b.none
  40766c:	7100081f 	cmp	w0, #0x2
  407670:	54fffde0 	b.eq	40762c <parse_gopts_and_fopts+0x468>  // b.none
  407674:	35ffdda0 	cbnz	w0, 407228 <parse_gopts_and_fopts+0x64>
  407678:	b90042bf 	str	wzr, [x21, #64]
  40767c:	17fffeeb 	b	407228 <parse_gopts_and_fopts+0x64>
  407680:	97ffec24 	bl	402710 <sox_get_globals@plt>
  407684:	f941ca61 	ldr	x1, [x19, #912]
  407688:	d0000002 	adrp	x2, 409000 <combiner_drain+0x44c>
  40768c:	91288042 	add	x2, x2, #0xa20
  407690:	f9002002 	str	x2, [x0, #64]
  407694:	f0000000 	adrp	x0, 40a000 <__dso_handle+0x858>
  407698:	9112a000 	add	x0, x0, #0x4a8
  40769c:	97ffeb69 	bl	402440 <lsx_fail_impl@plt>
  4076a0:	52800020 	mov	w0, #0x1                   	// #1
  4076a4:	97ffec9f 	bl	402920 <exit@plt>
  4076a8:	f0000000 	adrp	x0, 40a000 <__dso_handle+0x858>
  4076ac:	91122000 	add	x0, x0, #0x488
  4076b0:	97fffb0c 	bl	4062e0 <usage>
  4076b4:	d2800000 	mov	x0, #0x0                   	// #0
  4076b8:	97fffb0a 	bl	4062e0 <usage>
  4076bc:	b904d67f 	str	wzr, [x19, #1236]
  4076c0:	17fffeda 	b	407228 <parse_gopts_and_fopts+0x64>
  4076c4:	92800020 	mov	x0, #0xfffffffffffffffe    	// #-2
  4076c8:	f90012a0 	str	x0, [x21, #32]
  4076cc:	17fffed7 	b	407228 <parse_gopts_and_fopts+0x64>
  4076d0:	f941ca60 	ldr	x0, [x19, #912]
  4076d4:	52800021 	mov	w1, #0x1                   	// #1
  4076d8:	b904ce61 	str	w1, [x19, #1228]
  4076dc:	b904d261 	str	w1, [x19, #1232]
  4076e0:	97ffebe0 	bl	402660 <lsx_strdup@plt>
  4076e4:	f9026260 	str	x0, [x19, #1216]
  4076e8:	17fffed0 	b	407228 <parse_gopts_and_fopts+0x64>
  4076ec:	97ffec09 	bl	402710 <sox_get_globals@plt>
  4076f0:	b9400b61 	ldr	w1, [x27, #8]
  4076f4:	360822c1 	tbz	w1, #1, 407b4c <parse_gopts_and_fopts+0x988>
  4076f8:	52800021 	mov	w1, #0x1                   	// #1
  4076fc:	b9005001 	str	w1, [x0, #80]
  407700:	17fffeca 	b	407228 <parse_gopts_and_fopts+0x64>
  407704:	f941ca60 	ldr	x0, [x19, #912]
  407708:	97ffebd6 	bl	402660 <lsx_strdup@plt>
  40770c:	f9025a60 	str	x0, [x19, #1200]
  407710:	17fffec6 	b	407228 <parse_gopts_and_fopts+0x64>
  407714:	f941ca60 	ldr	x0, [x19, #912]
  407718:	b0000022 	adrp	x2, 40c000 <__dso_handle+0x2858>
  40771c:	9115a042 	add	x2, x2, #0x568
  407720:	52800181 	mov	w1, #0xc                   	// #12
  407724:	91258042 	add	x2, x2, #0x960
  407728:	97fffe66 	bl	4070c0 <enum_option>
  40772c:	b00000c1 	adrp	x1, 420000 <fputs@GLIBC_2.17>
  407730:	b903e020 	str	w0, [x1, #992]
  407734:	17fffebd 	b	407228 <parse_gopts_and_fopts+0x64>
  407738:	b00000c0 	adrp	x0, 420000 <fputs@GLIBC_2.17>
  40773c:	f9424c00 	ldr	x0, [x0, #1176]
  407740:	97fffa88 	bl	406160 <display_SoX_version>
  407744:	52800000 	mov	w0, #0x0                   	// #0
  407748:	97ffec76 	bl	402920 <exit@plt>
  40774c:	52800020 	mov	w0, #0x1                   	// #1
  407750:	b904d660 	str	w0, [x19, #1236]
  407754:	17fffeb5 	b	407228 <parse_gopts_and_fopts+0x64>
  407758:	97ffebee 	bl	402710 <sox_get_globals@plt>
  40775c:	52800021 	mov	w1, #0x1                   	// #1
  407760:	b9005401 	str	w1, [x0, #84]
  407764:	17fffeb1 	b	407228 <parse_gopts_and_fopts+0x64>
  407768:	f941ca60 	ldr	x0, [x19, #912]
  40776c:	f0000001 	adrp	x1, 40a000 <__dso_handle+0x858>
  407770:	91020fe3 	add	x3, sp, #0x83
  407774:	910b2021 	add	x1, x1, #0x2c8
  407778:	910213e2 	add	x2, sp, #0x84
  40777c:	97ffebf1 	bl	402740 <__isoc99_sscanf@plt>
  407780:	7100041f 	cmp	w0, #0x1
  407784:	540021c1 	b.ne	407bbc <parse_gopts_and_fopts+0x9f8>  // b.any
  407788:	97ffebe2 	bl	402710 <sox_get_globals@plt>
  40778c:	b94087f4 	ldr	w20, [sp, #132]
  407790:	51002281 	sub	w1, w20, #0x8
  407794:	7100203f 	cmp	w1, #0x8
  407798:	54002128 	b.hi	407bbc <parse_gopts_and_fopts+0x9f8>  // b.pmore
  40779c:	93407e94 	sxtw	x20, w20
  4077a0:	f9002c14 	str	x20, [x0, #88]
  4077a4:	17fffea1 	b	407228 <parse_gopts_and_fopts+0x64>
  4077a8:	f941ca60 	ldr	x0, [x19, #912]
  4077ac:	97ffebad 	bl	402660 <lsx_strdup@plt>
  4077b0:	f9025e60 	str	x0, [x19, #1208]
  4077b4:	17fffe9d 	b	407228 <parse_gopts_and_fopts+0x64>
  4077b8:	97ffebd6 	bl	402710 <sox_get_globals@plt>
  4077bc:	aa0003f4 	mov	x20, x0
  4077c0:	f941ca60 	ldr	x0, [x19, #912]
  4077c4:	97ffeba7 	bl	402660 <lsx_strdup@plt>
  4077c8:	f9002680 	str	x0, [x20, #72]
  4077cc:	17fffe97 	b	407228 <parse_gopts_and_fopts+0x64>
  4077d0:	97ffebd0 	bl	402710 <sox_get_globals@plt>
  4077d4:	b900541f 	str	wzr, [x0, #84]
  4077d8:	17fffe94 	b	407228 <parse_gopts_and_fopts+0x64>
  4077dc:	f941ca61 	ldr	x1, [x19, #912]
  4077e0:	b4ffd241 	cbz	x1, 407228 <parse_gopts_and_fopts+0x64>
  4077e4:	910182a0 	add	x0, x21, #0x60
  4077e8:	97ffeb3e 	bl	4024e0 <sox_append_comment@plt>
  4077ec:	17fffe8f 	b	407228 <parse_gopts_and_fopts+0x64>
  4077f0:	f941ca60 	ldr	x0, [x19, #912]
  4077f4:	f0000001 	adrp	x1, 40a000 <__dso_handle+0x858>
  4077f8:	91020fe3 	add	x3, sp, #0x83
  4077fc:	910b2021 	add	x1, x1, #0x2c8
  407800:	910213e2 	add	x2, sp, #0x84
  407804:	97ffebcf 	bl	402740 <__isoc99_sscanf@plt>
  407808:	7100041f 	cmp	w0, #0x1
  40780c:	54002361 	b.ne	407c78 <parse_gopts_and_fopts+0xab4>  // b.any
  407810:	b94087f4 	ldr	w20, [sp, #132]
  407814:	7100429f 	cmp	w20, #0x10
  407818:	5400230d 	b.le	407c78 <parse_gopts_and_fopts+0xab4>
  40781c:	93407e94 	sxtw	x20, w20
  407820:	97ffebbc 	bl	402710 <sox_get_globals@plt>
  407824:	f9000c14 	str	x20, [x0, #24]
  407828:	17fffe80 	b	407228 <parse_gopts_and_fopts+0x64>
  40782c:	f941ca60 	ldr	x0, [x19, #912]
  407830:	b0000022 	adrp	x2, 40c000 <__dso_handle+0x2858>
  407834:	9115a042 	add	x2, x2, #0x568
  407838:	52800041 	mov	w1, #0x2                   	// #2
  40783c:	91218042 	add	x2, x2, #0x860
  407840:	97fffe20 	bl	4070c0 <enum_option>
  407844:	b00000c1 	adrp	x1, 420000 <fputs@GLIBC_2.17>
  407848:	b903c820 	str	w0, [x1, #968]
  40784c:	17fffe77 	b	407228 <parse_gopts_and_fopts+0x64>
  407850:	f941ca60 	ldr	x0, [x19, #912]
  407854:	f0000001 	adrp	x1, 40a000 <__dso_handle+0x858>
  407858:	91020fe3 	add	x3, sp, #0x83
  40785c:	910b2021 	add	x1, x1, #0x2c8
  407860:	910213e2 	add	x2, sp, #0x84
  407864:	97ffebb7 	bl	402740 <__isoc99_sscanf@plt>
  407868:	7100041f 	cmp	w0, #0x1
  40786c:	54002061 	b.ne	407c78 <parse_gopts_and_fopts+0xab4>  // b.any
  407870:	b94087f4 	ldr	w20, [sp, #132]
  407874:	7100429f 	cmp	w20, #0x10
  407878:	5400200d 	b.le	407c78 <parse_gopts_and_fopts+0xab4>
  40787c:	93407e94 	sxtw	x20, w20
  407880:	97ffeba4 	bl	402710 <sox_get_globals@plt>
  407884:	f9001014 	str	x20, [x0, #32]
  407888:	17fffe68 	b	407228 <parse_gopts_and_fopts+0x64>
  40788c:	52800020 	mov	w0, #0x1                   	// #1
  407890:	b903f260 	str	w0, [x19, #1008]
  407894:	17fffe65 	b	407228 <parse_gopts_and_fopts+0x64>
  407898:	52800020 	mov	w0, #0x1                   	// #1
  40789c:	b90132a0 	str	w0, [x21, #304]
  4078a0:	17fffe62 	b	407228 <parse_gopts_and_fopts+0x64>
  4078a4:	f941ca60 	ldr	x0, [x19, #912]
  4078a8:	b0000022 	adrp	x2, 40c000 <__dso_handle+0x2858>
  4078ac:	9115a042 	add	x2, x2, #0x568
  4078b0:	52800161 	mov	w1, #0xb                   	// #11
  4078b4:	91244042 	add	x2, x2, #0x910
  4078b8:	97fffe02 	bl	4070c0 <enum_option>
  4078bc:	2a0003f4 	mov	w20, w0
  4078c0:	97ffec30 	bl	402980 <sox_get_effects_globals@plt>
  4078c4:	b9000014 	str	w20, [x0]
  4078c8:	17fffe58 	b	407228 <parse_gopts_and_fopts+0x64>
  4078cc:	910182b4 	add	x20, x21, #0x60
  4078d0:	f0000001 	adrp	x1, 40a000 <__dso_handle+0x858>
  4078d4:	aa1403e0 	mov	x0, x20
  4078d8:	910fa021 	add	x1, x1, #0x3e8
  4078dc:	97ffeb01 	bl	4024e0 <sox_append_comment@plt>
  4078e0:	f941ca61 	ldr	x1, [x19, #912]
  4078e4:	39400020 	ldrb	w0, [x1]
  4078e8:	34ffca00 	cbz	w0, 407228 <parse_gopts_and_fopts+0x64>
  4078ec:	aa1403e0 	mov	x0, x20
  4078f0:	97ffeafc 	bl	4024e0 <sox_append_comment@plt>
  4078f4:	17fffe4d 	b	407228 <parse_gopts_and_fopts+0x64>
  4078f8:	f0000001 	adrp	x1, 40a000 <__dso_handle+0x858>
  4078fc:	910fa021 	add	x1, x1, #0x3e8
  407900:	910182a0 	add	x0, x21, #0x60
  407904:	f9003be0 	str	x0, [sp, #112]
  407908:	97ffeaf6 	bl	4024e0 <sox_append_comment@plt>
  40790c:	f941ca74 	ldr	x20, [x19, #912]
  407910:	d2800ca0 	mov	x0, #0x65                  	// #101
  407914:	f9003ff4 	str	x20, [sp, #120]
  407918:	97ffebb6 	bl	4027f0 <lsx_malloc@plt>
  40791c:	f0000001 	adrp	x1, 40a000 <__dso_handle+0x858>
  407920:	aa0003f8 	mov	x24, x0
  407924:	91140021 	add	x1, x1, #0x500
  407928:	aa1403e0 	mov	x0, x20
  40792c:	97ffebbd 	bl	402820 <fopen@plt>
  407930:	aa0003fa 	mov	x26, x0
  407934:	b40018e0 	cbz	x0, 407c50 <parse_gopts_and_fopts+0xa8c>
  407938:	d2800c99 	mov	x25, #0x64                  	// #100
  40793c:	d503201f 	nop
  407940:	d2800014 	mov	x20, #0x0                   	// #0
  407944:	14000003 	b	407950 <parse_gopts_and_fopts+0x78c>
  407948:	38346b1c 	strb	w28, [x24, x20]
  40794c:	91000694 	add	x20, x20, #0x1
  407950:	aa1a03e0 	mov	x0, x26
  407954:	97ffeb5b 	bl	4026c0 <getc@plt>
  407958:	2a0003fc 	mov	w28, w0
  40795c:	3100041f 	cmn	w0, #0x1
  407960:	54000b20 	b.eq	407ac4 <parse_gopts_and_fopts+0x900>  // b.none
  407964:	2a0003e1 	mov	w1, w0
  407968:	aa1703e0 	mov	x0, x23
  40796c:	97ffeae1 	bl	4024f0 <strchr@plt>
  407970:	b5000aa0 	cbnz	x0, 407ac4 <parse_gopts_and_fopts+0x900>
  407974:	eb14033f 	cmp	x25, x20
  407978:	54fffe81 	b.ne	407948 <parse_gopts_and_fopts+0x784>  // b.any
  40797c:	d37ffb39 	lsl	x25, x25, #1
  407980:	aa1803e0 	mov	x0, x24
  407984:	91000721 	add	x1, x25, #0x1
  407988:	97ffea72 	bl	402350 <lsx_realloc@plt>
  40798c:	aa0003f8 	mov	x24, x0
  407990:	17ffffee 	b	407948 <parse_gopts_and_fopts+0x784>
  407994:	b00000d9 	adrp	x25, 420000 <fputs@GLIBC_2.17>
  407998:	f0000015 	adrp	x21, 40a000 <__dso_handle+0x858>
  40799c:	f941ca74 	ldr	x20, [x19, #912]
  4079a0:	910da2b5 	add	x21, x21, #0x368
  4079a4:	f9424f20 	ldr	x0, [x25, #1176]
  4079a8:	97fff9ee 	bl	406160 <display_SoX_version>
  4079ac:	f9424f21 	ldr	x1, [x25, #1176]
  4079b0:	52800140 	mov	w0, #0xa                   	// #10
  4079b4:	97ffea9b 	bl	402420 <putc@plt>
  4079b8:	aa1403e1 	mov	x1, x20
  4079bc:	aa1503e0 	mov	x0, x21
  4079c0:	97ffeba0 	bl	402840 <strcmp@plt>
  4079c4:	34000080 	cbz	w0, 4079d4 <parse_gopts_and_fopts+0x810>
  4079c8:	aa1403e0 	mov	x0, x20
  4079cc:	97ffeadd 	bl	402540 <sox_find_effect@plt>
  4079d0:	b4001280 	cbz	x0, 407c20 <parse_gopts_and_fopts+0xa5c>
  4079d4:	f0000017 	adrp	x23, 40a000 <__dso_handle+0x858>
  4079d8:	f0000016 	adrp	x22, 40a000 <__dso_handle+0x858>
  4079dc:	910ea2f7 	add	x23, x23, #0x3a8
  4079e0:	9128e2d6 	add	x22, x22, #0xa38
  4079e4:	d2800018 	mov	x24, #0x0                   	// #0
  4079e8:	5280c81a 	mov	w26, #0x640                 	// #1600
  4079ec:	f0000000 	adrp	x0, 40a000 <__dso_handle+0x858>
  4079f0:	910e6000 	add	x0, x0, #0x398
  4079f4:	97ffea5b 	bl	402360 <puts@plt>
  4079f8:	97ffeb8e 	bl	402830 <sox_get_effect_fns@plt>
  4079fc:	f8786800 	ldr	x0, [x0, x24]
  407a00:	b4000ee0 	cbz	x0, 407bdc <parse_gopts_and_fopts+0xa18>
  407a04:	d63f0000 	blr	x0
  407a08:	aa0003f3 	mov	x19, x0
  407a0c:	b4000300 	cbz	x0, 407a6c <parse_gopts_and_fopts+0x8a8>
  407a10:	f940001b 	ldr	x27, [x0]
  407a14:	b40002db 	cbz	x27, 407a6c <parse_gopts_and_fopts+0x8a8>
  407a18:	aa1403e1 	mov	x1, x20
  407a1c:	aa1503e0 	mov	x0, x21
  407a20:	97ffeb88 	bl	402840 <strcmp@plt>
  407a24:	340000a0 	cbz	w0, 407a38 <parse_gopts_and_fopts+0x874>
  407a28:	aa1403e1 	mov	x1, x20
  407a2c:	aa1b03e0 	mov	x0, x27
  407a30:	97ffeb84 	bl	402840 <strcmp@plt>
  407a34:	350001c0 	cbnz	w0, 407a6c <parse_gopts_and_fopts+0x8a8>
  407a38:	f9400662 	ldr	x2, [x19, #8]
  407a3c:	b4000e02 	cbz	x2, 407bfc <parse_gopts_and_fopts+0xa38>
  407a40:	aa1b03e1 	mov	x1, x27
  407a44:	aa1703e0 	mov	x0, x23
  407a48:	97ffebfe 	bl	402a40 <printf@plt>
  407a4c:	b9401260 	ldr	w0, [x19, #16]
  407a50:	6a1a001f 	tst	w0, w26
  407a54:	54000c81 	b.ne	407be4 <parse_gopts_and_fopts+0xa20>  // b.any
  407a58:	373009e0 	tbnz	w0, #6, 407b94 <parse_gopts_and_fopts+0x9d0>
  407a5c:	37480860 	tbnz	w0, #9, 407b68 <parse_gopts_and_fopts+0x9a4>
